Archive member included because of file (symbol)

../../../../../..//binary/armv7a/gcc/am335x/drivers/Release/libdrivers.a(cpsw.o)
                              Release/demoEnet.o (CPSWSSReset)
../../../../../..//binary/armv7a/gcc/am335x/drivers/Release/libdrivers.a(dmtimer.o)
                              Release/demoTimer.o (DMTimerEnable)
../../../../../..//binary/armv7a/gcc/am335x/drivers/Release/libdrivers.a(edma.o)
                              Release/demoSdRw.o (EDMA3Init)
../../../../../..//binary/armv7a/gcc/am335x/drivers/Release/libdrivers.a(gpio_v2.o)
                              Release/demoLedIf.o (GPIOModuleReset)
../../../../../..//binary/armv7a/gcc/am335x/drivers/Release/libdrivers.a(gpmc.o)
                              Release/demoPwrMgmnt.o (GPMCIdleModeSelect)
../../../../../..//binary/armv7a/gcc/am335x/drivers/Release/libdrivers.a(hs_mmcsd.o)
                              Release/demoPwrMgmnt.o (HSMMCSDSystemConfig)
../../../../../..//binary/armv7a/gcc/am335x/drivers/Release/libdrivers.a(hsi2c.o)
                              Release/demoI2c.o (I2CMasterInitExpClk)
../../../../../..//binary/armv7a/gcc/am335x/drivers/Release/libdrivers.a(mailbox.o)
                              Release/cm3wkup_proxy.o (MBresetMailbox)
../../../../../..//binary/armv7a/gcc/am335x/drivers/Release/libdrivers.a(mdio.o)
                              Release/lwiplib.o (MDIOPhyAliveStatusGet)
../../../../../..//binary/armv7a/gcc/am335x/drivers/Release/libdrivers.a(phy.o)
                              Release/lwiplib.o (PhyReset)
../../../../../..//binary/armv7a/gcc/am335x/drivers/Release/libdrivers.a(rtc.o)
                              Release/demoRtc.o (RTCRun)
../../../../../..//binary/armv7a/gcc/am335x/drivers/Release/libdrivers.a(uart_irda_cir.o)
                              Release/demoUart.o (UARTIntEnable)
../../../../../..//binary/armv7a/gcc/utils/Release/libutils.a(ascii.o)
                              Release/demoRtc.o (TimeToStr)
../../../../../..//binary/armv7a/gcc/utils/Release/libutils.a(board.o)
                              Release/demoMain.o (BoardVersionGet)
../../../../../..//binary/armv7a/gcc/utils/Release/libutils.a(cmdline.o)
                              Release/demoSdFs.o (CmdLineProcess)
../../../../../..//binary/armv7a/gcc/utils/Release/libutils.a(consoleUtils.o)
                              Release/demoMain.o (ConsoleUtilsInit)
../../../../../..//binary/armv7a/gcc/utils/Release/libutils.a(delay.o)
                              Release/demoMain.o (DelayTimerSetup)
../../../../../..//binary/armv7a/gcc/utils/Release/libutils.a(uartStdio.o)
                              ../../../../../..//binary/armv7a/gcc/utils/Release/libutils.a(consoleUtils.o) (UARTStdioInit)
../../../../../..//binary/armv7a/gcc/am335x/beaglebone/platform/Release/libplatform.a(board.o)
                              ../../../../../..//binary/armv7a/gcc/utils/Release/libutils.a(board.o) (BoardInfoCheck)
../../../../../..//binary/armv7a/gcc/am335x/beaglebone/platform/Release/libplatform.a(cpsw.o)
                              Release/demoMain.o (CPSWPinMuxSetup)
../../../../../..//binary/armv7a/gcc/am335x/beaglebone/platform/Release/libplatform.a(ctlregcontext.o)
                              Release/demoPwrMgmnt.o (ControlRegContextSave)
../../../../../..//binary/armv7a/gcc/am335x/beaglebone/platform/Release/libplatform.a(dmtimer.o)
                              Release/demoMain.o (DMTimer3ModuleClkConfig)
../../../../../..//binary/armv7a/gcc/am335x/beaglebone/platform/Release/libplatform.a(edma.o)
                              ../../../../../..//binary/armv7a/gcc/am335x/drivers/Release/libdrivers.a(edma.o) (EDMAVersionGet)
../../../../../..//binary/armv7a/gcc/am335x/beaglebone/platform/Release/libplatform.a(eeprom.o)
                              ../../../../../..//binary/armv7a/gcc/utils/Release/libutils.a(board.o) (BoardInfoRead)
../../../../../..//binary/armv7a/gcc/am335x/beaglebone/platform/Release/libplatform.a(gpio.o)
                              Release/demoMain.o (GPIO1Pin23PinMuxSetup)
../../../../../..//binary/armv7a/gcc/am335x/beaglebone/platform/Release/libplatform.a(hs_mmcsd.o)
                              Release/demoMain.o (HSMMCSDPinMuxSetup)
../../../../../..//binary/armv7a/gcc/am335x/beaglebone/platform/Release/libplatform.a(hsi2c.o)
                              Release/demoMain.o (I2CPinMuxSetup)
../../../../../..//binary/armv7a/gcc/am335x/beaglebone/platform/Release/libplatform.a(rtc.o)
                              ../../../../../..//binary/armv7a/gcc/am335x/drivers/Release/libdrivers.a(rtc.o) (RtcVersionGet)
../../../../../..//binary/armv7a/gcc/am335x/beaglebone/platform/Release/libplatform.a(sysdelay.o)
                              ../../../../../..//binary/armv7a/gcc/utils/Release/libutils.a(delay.o) (SysDelayTimerSetup)
../../../../../..//binary/armv7a/gcc/am335x/beaglebone/platform/Release/libplatform.a(uartConsole.o)
                              ../../../../../..//binary/armv7a/gcc/utils/Release/libutils.a(uartStdio.o) (UARTConsoleInit)
../../../../../..//binary/armv7a/gcc/am335x/beaglebone/platform/Release/libplatform.a(uart.o)
                              ../../../../../..//binary/armv7a/gcc/am335x/beaglebone/platform/Release/libplatform.a(uartConsole.o) (UARTPinMuxSetup)
../../../../../..//binary/armv7a/gcc/mmcsdlib/Release/libmmcsd.a(hs_mmcsdlib.o)
                              Release/demoSdFs.o (HSMMCSDCardPresent)
../../../../../..//binary/armv7a/gcc/mmcsdlib/Release/libmmcsd.a(mmcsd_proto.o)
                              Release/fat_mmcsd.o (MMCSDBusWidthSet)
../../../../../..//binary/armv7a/gcc/am335x/system_config/Release/libsystem_config.a(cache.o)
                              Release/slpWkup_gcc.o (CacheDisable)
../../../../../..//binary/armv7a/gcc/am335x/system_config/Release/libsystem_config.a(clock.o)
                              Release/cm3wkup_proxy.o (enableModuleClock)
../../../../../..//binary/armv7a/gcc/am335x/system_config/Release/libsystem_config.a(cp15.o)
                              ../../../../../..//binary/armv7a/gcc/am335x/system_config/Release/libsystem_config.a(cache.o) (CP15ICacheDisable)
../../../../../..//binary/armv7a/gcc/am335x/system_config/Release/libsystem_config.a(device.o)
                              Release/demoMain.o (DeviceVersionGet)
../../../../../..//binary/armv7a/gcc/am335x/system_config/Release/libsystem_config.a(init.o)
                              (Entry)
../../../../../..//binary/armv7a/gcc/am335x/system_config/Release/libsystem_config.a(interrupt.o)
                              Release/cm3wkup_proxy.o (IntRegister)
../../../../../..//binary/armv7a/gcc/am335x/system_config/Release/libsystem_config.a(mmu.o)
                              Release/demoMain.o (MMUInit)
../../../../../..//binary/armv7a/gcc/am335x/system_config/Release/libsystem_config.a(startup.o)
                              ../../../../../..//binary/armv7a/gcc/am335x/system_config/Release/libsystem_config.a(init.o) (start_boot)
../../../../../..//binary/armv7a/gcc/am335x/system_config/Release/libsystem_config.a(cpu.o)
                              ../../../../../..//binary/armv7a/gcc/am335x/system_config/Release/libsystem_config.a(interrupt.o) (CPUIntStatus)
../../../../../..//binary/armv7a/gcc/am335x/system_config/Release/libsystem_config.a(exceptionhandler.o)
                              ../../../../../..//binary/armv7a/gcc/am335x/system_config/Release/libsystem_config.a(startup.o) (IRQHandler)
/home/abby/opt/gcc-arm-none-eabi-4_7-2012q4//arm-none-eabi/lib//libc.a(lib_a-memcmp.o)
                              Release/ff.o (memcmp)
/home/abby/opt/gcc-arm-none-eabi-4_7-2012q4//arm-none-eabi/lib//libc.a(lib_a-memcpy.o)
                              Release/cm3wkup_proxy.o (memcpy)
/home/abby/opt/gcc-arm-none-eabi-4_7-2012q4//arm-none-eabi/lib//libc.a(lib_a-memset.o)
                              Release/ff.o (memset)
/home/abby/opt/gcc-arm-none-eabi-4_7-2012q4//arm-none-eabi/lib//libc.a(lib_a-stpcpy.o)
                              Release/demoSdFs.o (stpcpy)
/home/abby/opt/gcc-arm-none-eabi-4_7-2012q4//arm-none-eabi/lib//libc.a(lib_a-strcat.o)
                              Release/demoSdFs.o (strcat)
/home/abby/opt/gcc-arm-none-eabi-4_7-2012q4//arm-none-eabi/lib//libc.a(lib_a-strchr.o)
                              Release/httpd_io.o (strchr)
/home/abby/opt/gcc-arm-none-eabi-4_7-2012q4//arm-none-eabi/lib//libc.a(lib_a-strcmp.o)
                              Release/demoEnet.o (strcmp)
/home/abby/opt/gcc-arm-none-eabi-4_7-2012q4//arm-none-eabi/lib//libc.a(lib_a-strcpy.o)
                              /home/abby/opt/gcc-arm-none-eabi-4_7-2012q4//arm-none-eabi/lib//libc.a(lib_a-strcat.o) (strcpy)
/home/abby/opt/gcc-arm-none-eabi-4_7-2012q4//arm-none-eabi/lib//libc.a(lib_a-strlen.o)
                              Release/demoSdFs.o (strlen)
/home/abby/opt/gcc-arm-none-eabi-4_7-2012q4//arm-none-eabi/lib//libc.a(lib_a-strncmp.o)
                              Release/httpd_io.o (strncmp)
/home/abby/opt/gcc-arm-none-eabi-4_7-2012q4//arm-none-eabi/lib//libc.a(lib_a-strncpy.o)
                              Release/demoSdFs.o (strncpy)
/home/abby/opt/gcc-arm-none-eabi-4_7-2012q4//lib/gcc/arm-none-eabi/4.7.3//libgcc.a(_udivsi3.o)
                              (__aeabi_uidiv)
/home/abby/opt/gcc-arm-none-eabi-4_7-2012q4//lib/gcc/arm-none-eabi/4.7.3//libgcc.a(_divsi3.o)
                              (__aeabi_idiv)
/home/abby/opt/gcc-arm-none-eabi-4_7-2012q4//lib/gcc/arm-none-eabi/4.7.3//libgcc.a(_dvmd_tls.o)
                              /home/abby/opt/gcc-arm-none-eabi-4_7-2012q4//lib/gcc/arm-none-eabi/4.7.3//libgcc.a(_udivsi3.o) (__aeabi_idiv0)

Allocating common symbols
Common symbol       size              file

current_iphdr_src   0x4               Release/lwiplib.o
netif_list          0x4               Release/lwiplib.o
dataToSlave         0x9               Release/demoI2c.o
cpdma_tx_bd         0x14              Release/lwiplib.o
sdCard              0x48              Release/demoSdRw.o
cpswportif          0x10              Release/lwiplib.o
mpuVdd1             0x4               Release/demoDvfs.o
rxch                0x10              Release/lwiplib.o
tcp_active_pcbs     0x4               Release/lwiplib.o
udp_pcbs            0x4               Release/lwiplib.o
current_netif       0x4               Release/lwiplib.o
tcp_ticks           0x4               Release/lwiplib.o
tcp_listen_pcbs     0x4               Release/lwiplib.o
memp_memory_RAW_PCB_base
                    0x70              Release/lwiplib.o
memp_memory_TCP_SEG_base
                    0x100             Release/lwiplib.o
current_iphdr_dest  0x4               Release/lwiplib.o
rCount              0xc               Release/demoI2c.o
memp_memory_PBUF_POOL_base
                    0x4ec00           Release/lwiplib.o
ctrlContext         0x6a0             Release/demoPwrMgmnt.o
boardName           0x8               ../../../../../..//binary/armv7a/gcc/utils/Release/libutils.a(board.o)
free_head           0x4               Release/lwiplib.o
tcp_tmp_pcb         0x4               Release/lwiplib.o
pmStdbySrcIOPin     0x4c              Release/demoPwrMgmnt.o
tcp_input_pcb       0x4               Release/lwiplib.o
numOfBytes          0xc               Release/demoI2c.o
mpuFreq             0x4               Release/demoDvfs.o
ctrlInfo            0x50              Release/demoSdRw.o
current_header      0x4               Release/lwiplib.o
edmaContext         0x4140            Release/demoPwrMgmnt.o
dhcp_rx_options_given
                    0xa               Release/lwiplib.o
memp_memory_PBUF_base
                    0x600             Release/lwiplib.o
tcp_bound_pcbs      0x4               Release/lwiplib.o
memp_memory_TCP_PCB_LISTEN_base
                    0x100             Release/lwiplib.o
boardData           0x4               ../../../../../..//binary/armv7a/gcc/utils/Release/libutils.a(board.o)
dmtimerContext      0x50              Release/demoPwrMgmnt.o
txch                0x10              Release/lwiplib.o
fs_memory           0xf0              Release/httpd_io.o
cpswinst            0x5c              Release/lwiplib.o
memp_memory_UDP_PCB_base
                    0x80              Release/lwiplib.o
i2cContext          0x10              Release/demoPwrMgmnt.o
tCount              0xc               Release/demoI2c.o
cpdma_rx_bd         0x14              Release/lwiplib.o
gpioContext         0xc               Release/demoPwrMgmnt.o
mdioContext         0x4               Release/demoEnet.o
tcp_tw_pcbs         0x4               Release/lwiplib.o
cpswContext         0xb080            Release/demoEnet.o
fnRAMVectors        0x200             ../../../../../..//binary/armv7a/gcc/am335x/system_config/Release/libsystem_config.a(interrupt.o)
lwip_stats          0x110             Release/lwiplib.o
ipAddr              0x4               Release/demoEnet.o
netif_default       0x4               Release/lwiplib.o
regionId            0x4               ../../../../../..//binary/armv7a/gcc/am335x/drivers/Release/libdrivers.a(edma.o)
dhcp_rx_options_val
                    0x28              Release/lwiplib.o
memp_memory_TCP_PCB_base
                    0x1480            Release/lwiplib.o
dataFromSlave       0x6               Release/demoI2c.o
boardVersion        0x5               ../../../../../..//binary/armv7a/gcc/utils/Release/libutils.a(board.o)
ram_heap            0x2001c           Release/lwiplib.o
mmcsdContext        0x18              Release/demoPwrMgmnt.o
fat_devices         0x18              Release/fat_mmcsd.o
mpuOpp              0x4               Release/demoDvfs.o
cpswport            0x10              Release/lwiplib.o

Discarded input sections

 .text          0x00000000        0x0 Release/am335x_clock_data.o
 .data          0x00000000        0x0 Release/am335x_clock_data.o
 .bss           0x00000000        0x0 Release/am335x_clock_data.o
 .data.clkdiv32KIclkCLock
                0x00000000       0x58 Release/am335x_clock_data.o
 .data.tclkinClock
                0x00000000       0x58 Release/am335x_clock_data.o
 .data.dpllDisp
                0x00000000       0x80 Release/am335x_clock_data.o
 .data.dpllDispM2ClkDivider
                0x00000000       0x3c Release/am335x_clock_data.o
 .data.timer3ClkMux
                0x00000000       0x18 Release/am335x_clock_data.o
 .data.timer7ClkMux
                0x00000000       0x18 Release/am335x_clock_data.o
 .data.clockDomainList
                0x00000000       0x30 Release/am335x_clock_data.o
 .data.clk24MhzGclkClock
                0x00000000       0x58 Release/am335x_clock_data.o
 .data.lcdClkMux
                0x00000000       0x18 Release/am335x_clock_data.o
 .data.dpllDispClock
                0x00000000       0x58 Release/am335x_clock_data.o
 .data.emifFwClock
                0x00000000       0x58 Release/am335x_clock_data.o
 .data.clkout1Clock
                0x00000000       0x58 Release/am335x_clock_data.o
 .data.clk24MhzClkDomain
                0x00000000      0x154 Release/am335x_clock_data.o
 .data.timer2ClkMux
                0x00000000       0x18 Release/am335x_clock_data.o
 .data.timer4ClkMux
                0x00000000       0x18 Release/am335x_clock_data.o
 .data.wdt1ClkMux
                0x00000000       0x18 Release/am335x_clock_data.o
 .data.clkRC32KClock
                0x00000000       0x58 Release/am335x_clock_data.o
 .data.clkDispPllM2Clock
                0x00000000       0x58 Release/am335x_clock_data.o
 .data.cpswCptsRftClkMux
                0x00000000       0x18 Release/am335x_clock_data.o
 .text          0x00000000        0x0 Release/cm3wkup_proxy.o
 .data          0x00000000        0x0 Release/cm3wkup_proxy.o
 .bss           0x00000000        0x0 Release/cm3wkup_proxy.o
 .text.readCM3Trace
                0x00000000       0x10 Release/cm3wkup_proxy.o
 .text          0x00000000        0x0 Release/demoDvfs.o
 .data          0x00000000        0x0 Release/demoDvfs.o
 .bss           0x00000000        0x0 Release/demoDvfs.o
 .text          0x00000000        0x0 Release/demoEnet.o
 .data          0x00000000        0x0 Release/demoEnet.o
 .bss           0x00000000        0x0 Release/demoEnet.o
 .text.EnetErrStatsticsGet
                0x00000000       0x54 Release/demoEnet.o
 .text          0x00000000        0x0 Release/demoGpio.o
 .data          0x00000000        0x0 Release/demoGpio.o
 .bss           0x00000000        0x0 Release/demoGpio.o
 .text          0x00000000        0x0 Release/demoI2c.o
 .data          0x00000000        0x0 Release/demoI2c.o
 .bss           0x00000000        0x0 Release/demoI2c.o
 .text          0x00000000        0x0 Release/demoLedIf.o
 .data          0x00000000        0x0 Release/demoLedIf.o
 .bss           0x00000000        0x0 Release/demoLedIf.o
 .text          0x00000000        0x0 Release/demoMain.o
 .data          0x00000000        0x0 Release/demoMain.o
 .bss           0x00000000        0x0 Release/demoMain.o
 .text          0x00000000        0x0 Release/demoPwrMgmnt.o
 .data          0x00000000        0x0 Release/demoPwrMgmnt.o
 .bss           0x00000000        0x0 Release/demoPwrMgmnt.o
 .text          0x00000000        0x0 Release/demoRtc.o
 .data          0x00000000        0x0 Release/demoRtc.o
 .bss           0x00000000        0x0 Release/demoRtc.o
 .text          0x00000000        0x0 Release/demoSdFs.o
 .data          0x00000000        0x0 Release/demoSdFs.o
 .bss           0x00000000        0x0 Release/demoSdFs.o
 .text.StringFromFresult
                0x00000000       0x44 Release/demoSdFs.o
 .text          0x00000000        0x0 Release/demoSdRw.o
 .data          0x00000000        0x0 Release/demoSdRw.o
 .bss           0x00000000        0x0 Release/demoSdRw.o
 .bss.data      0x00000000      0x200 Release/demoSdRw.o
 .data.sdBlkSize
                0x00000000        0x4 Release/demoSdRw.o
 .text          0x00000000        0x0 Release/demoTimer.o
 .data          0x00000000        0x0 Release/demoTimer.o
 .bss           0x00000000        0x0 Release/demoTimer.o
 .text          0x00000000        0x0 Release/demoUart.o
 .data          0x00000000        0x0 Release/demoUart.o
 .bss           0x00000000        0x0 Release/demoUart.o
 .text          0x00000000        0x0 Release/fat_mmcsd.o
 .data          0x00000000        0x0 Release/fat_mmcsd.o
 .bss           0x00000000        0x0 Release/fat_mmcsd.o
 .text          0x00000000        0x0 Release/ff.o
 .data          0x00000000        0x0 Release/ff.o
 .bss           0x00000000        0x0 Release/ff.o
 .text.f_write  0x00000000      0x2f4 Release/ff.o
 .text.f_lseek  0x00000000      0x268 Release/ff.o
 .text.f_stat   0x00000000       0x90 Release/ff.o
 .text.f_unlink
                0x00000000      0x1cc Release/ff.o
 .text.f_mkdir  0x00000000      0x320 Release/ff.o
 .text.f_chmod  0x00000000       0xa8 Release/ff.o
 .text.f_rename
                0x00000000      0x198 Release/ff.o
 .text          0x00000000        0x0 Release/httpd_io.o
 .data          0x00000000        0x0 Release/httpd_io.o
 .bss           0x00000000        0x0 Release/httpd_io.o
 .text.fs_close
                0x00000000       0x38 Release/httpd_io.o
 .text.fs_read  0x00000000       0x60 Release/httpd_io.o
 .text.fs_bytes_left
                0x00000000       0x10 Release/httpd_io.o
 .text          0x00000000        0x0 Release/lwiplib.o
 .data          0x00000000        0x0 Release/lwiplib.o
 .bss           0x00000000        0x0 Release/lwiplib.o
 .text.lwip_htons
                0x00000000       0x10 Release/lwiplib.o
 .text.lwip_ntohs
                0x00000000       0x10 Release/lwiplib.o
 .text.lwip_htonl
                0x00000000        0x8 Release/lwiplib.o
 .text.lwip_ntohl
                0x00000000        0x8 Release/lwiplib.o
 .text.tcp_timer_needed
                0x00000000        0x4 Release/lwiplib.o
 .text.dhcp_set_struct
                0x00000000       0x2c Release/lwiplib.o
 .text.mem_calloc
                0x00000000       0x3c Release/lwiplib.o
 .text.netif_init
                0x00000000        0x4 Release/lwiplib.o
 .text.netif_remove
                0x00000000       0x8c Release/lwiplib.o
 .text.netif_find
                0x00000000       0x7c Release/lwiplib.o
 .text.netif_set_gw
                0x00000000       0x10 Release/lwiplib.o
 .text.netif_set_netmask
                0x00000000       0x10 Release/lwiplib.o
 .text.netif_set_default
                0x00000000       0x10 Release/lwiplib.o
 .text.netif_set_down
                0x00000000       0x14 Release/lwiplib.o
 .text.netif_set_link_down
                0x00000000       0x1c Release/lwiplib.o
 .text.pbuf_clen
                0x00000000       0x2c Release/lwiplib.o
 .text.pbuf_take
                0x00000000       0x8c Release/lwiplib.o
 .text.pbuf_get_at
                0x00000000       0x40 Release/lwiplib.o
 .text.pbuf_memcmp
                0x00000000       0xe0 Release/lwiplib.o
 .text.pbuf_memfind
                0x00000000       0x80 Release/lwiplib.o
 .text.pbuf_strstr
                0x00000000       0x7c Release/lwiplib.o
 .text.raw_bind
                0x00000000       0x14 Release/lwiplib.o
 .text.raw_connect
                0x00000000       0x14 Release/lwiplib.o
 .text.raw_recv
                0x00000000        0xc Release/lwiplib.o
 .text.stats_init
                0x00000000        0x4 Release/lwiplib.o
 .text.tcp_next_iss
                0x00000000       0x24 Release/lwiplib.o
 .text.tcp_debug_state_str
                0x00000000       0x10 Release/lwiplib.o
 .text.udp_disconnect
                0x00000000       0x1c Release/lwiplib.o
 .text.udp_recv
                0x00000000        0xc Release/lwiplib.o
 .text.inet_chksum_pseudo_partial
                0x00000000      0x10c Release/lwiplib.o
 .text.ip4_addr_netmask_valid
                0x00000000       0x50 Release/lwiplib.o
 .text.ipaddr_aton
                0x00000000      0x1ec Release/lwiplib.o
 .text.ipaddr_addr
                0x00000000       0x2c Release/lwiplib.o
 .text.ipaddr_ntoa_r
                0x00000000      0x114 Release/lwiplib.o
 .text.ipaddr_ntoa
                0x00000000       0x20 Release/lwiplib.o
 .text.perf_init
                0x00000000        0x4 Release/lwiplib.o
 .text.raw_remove
                0x00000000       0x74 Release/lwiplib.o
 .text.raw_new  0x00000000       0x5c Release/lwiplib.o
 .text.dhcp_cleanup
                0x00000000       0x2c Release/lwiplib.o
 .text.etharp_find_addr
                0x00000000       0x6c Release/lwiplib.o
 .text.pbuf_dechain
                0x00000000       0x5c Release/lwiplib.o
 .text.udp_sendto
                0x00000000       0x78 Release/lwiplib.o
 .text.udp_send
                0x00000000       0x1c Release/lwiplib.o
 .text.LocatorReceive
                0x00000000      0x110 Release/lwiplib.o
 .text.tcp_zero_window_probe
                0x00000000      0x148 Release/lwiplib.o
 .text.tcp_keepalive
                0x00000000       0xb4 Release/lwiplib.o
 .text.tcp_rexmit_rto
                0x00000000       0x60 Release/lwiplib.o
 .text.tcp_connect
                0x00000000      0x1ec Release/lwiplib.o
 .text.tcp_slowtmr
                0x00000000      0x464 Release/lwiplib.o
 .text.tcp_shutdown
                0x00000000       0xa8 Release/lwiplib.o
 .text.tcp_fasttmr
                0x00000000       0xc0 Release/lwiplib.o
 .text.tcp_tmr  0x00000000       0x40 Release/lwiplib.o
 .text.raw_sendto
                0x00000000      0x148 Release/lwiplib.o
 .text.raw_send
                0x00000000       0x18 Release/lwiplib.o
 .text.pbuf_coalesce
                0x00000000       0x60 Release/lwiplib.o
 .text.dhcp_release
                0x00000000      0x14c Release/lwiplib.o
 .text.dhcp_renew
                0x00000000      0x154 Release/lwiplib.o
 .text.dhcp_reboot
                0x00000000      0x194 Release/lwiplib.o
 .text.dhcp_network_changed
                0x00000000       0x8c Release/lwiplib.o
 .text.dhcp_inform
                0x00000000      0x178 Release/lwiplib.o
 .text.dhcp_rebind
                0x00000000      0x158 Release/lwiplib.o
 .text.dhcp_fine_tmr
                0x00000000      0x124 Release/lwiplib.o
 .text.dhcp_coarse_tmr
                0x00000000       0xc0 Release/lwiplib.o
 .text.netif_set_link_up
                0x00000000       0x64 Release/lwiplib.o
 .text.cpswif_netif_status
                0x00000000        0xc Release/lwiplib.o
 .text.cpsw_switch_configuration
                0x00000000      0x6f0 Release/lwiplib.o
 .text.LocatorConfig
                0x00000000      0x110 Release/lwiplib.o
 .rodata.tcp_backoff
                0x00000000       0x10 Release/lwiplib.o
 .rodata.tcp_persist_backoff
                0x00000000        0x8 Release/lwiplib.o
 .rodata.tcp_state_str
                0x00000000       0x2c Release/lwiplib.o
 .bss.str.7613  0x00000000       0x10 Release/lwiplib.o
 .bss.locatorData
                0x00000000       0x54 Release/lwiplib.o
 .bss.tcp_timer
                0x00000000        0x1 Release/lwiplib.o
 .text          0x00000000        0x0 Release/pmic.o
 .data          0x00000000        0x0 Release/pmic.o
 .bss           0x00000000        0x0 Release/pmic.o
 .text          0x00000000        0x0 Release/slpWkup_gcc.o
 .data          0x00000000        0x0 Release/slpWkup_gcc.o
 .bss           0x00000000        0x0 Release/slpWkup_gcc.o
 .text          0x00000000        0x0 ../../../../../..//binary/armv7a/gcc/am335x/drivers/Release/libdrivers.a(cpsw.o)
 .data          0x00000000        0x0 ../../../../../..//binary/armv7a/gcc/am335x/drivers/Release/libdrivers.a(cpsw.o)
 .bss           0x00000000        0x0 ../../../../../..//binary/armv7a/gcc/am335x/drivers/Release/libdrivers.a(cpsw.o)
 .text.CPSWSlGigModeForceEnable
                0x00000000       0x10 ../../../../../..//binary/armv7a/gcc/am335x/drivers/Release/libdrivers.a(cpsw.o)
 .text.CPSWSlControlExtEnable
                0x00000000       0x10 ../../../../../..//binary/armv7a/gcc/am335x/drivers/Release/libdrivers.a(cpsw.o)
 .text.CPSWSlGigModeForceDisable
                0x00000000       0x10 ../../../../../..//binary/armv7a/gcc/am335x/drivers/Release/libdrivers.a(cpsw.o)
 .text.CPSWSlMACStatusGet
                0x00000000        0xc ../../../../../..//binary/armv7a/gcc/am335x/drivers/Release/libdrivers.a(cpsw.o)
 .text.CPSWSlRxMaxLenSet
                0x00000000        0x8 ../../../../../..//binary/armv7a/gcc/am335x/drivers/Release/libdrivers.a(cpsw.o)
 .text.CPSWSlGMIIEnable
                0x00000000       0x10 ../../../../../..//binary/armv7a/gcc/am335x/drivers/Release/libdrivers.a(cpsw.o)
 .text.CPSWWrCoreIntDisable
                0x00000000       0x1c ../../../../../..//binary/armv7a/gcc/am335x/drivers/Release/libdrivers.a(cpsw.o)
 .text.CPSWWrCoreIntStatusGet
                0x00000000       0x18 ../../../../../..//binary/armv7a/gcc/am335x/drivers/Release/libdrivers.a(cpsw.o)
 .text.CPSWWrRGMIIStatusGet
                0x00000000        0xc ../../../../../..//binary/armv7a/gcc/am335x/drivers/Release/libdrivers.a(cpsw.o)
 .text.CPSWALEAgeOut
                0x00000000       0x20 ../../../../../..//binary/armv7a/gcc/am335x/drivers/Release/libdrivers.a(cpsw.o)
 .text.CPSWALEBroadcastRateLimitSet
                0x00000000       0x20 ../../../../../..//binary/armv7a/gcc/am335x/drivers/Release/libdrivers.a(cpsw.o)
 .text.CPSWALEMulticastRateLimitSet
                0x00000000       0x20 ../../../../../..//binary/armv7a/gcc/am335x/drivers/Release/libdrivers.a(cpsw.o)
 .text.CPSWALEVIDIngressCheckSet
                0x00000000       0x14 ../../../../../..//binary/armv7a/gcc/am335x/drivers/Release/libdrivers.a(cpsw.o)
 .text.CPSWALEVLANAwareClear
                0x00000000       0x10 ../../../../../..//binary/armv7a/gcc/am335x/drivers/Release/libdrivers.a(cpsw.o)
 .text.CPSWALERateLimitTXMode
                0x00000000       0x10 ../../../../../..//binary/armv7a/gcc/am335x/drivers/Release/libdrivers.a(cpsw.o)
 .text.CPSWALERateLimitRXMode
                0x00000000       0x10 ../../../../../..//binary/armv7a/gcc/am335x/drivers/Release/libdrivers.a(cpsw.o)
 .text.CPSWALERateLimitEnable
                0x00000000       0x10 ../../../../../..//binary/armv7a/gcc/am335x/drivers/Release/libdrivers.a(cpsw.o)
 .text.CPSWALERateLimitDisable
                0x00000000       0x10 ../../../../../..//binary/armv7a/gcc/am335x/drivers/Release/libdrivers.a(cpsw.o)
 .text.CPSWALEAUTHModeSet
                0x00000000       0x10 ../../../../../..//binary/armv7a/gcc/am335x/drivers/Release/libdrivers.a(cpsw.o)
 .text.CPSWALEAUTHModeClear
                0x00000000       0x10 ../../../../../..//binary/armv7a/gcc/am335x/drivers/Release/libdrivers.a(cpsw.o)
 .text.CPSWALEPrescaleGet
                0x00000000       0x10 ../../../../../..//binary/armv7a/gcc/am335x/drivers/Release/libdrivers.a(cpsw.o)
 .text.CPSWALEPrescaleSet
                0x00000000       0x18 ../../../../../..//binary/armv7a/gcc/am335x/drivers/Release/libdrivers.a(cpsw.o)
 .text.CPSWALEUnknownUntaggedEgressSet
                0x00000000       0x1c ../../../../../..//binary/armv7a/gcc/am335x/drivers/Release/libdrivers.a(cpsw.o)
 .text.CPSWALEUnknownRegFloodMaskSet
                0x00000000       0x1c ../../../../../..//binary/armv7a/gcc/am335x/drivers/Release/libdrivers.a(cpsw.o)
 .text.CPSWALEUnknownUnRegFloodMaskSet
                0x00000000       0x1c ../../../../../..//binary/armv7a/gcc/am335x/drivers/Release/libdrivers.a(cpsw.o)
 .text.CPSWALEUnknownMemberListSet
                0x00000000       0x1c ../../../../../..//binary/armv7a/gcc/am335x/drivers/Release/libdrivers.a(cpsw.o)
 .text.CPSWALEBypassEnable
                0x00000000       0x10 ../../../../../..//binary/armv7a/gcc/am335x/drivers/Release/libdrivers.a(cpsw.o)
 .text.CPSWALEBypassDisable
                0x00000000       0x10 ../../../../../..//binary/armv7a/gcc/am335x/drivers/Release/libdrivers.a(cpsw.o)
 .text.CPSWRxFlowControlEnable
                0x00000000       0x14 ../../../../../..//binary/armv7a/gcc/am335x/drivers/Release/libdrivers.a(cpsw.o)
 .text.CPSWRxFlowControlDisable
                0x00000000       0x14 ../../../../../..//binary/armv7a/gcc/am335x/drivers/Release/libdrivers.a(cpsw.o)
 .text.CPSWSoftwareIdleEnable
                0x00000000       0x10 ../../../../../..//binary/armv7a/gcc/am335x/drivers/Release/libdrivers.a(cpsw.o)
 .text.CPSWSoftwareIdleDisable
                0x00000000       0x10 ../../../../../..//binary/armv7a/gcc/am335x/drivers/Release/libdrivers.a(cpsw.o)
 .text.CPSWVLANAwareEnable
                0x00000000       0x10 ../../../../../..//binary/armv7a/gcc/am335x/drivers/Release/libdrivers.a(cpsw.o)
 .text.CPSWVLANAwareDisable
                0x00000000       0x10 ../../../../../..//binary/armv7a/gcc/am335x/drivers/Release/libdrivers.a(cpsw.o)
 .text.CPSWStatisticsGet
                0x00000000        0x8 ../../../../../..//binary/armv7a/gcc/am335x/drivers/Release/libdrivers.a(cpsw.o)
 .text.CPSWCPDMATxIntDisable
                0x00000000       0x14 ../../../../../..//binary/armv7a/gcc/am335x/drivers/Release/libdrivers.a(cpsw.o)
 .text.CPSWCPDMARxIntDisable
                0x00000000       0x14 ../../../../../..//binary/armv7a/gcc/am335x/drivers/Release/libdrivers.a(cpsw.o)
 .text.CPSWCPDMANumFreeBufSet
                0x00000000        0xc ../../../../../..//binary/armv7a/gcc/am335x/drivers/Release/libdrivers.a(cpsw.o)
 .text.CPSWCPDMAStatusGet
                0x00000000       0x14 ../../../../../..//binary/armv7a/gcc/am335x/drivers/Release/libdrivers.a(cpsw.o)
 .text.CPSWCPDMAConfig
                0x00000000        0x8 ../../../../../..//binary/armv7a/gcc/am335x/drivers/Release/libdrivers.a(cpsw.o)
 .text.CPSWCPDMARxBufOffsetSet
                0x00000000        0x8 ../../../../../..//binary/armv7a/gcc/am335x/drivers/Release/libdrivers.a(cpsw.o)
 .text.CPSWCPDMATxIntStatRawGet
                0x00000000        0xc ../../../../../..//binary/armv7a/gcc/am335x/drivers/Release/libdrivers.a(cpsw.o)
 .text.CPSWCPDMATxIntStatMaskedGet
                0x00000000        0xc ../../../../../..//binary/armv7a/gcc/am335x/drivers/Release/libdrivers.a(cpsw.o)
 .text.CPSWCPDMARxIntStatRawGet
                0x00000000        0xc ../../../../../..//binary/armv7a/gcc/am335x/drivers/Release/libdrivers.a(cpsw.o)
 .text.CPSWCPDMARxIntStatMaskedGet
                0x00000000        0xc ../../../../../..//binary/armv7a/gcc/am335x/drivers/Release/libdrivers.a(cpsw.o)
 .text          0x00000000        0x0 ../../../../../..//binary/armv7a/gcc/am335x/drivers/Release/libdrivers.a(dmtimer.o)
 .data          0x00000000        0x0 ../../../../../..//binary/armv7a/gcc/am335x/drivers/Release/libdrivers.a(dmtimer.o)
 .bss           0x00000000        0x0 ../../../../../..//binary/armv7a/gcc/am335x/drivers/Release/libdrivers.a(dmtimer.o)
 .text.DMTimerPreScalerClkEnable
                0x00000000       0x58 ../../../../../..//binary/armv7a/gcc/am335x/drivers/Release/libdrivers.a(dmtimer.o)
 .text.DMTimerPreScalerClkDisable
                0x00000000       0x2c ../../../../../..//binary/armv7a/gcc/am335x/drivers/Release/libdrivers.a(dmtimer.o)
 .text.DMTimerCounterGet
                0x00000000       0x24 ../../../../../..//binary/armv7a/gcc/am335x/drivers/Release/libdrivers.a(dmtimer.o)
 .text.DMTimerReloadGet
                0x00000000        0x8 ../../../../../..//binary/armv7a/gcc/am335x/drivers/Release/libdrivers.a(dmtimer.o)
 .text.DMTimerGPOConfigure
                0x00000000       0x58 ../../../../../..//binary/armv7a/gcc/am335x/drivers/Release/libdrivers.a(dmtimer.o)
 .text.DMTimerCompareSet
                0x00000000       0x24 ../../../../../..//binary/armv7a/gcc/am335x/drivers/Release/libdrivers.a(dmtimer.o)
 .text.DMTimerCompareGet
                0x00000000        0x8 ../../../../../..//binary/armv7a/gcc/am335x/drivers/Release/libdrivers.a(dmtimer.o)
 .text.DMTimerIntRawStatusSet
                0x00000000        0xc ../../../../../..//binary/armv7a/gcc/am335x/drivers/Release/libdrivers.a(dmtimer.o)
 .text.DMTimerIntRawStatusGet
                0x00000000        0x8 ../../../../../..//binary/armv7a/gcc/am335x/drivers/Release/libdrivers.a(dmtimer.o)
 .text.DMTimerIntStatusGet
                0x00000000        0x8 ../../../../../..//binary/armv7a/gcc/am335x/drivers/Release/libdrivers.a(dmtimer.o)
 .text.DMTimerTriggerSet
                0x00000000       0x28 ../../../../../..//binary/armv7a/gcc/am335x/drivers/Release/libdrivers.a(dmtimer.o)
 .text.DMTimerIntEnableGet
                0x00000000        0x8 ../../../../../..//binary/armv7a/gcc/am335x/drivers/Release/libdrivers.a(dmtimer.o)
 .text.DMTimerResetConfigure
                0x00000000       0x20 ../../../../../..//binary/armv7a/gcc/am335x/drivers/Release/libdrivers.a(dmtimer.o)
 .text.DMTimerReset
                0x00000000       0x20 ../../../../../..//binary/armv7a/gcc/am335x/drivers/Release/libdrivers.a(dmtimer.o)
 .text.DMTimerPostedModeConfig
                0x00000000       0x20 ../../../../../..//binary/armv7a/gcc/am335x/drivers/Release/libdrivers.a(dmtimer.o)
 .text.DMTimerWritePostedStatusGet
                0x00000000        0x8 ../../../../../..//binary/armv7a/gcc/am335x/drivers/Release/libdrivers.a(dmtimer.o)
 .text          0x00000000        0x0 ../../../../../..//binary/armv7a/gcc/am335x/drivers/Release/libdrivers.a(edma.o)
 .data          0x00000000        0x0 ../../../../../..//binary/armv7a/gcc/am335x/drivers/Release/libdrivers.a(edma.o)
 .bss           0x00000000        0x0 ../../../../../..//binary/armv7a/gcc/am335x/drivers/Release/libdrivers.a(edma.o)
 .text.EDMA3PeripheralIdGet
                0x00000000        0x8 ../../../../../..//binary/armv7a/gcc/am335x/drivers/Release/libdrivers.a(edma.o)
 .text.EDMA3DisableChInShadowReg
                0x00000000       0x84 ../../../../../..//binary/armv7a/gcc/am335x/drivers/Release/libdrivers.a(edma.o)
 .text.EDMA3ChannelToParamMap
                0x00000000       0x10 ../../../../../..//binary/armv7a/gcc/am335x/drivers/Release/libdrivers.a(edma.o)
 .text.EDMA3UnmapChToEvtQ
                0x00000000       0x54 ../../../../../..//binary/armv7a/gcc/am335x/drivers/Release/libdrivers.a(edma.o)
 .text.EDMA3MapQdmaChToPaRAM
                0x00000000       0x40 ../../../../../..//binary/armv7a/gcc/am335x/drivers/Release/libdrivers.a(edma.o)
 .text.EDMA3SetQdmaTrigWord
                0x00000000       0x18 ../../../../../..//binary/armv7a/gcc/am335x/drivers/Release/libdrivers.a(edma.o)
 .text.EDMA3QdmaClrMissEvt
                0x00000000       0x34 ../../../../../..//binary/armv7a/gcc/am335x/drivers/Release/libdrivers.a(edma.o)
 .text.EDMA3ClrCCErr
                0x00000000        0x8 ../../../../../..//binary/armv7a/gcc/am335x/drivers/Release/libdrivers.a(edma.o)
 .text.EDMA3EnableQdmaEvt
                0x00000000       0x28 ../../../../../..//binary/armv7a/gcc/am335x/drivers/Release/libdrivers.a(edma.o)
 .text.EDMA3DisableQdmaEvt
                0x00000000       0x28 ../../../../../..//binary/armv7a/gcc/am335x/drivers/Release/libdrivers.a(edma.o)
 .text.EDMA3GetCCErrStatus
                0x00000000        0x8 ../../../../../..//binary/armv7a/gcc/am335x/drivers/Release/libdrivers.a(edma.o)
 .text.EDMA3GetIntrStatus
                0x00000000       0x20 ../../../../../..//binary/armv7a/gcc/am335x/drivers/Release/libdrivers.a(edma.o)
 .text.EDMA3IntrStatusHighGet
                0x00000000       0x20 ../../../../../..//binary/armv7a/gcc/am335x/drivers/Release/libdrivers.a(edma.o)
 .text.EDMA3GetErrIntrStatus
                0x00000000        0x8 ../../../../../..//binary/armv7a/gcc/am335x/drivers/Release/libdrivers.a(edma.o)
 .text.EDMA3ErrIntrHighStatusGet
                0x00000000        0x8 ../../../../../..//binary/armv7a/gcc/am335x/drivers/Release/libdrivers.a(edma.o)
 .text.EDMA3QdmaGetErrIntrStatus
                0x00000000        0x8 ../../../../../..//binary/armv7a/gcc/am335x/drivers/Release/libdrivers.a(edma.o)
 .text.EDMA3DisableEvtIntr
                0x00000000       0x60 ../../../../../..//binary/armv7a/gcc/am335x/drivers/Release/libdrivers.a(edma.o)
 .text.EDMA3ClrIntr
                0x00000000       0x58 ../../../../../..//binary/armv7a/gcc/am335x/drivers/Release/libdrivers.a(edma.o)
 .text.EDMA3GetPaRAM
                0x00000000       0x28 ../../../../../..//binary/armv7a/gcc/am335x/drivers/Release/libdrivers.a(edma.o)
 .text.EDMA3QdmaGetPaRAM
                0x00000000       0x28 ../../../../../..//binary/armv7a/gcc/am335x/drivers/Release/libdrivers.a(edma.o)
 .text.EDMA3QdmaSetPaRAM
                0x00000000       0x24 ../../../../../..//binary/armv7a/gcc/am335x/drivers/Release/libdrivers.a(edma.o)
 .text.EDMA3QdmaSetPaRAMEntry
                0x00000000       0x10 ../../../../../..//binary/armv7a/gcc/am335x/drivers/Release/libdrivers.a(edma.o)
 .text.EDMA3QdmaGetPaRAMEntry
                0x00000000       0x10 ../../../../../..//binary/armv7a/gcc/am335x/drivers/Release/libdrivers.a(edma.o)
 .text.EDMA3FreeChannel
                0x00000000       0xac ../../../../../..//binary/armv7a/gcc/am335x/drivers/Release/libdrivers.a(edma.o)
 .text.EDMA3ClearErrorBits
                0x00000000       0xf0 ../../../../../..//binary/armv7a/gcc/am335x/drivers/Release/libdrivers.a(edma.o)
 .text.EDMA3CCErrorEvaluate
                0x00000000        0xc ../../../../../..//binary/armv7a/gcc/am335x/drivers/Release/libdrivers.a(edma.o)
 .text.EDMA3Deinit
                0x00000000       0xa0 ../../../../../..//binary/armv7a/gcc/am335x/drivers/Release/libdrivers.a(edma.o)
 .text          0x00000000        0x0 ../../../../../..//binary/armv7a/gcc/am335x/drivers/Release/libdrivers.a(gpio_v2.o)
 .data          0x00000000        0x0 ../../../../../..//binary/armv7a/gcc/am335x/drivers/Release/libdrivers.a(gpio_v2.o)
 .bss           0x00000000        0x0 ../../../../../..//binary/armv7a/gcc/am335x/drivers/Release/libdrivers.a(gpio_v2.o)
 .text.GPIOModuleDisable
                0x00000000       0x10 ../../../../../..//binary/armv7a/gcc/am335x/drivers/Release/libdrivers.a(gpio_v2.o)
 .text.GPIODirModeGet
                0x00000000       0x18 ../../../../../..//binary/armv7a/gcc/am335x/drivers/Release/libdrivers.a(gpio_v2.o)
 .text.GPIOPinRead
                0x00000000       0x10 ../../../../../..//binary/armv7a/gcc/am335x/drivers/Release/libdrivers.a(gpio_v2.o)
 .text.GPIOMultiplePinsWrite
                0x00000000        0xc ../../../../../..//binary/armv7a/gcc/am335x/drivers/Release/libdrivers.a(gpio_v2.o)
 .text.GPIOMultiplePinsRead
                0x00000000        0xc ../../../../../..//binary/armv7a/gcc/am335x/drivers/Release/libdrivers.a(gpio_v2.o)
 .text.GPIOIntTypeGet
                0x00000000       0x50 ../../../../../..//binary/armv7a/gcc/am335x/drivers/Release/libdrivers.a(gpio_v2.o)
 .text.GPIOPinIntStatus
                0x00000000       0x18 ../../../../../..//binary/armv7a/gcc/am335x/drivers/Release/libdrivers.a(gpio_v2.o)
 .text.GPIORawIntStatus
                0x00000000       0x14 ../../../../../..//binary/armv7a/gcc/am335x/drivers/Release/libdrivers.a(gpio_v2.o)
 .text.GPIOTriggerPinInt
                0x00000000       0x18 ../../../../../..//binary/armv7a/gcc/am335x/drivers/Release/libdrivers.a(gpio_v2.o)
 .text.GPIOAutoIdleModeControl
                0x00000000       0x20 ../../../../../..//binary/armv7a/gcc/am335x/drivers/Release/libdrivers.a(gpio_v2.o)
 .text.GPIOIdleModeConfigure
                0x00000000       0x20 ../../../../../..//binary/armv7a/gcc/am335x/drivers/Release/libdrivers.a(gpio_v2.o)
 .text.GPIOGatingRatioConfigure
                0x00000000       0x20 ../../../../../..//binary/armv7a/gcc/am335x/drivers/Release/libdrivers.a(gpio_v2.o)
 .text.GPIORevisionInfoGet
                0x00000000        0x8 ../../../../../..//binary/armv7a/gcc/am335x/drivers/Release/libdrivers.a(gpio_v2.o)
 .text          0x00000000        0x0 ../../../../../..//binary/armv7a/gcc/am335x/drivers/Release/libdrivers.a(gpmc.o)
 .data          0x00000000        0x0 ../../../../../..//binary/armv7a/gcc/am335x/drivers/Release/libdrivers.a(gpmc.o)
 .bss           0x00000000        0x0 ../../../../../..//binary/armv7a/gcc/am335x/drivers/Release/libdrivers.a(gpmc.o)
 .text.GPMCRevisionGet
                0x00000000        0xc ../../../../../..//binary/armv7a/gcc/am335x/drivers/Release/libdrivers.a(gpmc.o)
 .text.GPMCAutoIdleConfig
                0x00000000       0x18 ../../../../../..//binary/armv7a/gcc/am335x/drivers/Release/libdrivers.a(gpmc.o)
 .text.GPMCModuleSoftReset
                0x00000000        0xc ../../../../../..//binary/armv7a/gcc/am335x/drivers/Release/libdrivers.a(gpmc.o)
 .text.GPMCModuleResetStatusGet
                0x00000000        0xc ../../../../../..//binary/armv7a/gcc/am335x/drivers/Release/libdrivers.a(gpmc.o)
 .text.GPMCIntStatusGet
                0x00000000       0x54 ../../../../../..//binary/armv7a/gcc/am335x/drivers/Release/libdrivers.a(gpmc.o)
 .text.GPMCIntStatusClear
                0x00000000       0x5c ../../../../../..//binary/armv7a/gcc/am335x/drivers/Release/libdrivers.a(gpmc.o)
 .text.GPMCIntEnable
                0x00000000       0x5c ../../../../../..//binary/armv7a/gcc/am335x/drivers/Release/libdrivers.a(gpmc.o)
 .text.GPMCIntDisable
                0x00000000       0x5c ../../../../../..//binary/armv7a/gcc/am335x/drivers/Release/libdrivers.a(gpmc.o)
 .text.GPMCTimeOutStartValSet
                0x00000000       0x28 ../../../../../..//binary/armv7a/gcc/am335x/drivers/Release/libdrivers.a(gpmc.o)
 .text.GPMCTimeOutFeatureConfig
                0x00000000       0x2c ../../../../../..//binary/armv7a/gcc/am335x/drivers/Release/libdrivers.a(gpmc.o)
 .text.GPMCErrAddrGet
                0x00000000        0xc ../../../../../..//binary/armv7a/gcc/am335x/drivers/Release/libdrivers.a(gpmc.o)
 .text.GPMCErrValStatusGet
                0x00000000        0xc ../../../../../..//binary/armv7a/gcc/am335x/drivers/Release/libdrivers.a(gpmc.o)
 .text.GPMCErrSysCmdGet
                0x00000000        0xc ../../../../../..//binary/armv7a/gcc/am335x/drivers/Release/libdrivers.a(gpmc.o)
 .text.GPMCErrStatusGet
                0x00000000       0x40 ../../../../../..//binary/armv7a/gcc/am335x/drivers/Release/libdrivers.a(gpmc.o)
 .text.GPMCWaitPinPolaritySelect
                0x00000000       0x68 ../../../../../..//binary/armv7a/gcc/am335x/drivers/Release/libdrivers.a(gpmc.o)
 .text.GPMCWriteProtectPinLevelCtrl
                0x00000000       0x2c ../../../../../..//binary/armv7a/gcc/am335x/drivers/Release/libdrivers.a(gpmc.o)
 .text.GPMCLimitedAddrDevSupportConfig
                0x00000000       0x2c ../../../../../..//binary/armv7a/gcc/am335x/drivers/Release/libdrivers.a(gpmc.o)
 .text.GPMCNANDForcePostedWriteFeatureConfig
                0x00000000       0x2c ../../../../../..//binary/armv7a/gcc/am335x/drivers/Release/libdrivers.a(gpmc.o)
 .text.GPMCWaitPinStatusGet
                0x00000000       0x28 ../../../../../..//binary/armv7a/gcc/am335x/drivers/Release/libdrivers.a(gpmc.o)
 .text.GPMCEmptyWriteBuffStatusGet
                0x00000000        0xc ../../../../../..//binary/armv7a/gcc/am335x/drivers/Release/libdrivers.a(gpmc.o)
 .text.GPMCFclkDividerSelect
                0x00000000       0x2c ../../../../../..//binary/armv7a/gcc/am335x/drivers/Release/libdrivers.a(gpmc.o)
 .text.GPMCTimeParaGranularitySelect
                0x00000000       0x30 ../../../../../..//binary/armv7a/gcc/am335x/drivers/Release/libdrivers.a(gpmc.o)
 .text.GPMCAddrDataMuxProtocolSelect
                0x00000000       0x30 ../../../../../..//binary/armv7a/gcc/am335x/drivers/Release/libdrivers.a(gpmc.o)
 .text.GPMCDevTypeSelect
                0x00000000       0x30 ../../../../../..//binary/armv7a/gcc/am335x/drivers/Release/libdrivers.a(gpmc.o)
 .text.GPMCDevSizeSelect
                0x00000000       0x30 ../../../../../..//binary/armv7a/gcc/am335x/drivers/Release/libdrivers.a(gpmc.o)
 .text.GPMCWaitPinSelect
                0x00000000       0x30 ../../../../../..//binary/armv7a/gcc/am335x/drivers/Release/libdrivers.a(gpmc.o)
 .text.GPMCWaitMonitoringTimeSelect
                0x00000000       0x30 ../../../../../..//binary/armv7a/gcc/am335x/drivers/Release/libdrivers.a(gpmc.o)
 .text.GPMCWaitPinMonitoringConfig
                0x00000000       0x70 ../../../../../..//binary/armv7a/gcc/am335x/drivers/Release/libdrivers.a(gpmc.o)
 .text.GPMCClkActivationTimeConfig
                0x00000000       0x30 ../../../../../..//binary/armv7a/gcc/am335x/drivers/Release/libdrivers.a(gpmc.o)
 .text.GPMCDevPageLenSet
                0x00000000       0x30 ../../../../../..//binary/armv7a/gcc/am335x/drivers/Release/libdrivers.a(gpmc.o)
 .text.GPMCWriteTypeSelect
                0x00000000       0x30 ../../../../../..//binary/armv7a/gcc/am335x/drivers/Release/libdrivers.a(gpmc.o)
 .text.GPMCReadTypeSelect
                0x00000000       0x30 ../../../../../..//binary/armv7a/gcc/am335x/drivers/Release/libdrivers.a(gpmc.o)
 .text.GPMCAccessTypeSelect
                0x00000000       0x70 ../../../../../..//binary/armv7a/gcc/am335x/drivers/Release/libdrivers.a(gpmc.o)
 .text.GPMCSyncWrapBurstConfig
                0x00000000       0x28 ../../../../../..//binary/armv7a/gcc/am335x/drivers/Release/libdrivers.a(gpmc.o)
 .text.GPMCCSTimingConfig
                0x00000000       0x14 ../../../../../..//binary/armv7a/gcc/am335x/drivers/Release/libdrivers.a(gpmc.o)
 .text.GPMCADVTimingConfig
                0x00000000       0x14 ../../../../../..//binary/armv7a/gcc/am335x/drivers/Release/libdrivers.a(gpmc.o)
 .text.GPMCWEAndOETimingConfig
                0x00000000       0x14 ../../../../../..//binary/armv7a/gcc/am335x/drivers/Release/libdrivers.a(gpmc.o)
 .text.GPMCRdAccessAndCycleTimeTimingConfig
                0x00000000       0x14 ../../../../../..//binary/armv7a/gcc/am335x/drivers/Release/libdrivers.a(gpmc.o)
 .text.GPMCWrAccessAndWrDataOnADMUXBusTimingConfig
                0x00000000       0x30 ../../../../../..//binary/armv7a/gcc/am335x/drivers/Release/libdrivers.a(gpmc.o)
 .text.GPMCycle2CycleAndTurnArndTimeTimingConfig
                0x00000000       0x1c ../../../../../..//binary/armv7a/gcc/am335x/drivers/Release/libdrivers.a(gpmc.o)
 .text.GPMCCSConfig
                0x00000000       0x30 ../../../../../..//binary/armv7a/gcc/am335x/drivers/Release/libdrivers.a(gpmc.o)
 .text.GPMCBaseAddrSet
                0x00000000       0x2c ../../../../../..//binary/armv7a/gcc/am335x/drivers/Release/libdrivers.a(gpmc.o)
 .text.GPMCMaskAddrSet
                0x00000000       0x30 ../../../../../..//binary/armv7a/gcc/am335x/drivers/Release/libdrivers.a(gpmc.o)
 .text.GPMCSNANDCmdWrite
                0x00000000       0x14 ../../../../../..//binary/armv7a/gcc/am335x/drivers/Release/libdrivers.a(gpmc.o)
 .text.GPMCNANDAddrWrite
                0x00000000       0x14 ../../../../../..//binary/armv7a/gcc/am335x/drivers/Release/libdrivers.a(gpmc.o)
 .text.GPMCNANDDataWrite
                0x00000000       0x14 ../../../../../..//binary/armv7a/gcc/am335x/drivers/Release/libdrivers.a(gpmc.o)
 .text.GPMCNANDDataRead
                0x00000000       0x14 ../../../../../..//binary/armv7a/gcc/am335x/drivers/Release/libdrivers.a(gpmc.o)
 .text.GPMCPrefetchAccessModeSelect
                0x00000000       0x20 ../../../../../..//binary/armv7a/gcc/am335x/drivers/Release/libdrivers.a(gpmc.o)
 .text.GPMCPrefetchSyncTypeSelect
                0x00000000       0x24 ../../../../../..//binary/armv7a/gcc/am335x/drivers/Release/libdrivers.a(gpmc.o)
 .text.GPMCPrefetchSyncModeConfig
                0x00000000       0x24 ../../../../../..//binary/armv7a/gcc/am335x/drivers/Release/libdrivers.a(gpmc.o)
 .text.GPMCPrefetchWaitPinSelect
                0x00000000       0x24 ../../../../../..//binary/armv7a/gcc/am335x/drivers/Release/libdrivers.a(gpmc.o)
 .text.GPMCPrefetchEngineEnable
                0x00000000       0x10 ../../../../../..//binary/armv7a/gcc/am335x/drivers/Release/libdrivers.a(gpmc.o)
 .text.GPMCPrefetchEngineDisable
                0x00000000       0x10 ../../../../../..//binary/armv7a/gcc/am335x/drivers/Release/libdrivers.a(gpmc.o)
 .text.GPMCPrefetchFifoThrldValSet
                0x00000000       0x24 ../../../../../..//binary/armv7a/gcc/am335x/drivers/Release/libdrivers.a(gpmc.o)
 .text.GPMCPrefetchCSSelect
                0x00000000       0x24 ../../../../../..//binary/armv7a/gcc/am335x/drivers/Release/libdrivers.a(gpmc.o)
 .text.GPMCPrefetchAccessCycleOptConfig
                0x00000000       0x24 ../../../../../..//binary/armv7a/gcc/am335x/drivers/Release/libdrivers.a(gpmc.o)
 .text.GPMCPrefetchCycleOptValSet
                0x00000000       0x24 ../../../../../..//binary/armv7a/gcc/am335x/drivers/Release/libdrivers.a(gpmc.o)
 .text.GPMCPrefetchRRArbitrationConfig
                0x00000000       0x24 ../../../../../..//binary/armv7a/gcc/am335x/drivers/Release/libdrivers.a(gpmc.o)
 .text.GPMCPrefetchWeightedPrioSet
                0x00000000       0x24 ../../../../../..//binary/armv7a/gcc/am335x/drivers/Release/libdrivers.a(gpmc.o)
 .text.GPMCPrefetchTrnsCntValSet
                0x00000000       0x28 ../../../../../..//binary/armv7a/gcc/am335x/drivers/Release/libdrivers.a(gpmc.o)
 .text.GPMCPrefetchEngineStart
                0x00000000        0xc ../../../../../..//binary/armv7a/gcc/am335x/drivers/Release/libdrivers.a(gpmc.o)
 .text.GPMCPrefetchEngineStop
                0x00000000        0xc ../../../../../..//binary/armv7a/gcc/am335x/drivers/Release/libdrivers.a(gpmc.o)
 .text.GPMCPrefetchEngineStatusGet
                0x00000000        0xc ../../../../../..//binary/armv7a/gcc/am335x/drivers/Release/libdrivers.a(gpmc.o)
 .text.GPMCPrefetchCountValGet
                0x00000000       0x10 ../../../../../..//binary/armv7a/gcc/am335x/drivers/Release/libdrivers.a(gpmc.o)
 .text.GPMCPrefetchFifoThrldStatusGet
                0x00000000        0xc ../../../../../..//binary/armv7a/gcc/am335x/drivers/Release/libdrivers.a(gpmc.o)
 .text.GPMCPrefetchFifoPtrValGet
                0x00000000        0xc ../../../../../..//binary/armv7a/gcc/am335x/drivers/Release/libdrivers.a(gpmc.o)
 .text.GPMCECCAlgoSelect
                0x00000000       0x24 ../../../../../..//binary/armv7a/gcc/am335x/drivers/Release/libdrivers.a(gpmc.o)
 .text.GPMCECCBCHErrCorrectionCapSelect
                0x00000000       0x24 ../../../../../..//binary/armv7a/gcc/am335x/drivers/Release/libdrivers.a(gpmc.o)
 .text.GPMCECCBCHWrapModeValSet
                0x00000000       0x24 ../../../../../..//binary/armv7a/gcc/am335x/drivers/Release/libdrivers.a(gpmc.o)
 .text.GPMCECCColumnSelect
                0x00000000       0x24 ../../../../../..//binary/armv7a/gcc/am335x/drivers/Release/libdrivers.a(gpmc.o)
 .text.GPMCECCBCHNumOfSectorsSelect
                0x00000000       0x24 ../../../../../..//binary/armv7a/gcc/am335x/drivers/Release/libdrivers.a(gpmc.o)
 .text.GPMCECCCSSelect
                0x00000000       0x24 ../../../../../..//binary/armv7a/gcc/am335x/drivers/Release/libdrivers.a(gpmc.o)
 .text.GPMCECCEnable
                0x00000000       0x10 ../../../../../..//binary/armv7a/gcc/am335x/drivers/Release/libdrivers.a(gpmc.o)
 .text.GPMCECCDisable
                0x00000000       0x10 ../../../../../..//binary/armv7a/gcc/am335x/drivers/Release/libdrivers.a(gpmc.o)
 .text.GPMCECCResultRegClear
                0x00000000       0x10 ../../../../../..//binary/armv7a/gcc/am335x/drivers/Release/libdrivers.a(gpmc.o)
 .text.GPMCECCResultRegSelect
                0x00000000       0x20 ../../../../../..//binary/armv7a/gcc/am335x/drivers/Release/libdrivers.a(gpmc.o)
 .text.GPMCECCSizeValSet
                0x00000000       0x58 ../../../../../..//binary/armv7a/gcc/am335x/drivers/Release/libdrivers.a(gpmc.o)
 .text.GPMCECCResultSizeSelect
                0x00000000      0x174 ../../../../../..//binary/armv7a/gcc/am335x/drivers/Release/libdrivers.a(gpmc.o)
 .text.GPMCECCResultGet
                0x00000000        0xc ../../../../../..//binary/armv7a/gcc/am335x/drivers/Release/libdrivers.a(gpmc.o)
 .text.GPMCECCBCHResultGet
                0x00000000       0x84 ../../../../../..//binary/armv7a/gcc/am335x/drivers/Release/libdrivers.a(gpmc.o)
 .text.GPMCECCBCHSWDataWrite
                0x00000000        0xc ../../../../../..//binary/armv7a/gcc/am335x/drivers/Release/libdrivers.a(gpmc.o)
 .text.GPMCECCBCHSWDataRead
                0x00000000        0xc ../../../../../..//binary/armv7a/gcc/am335x/drivers/Release/libdrivers.a(gpmc.o)
 .text          0x00000000        0x0 ../../../../../..//binary/armv7a/gcc/am335x/drivers/Release/libdrivers.a(hs_mmcsd.o)
 .data          0x00000000        0x0 ../../../../../..//binary/armv7a/gcc/am335x/drivers/Release/libdrivers.a(hs_mmcsd.o)
 .bss           0x00000000        0x0 ../../../../../..//binary/armv7a/gcc/am335x/drivers/Release/libdrivers.a(hs_mmcsd.o)
 .text.HSMMCSDIsIntClockStable
                0x00000000       0x48 ../../../../../..//binary/armv7a/gcc/am335x/drivers/Release/libdrivers.a(hs_mmcsd.o)
 .text.HSMMCSDIsHSupported
                0x00000000        0xc ../../../../../..//binary/armv7a/gcc/am335x/drivers/Release/libdrivers.a(hs_mmcsd.o)
 .text.HSMMCSDIntrStatusEnable
                0x00000000       0x10 ../../../../../..//binary/armv7a/gcc/am335x/drivers/Release/libdrivers.a(hs_mmcsd.o)
 .text.HSMMCSDIntrStatusDisable
                0x00000000       0x10 ../../../../../..//binary/armv7a/gcc/am335x/drivers/Release/libdrivers.a(hs_mmcsd.o)
 .text.HSMMCSDIsCmdComplete
                0x00000000       0x48 ../../../../../..//binary/armv7a/gcc/am335x/drivers/Release/libdrivers.a(hs_mmcsd.o)
 .text.HSMMCSDIsXferComplete
                0x00000000       0x48 ../../../../../..//binary/armv7a/gcc/am335x/drivers/Release/libdrivers.a(hs_mmcsd.o)
 .text.HSMMCSDDataGet
                0x00000000       0x24 ../../../../../..//binary/armv7a/gcc/am335x/drivers/Release/libdrivers.a(hs_mmcsd.o)
 .text.HSMMCSDIsCardWriteProtected
                0x00000000        0xc ../../../../../..//binary/armv7a/gcc/am335x/drivers/Release/libdrivers.a(hs_mmcsd.o)
 .text          0x00000000        0x0 ../../../../../..//binary/armv7a/gcc/am335x/drivers/Release/libdrivers.a(hsi2c.o)
 .data          0x00000000        0x0 ../../../../../..//binary/armv7a/gcc/am335x/drivers/Release/libdrivers.a(hsi2c.o)
 .bss           0x00000000        0x0 ../../../../../..//binary/armv7a/gcc/am335x/drivers/Release/libdrivers.a(hsi2c.o)
 .text.I2CMasterErr
                0x00000000       0x14 ../../../../../..//binary/armv7a/gcc/am335x/drivers/Release/libdrivers.a(hsi2c.o)
 .text.I2CMasterIntStatusEx
                0x00000000        0xc ../../../../../..//binary/armv7a/gcc/am335x/drivers/Release/libdrivers.a(hsi2c.o)
 .text.I2CMasterIntRawStatusClearEx
                0x00000000        0x8 ../../../../../..//binary/armv7a/gcc/am335x/drivers/Release/libdrivers.a(hsi2c.o)
 .text.I2CMasterSlaveAddrGet
                0x00000000       0x10 ../../../../../..//binary/armv7a/gcc/am335x/drivers/Release/libdrivers.a(hsi2c.o)
 .text.I2CFIFOThresholdConfig
                0x00000000       0x30 ../../../../../..//binary/armv7a/gcc/am335x/drivers/Release/libdrivers.a(hsi2c.o)
 .text.I2CFIFOClear
                0x00000000       0x18 ../../../../../..//binary/armv7a/gcc/am335x/drivers/Release/libdrivers.a(hsi2c.o)
 .text.I2CDMATxEventEnable
                0x00000000       0x18 ../../../../../..//binary/armv7a/gcc/am335x/drivers/Release/libdrivers.a(hsi2c.o)
 .text.I2CDMARxEventEnable
                0x00000000       0x18 ../../../../../..//binary/armv7a/gcc/am335x/drivers/Release/libdrivers.a(hsi2c.o)
 .text.I2CDMATxEventDisable
                0x00000000       0x18 ../../../../../..//binary/armv7a/gcc/am335x/drivers/Release/libdrivers.a(hsi2c.o)
 .text.I2CDMARxEventDisable
                0x00000000       0x18 ../../../../../..//binary/armv7a/gcc/am335x/drivers/Release/libdrivers.a(hsi2c.o)
 .text.I2CBufferStatus
                0x00000000       0x40 ../../../../../..//binary/armv7a/gcc/am335x/drivers/Release/libdrivers.a(hsi2c.o)
 .text.I2CActiveOwnAddressGet
                0x00000000       0x50 ../../../../../..//binary/armv7a/gcc/am335x/drivers/Release/libdrivers.a(hsi2c.o)
 .text.I2CClockBlockingControl
                0x00000000       0x68 ../../../../../..//binary/armv7a/gcc/am335x/drivers/Release/libdrivers.a(hsi2c.o)
 .text.I2CAutoIdleEnable
                0x00000000       0x10 ../../../../../..//binary/armv7a/gcc/am335x/drivers/Release/libdrivers.a(hsi2c.o)
 .text.I2CGlobalWakeUpEnable
                0x00000000       0x10 ../../../../../..//binary/armv7a/gcc/am335x/drivers/Release/libdrivers.a(hsi2c.o)
 .text.I2CGlobalWakeUpDisable
                0x00000000       0x10 ../../../../../..//binary/armv7a/gcc/am335x/drivers/Release/libdrivers.a(hsi2c.o)
 .text.I2CIdleModeSelect
                0x00000000       0x1c ../../../../../..//binary/armv7a/gcc/am335x/drivers/Release/libdrivers.a(hsi2c.o)
 .text.I2CClockActivitySelect
                0x00000000       0x1c ../../../../../..//binary/armv7a/gcc/am335x/drivers/Release/libdrivers.a(hsi2c.o)
 .text.I2CWakeUpEnable
                0x00000000       0x44 ../../../../../..//binary/armv7a/gcc/am335x/drivers/Release/libdrivers.a(hsi2c.o)
 .text.I2CWakeUpDisable
                0x00000000       0x44 ../../../../../..//binary/armv7a/gcc/am335x/drivers/Release/libdrivers.a(hsi2c.o)
 .text.I2CContextSave
                0x00000000       0x24 ../../../../../..//binary/armv7a/gcc/am335x/drivers/Release/libdrivers.a(hsi2c.o)
 .text.I2CContextRestore
                0x00000000       0x64 ../../../../../..//binary/armv7a/gcc/am335x/drivers/Release/libdrivers.a(hsi2c.o)
 .text          0x00000000        0x0 ../../../../../..//binary/armv7a/gcc/am335x/drivers/Release/libdrivers.a(mailbox.o)
 .data          0x00000000        0x0 ../../../../../..//binary/armv7a/gcc/am335x/drivers/Release/libdrivers.a(mailbox.o)
 .bss           0x00000000        0x0 ../../../../../..//binary/armv7a/gcc/am335x/drivers/Release/libdrivers.a(mailbox.o)
 .text.MBenableQueueNotFullInt
                0x00000000       0x20 ../../../../../..//binary/armv7a/gcc/am335x/drivers/Release/libdrivers.a(mailbox.o)
 .text.MBdisableNewMsgInt
                0x00000000       0x1c ../../../../../..//binary/armv7a/gcc/am335x/drivers/Release/libdrivers.a(mailbox.o)
 .text.MBdisableQueueNotFullInt
                0x00000000       0x20 ../../../../../..//binary/armv7a/gcc/am335x/drivers/Release/libdrivers.a(mailbox.o)
 .text.MBgetNewMsgStatus
                0x00000000       0x1c ../../../../../..//binary/armv7a/gcc/am335x/drivers/Release/libdrivers.a(mailbox.o)
 .text.MBgetQueueNotFullStatus
                0x00000000       0x20 ../../../../../..//binary/armv7a/gcc/am335x/drivers/Release/libdrivers.a(mailbox.o)
 .text.MBclrQueueNotFullStatus
                0x00000000       0x20 ../../../../../..//binary/armv7a/gcc/am335x/drivers/Release/libdrivers.a(mailbox.o)
 .text.MBgetRawNewMsgStatus
                0x00000000       0x1c ../../../../../..//binary/armv7a/gcc/am335x/drivers/Release/libdrivers.a(mailbox.o)
 .text.MBgetRawQueueNotFullStatus
                0x00000000       0x20 ../../../../../..//binary/armv7a/gcc/am335x/drivers/Release/libdrivers.a(mailbox.o)
 .text          0x00000000        0x0 ../../../../../..//binary/armv7a/gcc/am335x/drivers/Release/libdrivers.a(mdio.o)
 .data          0x00000000        0x0 ../../../../../..//binary/armv7a/gcc/am335x/drivers/Release/libdrivers.a(mdio.o)
 .bss           0x00000000        0x0 ../../../../../..//binary/armv7a/gcc/am335x/drivers/Release/libdrivers.a(mdio.o)
 .text.MDIOPhyLinkStatusGet
                0x00000000        0x8 ../../../../../..//binary/armv7a/gcc/am335x/drivers/Release/libdrivers.a(mdio.o)
 .text          0x00000000        0x0 ../../../../../..//binary/armv7a/gcc/am335x/drivers/Release/libdrivers.a(phy.o)
 .data          0x00000000        0x0 ../../../../../..//binary/armv7a/gcc/am335x/drivers/Release/libdrivers.a(phy.o)
 .bss           0x00000000        0x0 ../../../../../..//binary/armv7a/gcc/am335x/drivers/Release/libdrivers.a(phy.o)
 .text.PhyIDGet
                0x00000000       0x50 ../../../../../..//binary/armv7a/gcc/am335x/drivers/Release/libdrivers.a(phy.o)
 .text.PhyRegRead
                0x00000000       0x14 ../../../../../..//binary/armv7a/gcc/am335x/drivers/Release/libdrivers.a(phy.o)
 .text.PhyRegWrite
                0x00000000       0x14 ../../../../../..//binary/armv7a/gcc/am335x/drivers/Release/libdrivers.a(phy.o)
 .text.PhyLoopBackEnable
                0x00000000       0x68 ../../../../../..//binary/armv7a/gcc/am335x/drivers/Release/libdrivers.a(phy.o)
 .text.PhyLoopBackDisable
                0x00000000       0x70 ../../../../../..//binary/armv7a/gcc/am335x/drivers/Release/libdrivers.a(phy.o)
 .text.PhyReset
                0x00000000       0x78 ../../../../../..//binary/armv7a/gcc/am335x/drivers/Release/libdrivers.a(phy.o)
 .text.PhyConfigure
                0x00000000       0x20 ../../../../../..//binary/armv7a/gcc/am335x/drivers/Release/libdrivers.a(phy.o)
 .text          0x00000000        0x0 ../../../../../..//binary/armv7a/gcc/am335x/drivers/Release/libdrivers.a(rtc.o)
 .data          0x00000000        0x0 ../../../../../..//binary/armv7a/gcc/am335x/drivers/Release/libdrivers.a(rtc.o)
 .bss           0x00000000        0x0 ../../../../../..//binary/armv7a/gcc/am335x/drivers/Release/libdrivers.a(rtc.o)
 .text.RTCStop  0x00000000       0x60 ../../../../../..//binary/armv7a/gcc/am335x/drivers/Release/libdrivers.a(rtc.o)
 .text.RTCWriteProtectEnable
                0x00000000       0x10 ../../../../../..//binary/armv7a/gcc/am335x/drivers/Release/libdrivers.a(rtc.o)
 .text.RTCIntAlarmEnable
                0x00000000       0x20 ../../../../../..//binary/armv7a/gcc/am335x/drivers/Release/libdrivers.a(rtc.o)
 .text.RTCIntAlarmDisable
                0x00000000       0x20 ../../../../../..//binary/armv7a/gcc/am335x/drivers/Release/libdrivers.a(rtc.o)
 .text.RTCIntTimerDisable
                0x00000000       0x20 ../../../../../..//binary/armv7a/gcc/am335x/drivers/Release/libdrivers.a(rtc.o)
 .text.RTCBusyStatusGet
                0x00000000        0xc ../../../../../..//binary/armv7a/gcc/am335x/drivers/Release/libdrivers.a(rtc.o)
 .text.RTCRunStatusGet
                0x00000000        0xc ../../../../../..//binary/armv7a/gcc/am335x/drivers/Release/libdrivers.a(rtc.o)
 .text.RTCAlarmIntStatusGet
                0x00000000        0xc ../../../../../..//binary/armv7a/gcc/am335x/drivers/Release/libdrivers.a(rtc.o)
 .text.RTCAlarmIntStatusClear
                0x00000000       0x10 ../../../../../..//binary/armv7a/gcc/am335x/drivers/Release/libdrivers.a(rtc.o)
 .text.RTCEventUpdateGet
                0x00000000        0xc ../../../../../..//binary/armv7a/gcc/am335x/drivers/Release/libdrivers.a(rtc.o)
 .text.RTCMinRoundingEnable
                0x00000000       0x48 ../../../../../..//binary/armv7a/gcc/am335x/drivers/Release/libdrivers.a(rtc.o)
 .text.RTCMinRoundingDisable
                0x00000000       0x50 ../../../../../..//binary/armv7a/gcc/am335x/drivers/Release/libdrivers.a(rtc.o)
 .text.RTCAutoCompEnable
                0x00000000       0x48 ../../../../../..//binary/armv7a/gcc/am335x/drivers/Release/libdrivers.a(rtc.o)
 .text.RTCAutoCompDisable
                0x00000000       0x50 ../../../../../..//binary/armv7a/gcc/am335x/drivers/Release/libdrivers.a(rtc.o)
 .text.RTCHourModeSet
                0x00000000       0x50 ../../../../../..//binary/armv7a/gcc/am335x/drivers/Release/libdrivers.a(rtc.o)
 .text.RTCHourModeGet
                0x00000000        0xc ../../../../../..//binary/armv7a/gcc/am335x/drivers/Release/libdrivers.a(rtc.o)
 .text.RTCSet32CounterEnable
                0x00000000       0x60 ../../../../../..//binary/armv7a/gcc/am335x/drivers/Release/libdrivers.a(rtc.o)
 .text.RTCSet32CounterDisable
                0x00000000       0x68 ../../../../../..//binary/armv7a/gcc/am335x/drivers/Release/libdrivers.a(rtc.o)
 .text.RTCDisable
                0x00000000       0x48 ../../../../../..//binary/armv7a/gcc/am335x/drivers/Release/libdrivers.a(rtc.o)
 .text.RTCEnableStatus
                0x00000000        0xc ../../../../../..//binary/armv7a/gcc/am335x/drivers/Release/libdrivers.a(rtc.o)
 .text.RTCSplitPwrEnable
                0x00000000       0x10 ../../../../../..//binary/armv7a/gcc/am335x/drivers/Release/libdrivers.a(rtc.o)
 .text.RTCSplitPwrDisable
                0x00000000       0x10 ../../../../../..//binary/armv7a/gcc/am335x/drivers/Release/libdrivers.a(rtc.o)
 .text.RTCSecondSet
                0x00000000       0x1c ../../../../../..//binary/armv7a/gcc/am335x/drivers/Release/libdrivers.a(rtc.o)
 .text.RTCSecondGet
                0x00000000        0xc ../../../../../..//binary/armv7a/gcc/am335x/drivers/Release/libdrivers.a(rtc.o)
 .text.RTCMinuteSet
                0x00000000       0x1c ../../../../../..//binary/armv7a/gcc/am335x/drivers/Release/libdrivers.a(rtc.o)
 .text.RTCMinuteGet
                0x00000000        0xc ../../../../../..//binary/armv7a/gcc/am335x/drivers/Release/libdrivers.a(rtc.o)
 .text.RTCHourSet
                0x00000000       0x1c ../../../../../..//binary/armv7a/gcc/am335x/drivers/Release/libdrivers.a(rtc.o)
 .text.RTCHourGet
                0x00000000        0xc ../../../../../..//binary/armv7a/gcc/am335x/drivers/Release/libdrivers.a(rtc.o)
 .text.RTCMeridiemSet
                0x00000000       0x24 ../../../../../..//binary/armv7a/gcc/am335x/drivers/Release/libdrivers.a(rtc.o)
 .text.RTCMeridiemGet
                0x00000000        0xc ../../../../../..//binary/armv7a/gcc/am335x/drivers/Release/libdrivers.a(rtc.o)
 .text.RTCDayOfMonthSet
                0x00000000       0x1c ../../../../../..//binary/armv7a/gcc/am335x/drivers/Release/libdrivers.a(rtc.o)
 .text.RTCDayOfMonthGet
                0x00000000        0xc ../../../../../..//binary/armv7a/gcc/am335x/drivers/Release/libdrivers.a(rtc.o)
 .text.RTCMonthSet
                0x00000000       0x1c ../../../../../..//binary/armv7a/gcc/am335x/drivers/Release/libdrivers.a(rtc.o)
 .text.RTCMonthGet
                0x00000000        0xc ../../../../../..//binary/armv7a/gcc/am335x/drivers/Release/libdrivers.a(rtc.o)
 .text.RTCYearSet
                0x00000000       0x1c ../../../../../..//binary/armv7a/gcc/am335x/drivers/Release/libdrivers.a(rtc.o)
 .text.RTCYearGet
                0x00000000        0xc ../../../../../..//binary/armv7a/gcc/am335x/drivers/Release/libdrivers.a(rtc.o)
 .text.RTCDayOfTheWeekSet
                0x00000000       0x1c ../../../../../..//binary/armv7a/gcc/am335x/drivers/Release/libdrivers.a(rtc.o)
 .text.RTCDayOfTheWeekGet
                0x00000000        0xc ../../../../../..//binary/armv7a/gcc/am335x/drivers/Release/libdrivers.a(rtc.o)
 .text.RTCAlarmSecondSet
                0x00000000       0x1c ../../../../../..//binary/armv7a/gcc/am335x/drivers/Release/libdrivers.a(rtc.o)
 .text.RTCAlarmSecondGet
                0x00000000        0xc ../../../../../..//binary/armv7a/gcc/am335x/drivers/Release/libdrivers.a(rtc.o)
 .text.RTCAlarmMinuteSet
                0x00000000       0x1c ../../../../../..//binary/armv7a/gcc/am335x/drivers/Release/libdrivers.a(rtc.o)
 .text.RTCAlarmMinuteGet
                0x00000000        0xc ../../../../../..//binary/armv7a/gcc/am335x/drivers/Release/libdrivers.a(rtc.o)
 .text.RTCAlarmHourSet
                0x00000000       0x1c ../../../../../..//binary/armv7a/gcc/am335x/drivers/Release/libdrivers.a(rtc.o)
 .text.RTCAlarmHourGet
                0x00000000        0xc ../../../../../..//binary/armv7a/gcc/am335x/drivers/Release/libdrivers.a(rtc.o)
 .text.RTCAlarmHourMeridiemSet
                0x00000000       0x24 ../../../../../..//binary/armv7a/gcc/am335x/drivers/Release/libdrivers.a(rtc.o)
 .text.RTCAlarmHourMeridiemGet
                0x00000000        0xc ../../../../../..//binary/armv7a/gcc/am335x/drivers/Release/libdrivers.a(rtc.o)
 .text.RTCAlarmTimeSet
                0x00000000       0x30 ../../../../../..//binary/armv7a/gcc/am335x/drivers/Release/libdrivers.a(rtc.o)
 .text.RTCAlarmTimeGet
                0x00000000       0x44 ../../../../../..//binary/armv7a/gcc/am335x/drivers/Release/libdrivers.a(rtc.o)
 .text.RTCAlarmDayOfMonthSet
                0x00000000       0x1c ../../../../../..//binary/armv7a/gcc/am335x/drivers/Release/libdrivers.a(rtc.o)
 .text.RTCAlarmDayOfMonthGet
                0x00000000        0xc ../../../../../..//binary/armv7a/gcc/am335x/drivers/Release/libdrivers.a(rtc.o)
 .text.RTCAlarmMonthSet
                0x00000000       0x1c ../../../../../..//binary/armv7a/gcc/am335x/drivers/Release/libdrivers.a(rtc.o)
 .text.RTCAlarmMonthGet
                0x00000000        0xc ../../../../../..//binary/armv7a/gcc/am335x/drivers/Release/libdrivers.a(rtc.o)
 .text.RTCAlarmYearSet
                0x00000000       0x1c ../../../../../..//binary/armv7a/gcc/am335x/drivers/Release/libdrivers.a(rtc.o)
 .text.RTCAlarmYearGet
                0x00000000        0xc ../../../../../..//binary/armv7a/gcc/am335x/drivers/Release/libdrivers.a(rtc.o)
 .text.RTCAlarmCalendarSet
                0x00000000       0x2c ../../../../../..//binary/armv7a/gcc/am335x/drivers/Release/libdrivers.a(rtc.o)
 .text.RTCAlarmCalendarGet
                0x00000000       0x28 ../../../../../..//binary/armv7a/gcc/am335x/drivers/Release/libdrivers.a(rtc.o)
 .text.RTCCompensationSet
                0x00000000       0x24 ../../../../../..//binary/armv7a/gcc/am335x/drivers/Release/libdrivers.a(rtc.o)
 .text.RTCCompensationGet
                0x00000000       0x18 ../../../../../..//binary/armv7a/gcc/am335x/drivers/Release/libdrivers.a(rtc.o)
 .text.RTCScratchPadSet
                0x00000000        0xc ../../../../../..//binary/armv7a/gcc/am335x/drivers/Release/libdrivers.a(rtc.o)
 .text.RTCScratchPadGet
                0x00000000        0xc ../../../../../..//binary/armv7a/gcc/am335x/drivers/Release/libdrivers.a(rtc.o)
 .text.RTCSoftwareReset
                0x00000000       0x10 ../../../../../..//binary/armv7a/gcc/am335x/drivers/Release/libdrivers.a(rtc.o)
 .text.RTCRevisionIDGet
                0x00000000        0x8 ../../../../../..//binary/armv7a/gcc/am335x/drivers/Release/libdrivers.a(rtc.o)
 .text.RTCIdleModeConfigure
                0x00000000       0x20 ../../../../../..//binary/armv7a/gcc/am335x/drivers/Release/libdrivers.a(rtc.o)
 .text.RTCWakeUpAlarmEventControl
                0x00000000       0x20 ../../../../../..//binary/armv7a/gcc/am335x/drivers/Release/libdrivers.a(rtc.o)
 .text.RTCWakeUpTimerEventControl
                0x00000000       0x20 ../../../../../..//binary/armv7a/gcc/am335x/drivers/Release/libdrivers.a(rtc.o)
 .text.RTCTestModeControl
                0x00000000       0x20 ../../../../../..//binary/armv7a/gcc/am335x/drivers/Release/libdrivers.a(rtc.o)
 .text.RTCOscillatorStateControl
                0x00000000       0x20 ../../../../../..//binary/armv7a/gcc/am335x/drivers/Release/libdrivers.a(rtc.o)
 .text.RTCFeedbackResistanceSelect
                0x00000000       0x20 ../../../../../..//binary/armv7a/gcc/am335x/drivers/Release/libdrivers.a(rtc.o)
 .text.RTCConfigPmicPowerEnable
                0x00000000       0x20 ../../../../../..//binary/armv7a/gcc/am335x/drivers/Release/libdrivers.a(rtc.o)
 .text.RTCConfigPmicExtWakePolarity
                0x00000000       0x2c ../../../../../..//binary/armv7a/gcc/am335x/drivers/Release/libdrivers.a(rtc.o)
 .text.RTCConfigPmicExtWake
                0x00000000       0x28 ../../../../../..//binary/armv7a/gcc/am335x/drivers/Release/libdrivers.a(rtc.o)
 .text.RTCConfigPmicExtWakeDebounce
                0x00000000       0x2c ../../../../../..//binary/armv7a/gcc/am335x/drivers/Release/libdrivers.a(rtc.o)
 .text.RTCPmicExtWakeStatusClear
                0x00000000       0x18 ../../../../../..//binary/armv7a/gcc/am335x/drivers/Release/libdrivers.a(rtc.o)
 .text.RTCIntAlarm2Enable
                0x00000000       0x20 ../../../../../..//binary/armv7a/gcc/am335x/drivers/Release/libdrivers.a(rtc.o)
 .text.RTCAlarm2IntStatusGet
                0x00000000        0xc ../../../../../..//binary/armv7a/gcc/am335x/drivers/Release/libdrivers.a(rtc.o)
 .text.RTCAlarm2IntStatusClear
                0x00000000       0x10 ../../../../../..//binary/armv7a/gcc/am335x/drivers/Release/libdrivers.a(rtc.o)
 .text.RTCAlarm2TimeSet
                0x00000000       0x30 ../../../../../..//binary/armv7a/gcc/am335x/drivers/Release/libdrivers.a(rtc.o)
 .text.RTCAlarm2CalendarSet
                0x00000000       0x2c ../../../../../..//binary/armv7a/gcc/am335x/drivers/Release/libdrivers.a(rtc.o)
 .text          0x00000000        0x0 ../../../../../..//binary/armv7a/gcc/am335x/drivers/Release/libdrivers.a(uart_irda_cir.o)
 .data          0x00000000        0x0 ../../../../../..//binary/armv7a/gcc/am335x/drivers/Release/libdrivers.a(uart_irda_cir.o)
 .bss           0x00000000        0x0 ../../../../../..//binary/armv7a/gcc/am335x/drivers/Release/libdrivers.a(uart_irda_cir.o)
 .text.UARTDivisorLatchEnable
                0x00000000       0x10 ../../../../../..//binary/armv7a/gcc/am335x/drivers/Release/libdrivers.a(uart_irda_cir.o)
 .text.UARTRegConfModeRestore
                0x00000000        0x8 ../../../../../..//binary/armv7a/gcc/am335x/drivers/Release/libdrivers.a(uart_irda_cir.o)
 .text.UARTParityModeSet
                0x00000000       0x20 ../../../../../..//binary/armv7a/gcc/am335x/drivers/Release/libdrivers.a(uart_irda_cir.o)
 .text.UARTParityModeGet
                0x00000000        0xc ../../../../../..//binary/armv7a/gcc/am335x/drivers/Release/libdrivers.a(uart_irda_cir.o)
 .text.UARTDMAEnable
                0x00000000       0x30 ../../../../../..//binary/armv7a/gcc/am335x/drivers/Release/libdrivers.a(uart_irda_cir.o)
 .text.UARTDMADisable
                0x00000000       0x1c ../../../../../..//binary/armv7a/gcc/am335x/drivers/Release/libdrivers.a(uart_irda_cir.o)
 .text.UARTEnhanFuncEnable
                0x00000000       0x2c ../../../../../..//binary/armv7a/gcc/am335x/drivers/Release/libdrivers.a(uart_irda_cir.o)
 .text.UARTEnhanFuncBitValRestore
                0x00000000       0x30 ../../../../../..//binary/armv7a/gcc/am335x/drivers/Release/libdrivers.a(uart_irda_cir.o)
 .text.UARTSubConfigMSRSPRModeEn
                0x00000000       0x74 ../../../../../..//binary/armv7a/gcc/am335x/drivers/Release/libdrivers.a(uart_irda_cir.o)
 .text.UARTSubConfigXOFFModeEn
                0x00000000       0x74 ../../../../../..//binary/armv7a/gcc/am335x/drivers/Release/libdrivers.a(uart_irda_cir.o)
 .text.UARTSpaceAvail
                0x00000000       0x28 ../../../../../..//binary/armv7a/gcc/am335x/drivers/Release/libdrivers.a(uart_irda_cir.o)
 .text.UARTCharGetTimeout
                0x00000000       0x68 ../../../../../..//binary/armv7a/gcc/am335x/drivers/Release/libdrivers.a(uart_irda_cir.o)
 .text.UARTFIFOCharPut
                0x00000000        0x8 ../../../../../..//binary/armv7a/gcc/am335x/drivers/Release/libdrivers.a(uart_irda_cir.o)
 .text.UARTFIFOCharGet
                0x00000000        0xc ../../../../../..//binary/armv7a/gcc/am335x/drivers/Release/libdrivers.a(uart_irda_cir.o)
 .text.UARTFIFOWrite
                0x00000000       0x24 ../../../../../..//binary/armv7a/gcc/am335x/drivers/Release/libdrivers.a(uart_irda_cir.o)
 .text.UARTRxErrorGet
                0x00000000       0x20 ../../../../../..//binary/armv7a/gcc/am335x/drivers/Release/libdrivers.a(uart_irda_cir.o)
 .text.UARTIntIdentityGet
                0x00000000       0x20 ../../../../../..//binary/armv7a/gcc/am335x/drivers/Release/libdrivers.a(uart_irda_cir.o)
 .text.UARTIntPendingStatusGet
                0x00000000       0x20 ../../../../../..//binary/armv7a/gcc/am335x/drivers/Release/libdrivers.a(uart_irda_cir.o)
 .text.UARTFIFOEnableStatusGet
                0x00000000       0x28 ../../../../../..//binary/armv7a/gcc/am335x/drivers/Release/libdrivers.a(uart_irda_cir.o)
 .text.UARTAutoRTSAutoCTSControl
                0x00000000       0x40 ../../../../../..//binary/armv7a/gcc/am335x/drivers/Release/libdrivers.a(uart_irda_cir.o)
 .text.UARTSpecialCharDetectControl
                0x00000000       0x30 ../../../../../..//binary/armv7a/gcc/am335x/drivers/Release/libdrivers.a(uart_irda_cir.o)
 .text.UARTSoftwareFlowCtrlOptSet
                0x00000000       0x30 ../../../../../..//binary/armv7a/gcc/am335x/drivers/Release/libdrivers.a(uart_irda_cir.o)
 .text.UARTPulseShapingControl
                0x00000000       0x20 ../../../../../..//binary/armv7a/gcc/am335x/drivers/Release/libdrivers.a(uart_irda_cir.o)
 .text.UARTAutoIdleModeControl
                0x00000000       0x20 ../../../../../..//binary/armv7a/gcc/am335x/drivers/Release/libdrivers.a(uart_irda_cir.o)
 .text.UARTFlowCtrlTrigLvlConfig
                0x00000000       0x18 ../../../../../..//binary/armv7a/gcc/am335x/drivers/Release/libdrivers.a(uart_irda_cir.o)
 .text.UARTXON1XOFF1ValProgram
                0x00000000        0xc ../../../../../..//binary/armv7a/gcc/am335x/drivers/Release/libdrivers.a(uart_irda_cir.o)
 .text.UARTXON2XOFF2ValProgram
                0x00000000        0xc ../../../../../..//binary/armv7a/gcc/am335x/drivers/Release/libdrivers.a(uart_irda_cir.o)
 .text.UARTXONAnyFeatureControl
                0x00000000       0x5c ../../../../../..//binary/armv7a/gcc/am335x/drivers/Release/libdrivers.a(uart_irda_cir.o)
 .text.UARTLoopbackModeControl
                0x00000000       0x20 ../../../../../..//binary/armv7a/gcc/am335x/drivers/Release/libdrivers.a(uart_irda_cir.o)
 .text.UARTModemControlSet
                0x00000000       0x14 ../../../../../..//binary/armv7a/gcc/am335x/drivers/Release/libdrivers.a(uart_irda_cir.o)
 .text.UARTModemControlClear
                0x00000000       0x14 ../../../../../..//binary/armv7a/gcc/am335x/drivers/Release/libdrivers.a(uart_irda_cir.o)
 .text.UARTModemStatusGet
                0x00000000        0xc ../../../../../..//binary/armv7a/gcc/am335x/drivers/Release/libdrivers.a(uart_irda_cir.o)
 .text.UARTModemStatusChangeCheck
                0x00000000        0xc ../../../../../..//binary/armv7a/gcc/am335x/drivers/Release/libdrivers.a(uart_irda_cir.o)
 .text.UARTResumeOperation
                0x00000000        0x8 ../../../../../..//binary/armv7a/gcc/am335x/drivers/Release/libdrivers.a(uart_irda_cir.o)
 .text.UARTWakeUpEventsEnable
                0x00000000       0x14 ../../../../../..//binary/armv7a/gcc/am335x/drivers/Release/libdrivers.a(uart_irda_cir.o)
 .text.UARTWakeUpEventsDisable
                0x00000000       0x14 ../../../../../..//binary/armv7a/gcc/am335x/drivers/Release/libdrivers.a(uart_irda_cir.o)
 .text.UARTFIFOTrigLvlGranControl
                0x00000000       0x30 ../../../../../..//binary/armv7a/gcc/am335x/drivers/Release/libdrivers.a(uart_irda_cir.o)
 .text.UARTDSRInterruptControl
                0x00000000       0x20 ../../../../../..//binary/armv7a/gcc/am335x/drivers/Release/libdrivers.a(uart_irda_cir.o)
 .text.UARTTxEmptyIntControl
                0x00000000       0x20 ../../../../../..//binary/armv7a/gcc/am335x/drivers/Release/libdrivers.a(uart_irda_cir.o)
 .text.UARTRXCTSDSRWakeUpConfigure
                0x00000000       0x20 ../../../../../..//binary/armv7a/gcc/am335x/drivers/Release/libdrivers.a(uart_irda_cir.o)
 .text.UARTRXCTSDSRTransitionStatusGet
                0x00000000        0xc ../../../../../..//binary/armv7a/gcc/am335x/drivers/Release/libdrivers.a(uart_irda_cir.o)
 .text.UARTDMACounterResetControl
                0x00000000       0x20 ../../../../../..//binary/armv7a/gcc/am335x/drivers/Release/libdrivers.a(uart_irda_cir.o)
 .text.UARTTxFIFOFullStatusGet
                0x00000000        0xc ../../../../../..//binary/armv7a/gcc/am335x/drivers/Release/libdrivers.a(uart_irda_cir.o)
 .text.UARTTxFIFOLevelGet
                0x00000000        0x8 ../../../../../..//binary/armv7a/gcc/am335x/drivers/Release/libdrivers.a(uart_irda_cir.o)
 .text.UARTRxFIFOLevelGet
                0x00000000        0x8 ../../../../../..//binary/armv7a/gcc/am335x/drivers/Release/libdrivers.a(uart_irda_cir.o)
 .text.UARTAutobaudParityGet
                0x00000000       0x1c ../../../../../..//binary/armv7a/gcc/am335x/drivers/Release/libdrivers.a(uart_irda_cir.o)
 .text.UARTAutobaudWordLenGet
                0x00000000       0x1c ../../../../../..//binary/armv7a/gcc/am335x/drivers/Release/libdrivers.a(uart_irda_cir.o)
 .text.UARTAutobaudSpeedGet
                0x00000000       0x1c ../../../../../..//binary/armv7a/gcc/am335x/drivers/Release/libdrivers.a(uart_irda_cir.o)
 .text.UARTScratchPadRegWrite
                0x00000000       0x20 ../../../../../..//binary/armv7a/gcc/am335x/drivers/Release/libdrivers.a(uart_irda_cir.o)
 .text.UARTScratchPadRegRead
                0x00000000        0xc ../../../../../..//binary/armv7a/gcc/am335x/drivers/Release/libdrivers.a(uart_irda_cir.o)
 .text.UARTModuleVersionNumberGet
                0x00000000        0xc ../../../../../..//binary/armv7a/gcc/am335x/drivers/Release/libdrivers.a(uart_irda_cir.o)
 .text.UARTTxDMAThresholdControl
                0x00000000       0x20 ../../../../../..//binary/armv7a/gcc/am335x/drivers/Release/libdrivers.a(uart_irda_cir.o)
 .text.UARTTxDMAThresholdValConfig
                0x00000000       0x20 ../../../../../..//binary/armv7a/gcc/am335x/drivers/Release/libdrivers.a(uart_irda_cir.o)
 .text          0x00000000        0x0 ../../../../../..//binary/armv7a/gcc/utils/Release/libutils.a(ascii.o)
 .data          0x00000000        0x0 ../../../../../..//binary/armv7a/gcc/utils/Release/libutils.a(ascii.o)
 .bss           0x00000000        0x0 ../../../../../..//binary/armv7a/gcc/utils/Release/libutils.a(ascii.o)
 .text.StrToEthrAddr
                0x00000000       0x80 ../../../../../..//binary/armv7a/gcc/utils/Release/libutils.a(ascii.o)
 .text.EthrAddrToStr
                0x00000000       0x84 ../../../../../..//binary/armv7a/gcc/utils/Release/libutils.a(ascii.o)
 .text          0x00000000        0x0 ../../../../../..//binary/armv7a/gcc/utils/Release/libutils.a(board.o)
 .data          0x00000000        0x0 ../../../../../..//binary/armv7a/gcc/utils/Release/libutils.a(board.o)
 .bss           0x00000000        0x0 ../../../../../..//binary/armv7a/gcc/utils/Release/libutils.a(board.o)
 .text.BoardIdGet
                0x00000000       0x10 ../../../../../..//binary/armv7a/gcc/utils/Release/libutils.a(board.o)
 .text          0x00000000        0x0 ../../../../../..//binary/armv7a/gcc/utils/Release/libutils.a(cmdline.o)
 .data          0x00000000        0x0 ../../../../../..//binary/armv7a/gcc/utils/Release/libutils.a(cmdline.o)
 .bss           0x00000000        0x0 ../../../../../..//binary/armv7a/gcc/utils/Release/libutils.a(cmdline.o)
 .text          0x00000000        0x0 ../../../../../..//binary/armv7a/gcc/utils/Release/libutils.a(consoleUtils.o)
 .data          0x00000000        0x0 ../../../../../..//binary/armv7a/gcc/utils/Release/libutils.a(consoleUtils.o)
 .bss           0x00000000        0x0 ../../../../../..//binary/armv7a/gcc/utils/Release/libutils.a(consoleUtils.o)
 .text.ConsoleUtilsGets
                0x00000000       0x48 ../../../../../..//binary/armv7a/gcc/utils/Release/libutils.a(consoleUtils.o)
 .text.ConsoleUtilsPuts
                0x00000000       0x30 ../../../../../..//binary/armv7a/gcc/utils/Release/libutils.a(consoleUtils.o)
 .text.ConsoleUtilsGetChar
                0x00000000       0x70 ../../../../../..//binary/armv7a/gcc/utils/Release/libutils.a(consoleUtils.o)
 .text.ConsoleUtilsPutChar
                0x00000000       0x44 ../../../../../..//binary/armv7a/gcc/utils/Release/libutils.a(consoleUtils.o)
 .text          0x00000000        0x0 ../../../../../..//binary/armv7a/gcc/utils/Release/libutils.a(delay.o)
 .data          0x00000000        0x0 ../../../../../..//binary/armv7a/gcc/utils/Release/libutils.a(delay.o)
 .bss           0x00000000        0x0 ../../../../../..//binary/armv7a/gcc/utils/Release/libutils.a(delay.o)
 .text.StartTimer
                0x00000000       0x14 ../../../../../..//binary/armv7a/gcc/utils/Release/libutils.a(delay.o)
 .text.StopTimer
                0x00000000       0x14 ../../../../../..//binary/armv7a/gcc/utils/Release/libutils.a(delay.o)
 .text.IsTimerElapsed
                0x00000000       0x14 ../../../../../..//binary/armv7a/gcc/utils/Release/libutils.a(delay.o)
 .text          0x00000000        0x0 ../../../../../..//binary/armv7a/gcc/utils/Release/libutils.a(uartStdio.o)
 .data          0x00000000        0x0 ../../../../../..//binary/armv7a/gcc/utils/Release/libutils.a(uartStdio.o)
 .bss           0x00000000        0x0 ../../../../../..//binary/armv7a/gcc/utils/Release/libutils.a(uartStdio.o)
 .text.UARTGets
                0x00000000       0x98 ../../../../../..//binary/armv7a/gcc/utils/Release/libutils.a(uartStdio.o)
 .text.UARTPutNum
                0x00000000       0xb0 ../../../../../..//binary/armv7a/gcc/utils/Release/libutils.a(uartStdio.o)
 .text.UARTPutHexNum
                0x00000000       0xa0 ../../../../../..//binary/armv7a/gcc/utils/Release/libutils.a(uartStdio.o)
 .text.UARTGetNum
                0x00000000       0x68 ../../../../../..//binary/armv7a/gcc/utils/Release/libutils.a(uartStdio.o)
 .text.UARTGetHexNum
                0x00000000      0x164 ../../../../../..//binary/armv7a/gcc/utils/Release/libutils.a(uartStdio.o)
 .text.UARTPutc
                0x00000000       0x14 ../../../../../..//binary/armv7a/gcc/utils/Release/libutils.a(uartStdio.o)
 .text.UARTprintf
                0x00000000      0x4c8 ../../../../../..//binary/armv7a/gcc/utils/Release/libutils.a(uartStdio.o)
 .text          0x00000000        0x0 ../../../../../..//binary/armv7a/gcc/am335x/beaglebone/platform/Release/libplatform.a(board.o)
 .data          0x00000000        0x0 ../../../../../..//binary/armv7a/gcc/am335x/beaglebone/platform/Release/libplatform.a(board.o)
 .bss           0x00000000        0x0 ../../../../../..//binary/armv7a/gcc/am335x/beaglebone/platform/Release/libplatform.a(board.o)
 .text          0x00000000        0x0 ../../../../../..//binary/armv7a/gcc/am335x/beaglebone/platform/Release/libplatform.a(cpsw.o)
 .data          0x00000000        0x0 ../../../../../..//binary/armv7a/gcc/am335x/beaglebone/platform/Release/libplatform.a(cpsw.o)
 .bss           0x00000000        0x0 ../../../../../..//binary/armv7a/gcc/am335x/beaglebone/platform/Release/libplatform.a(cpsw.o)
 .text          0x00000000        0x0 ../../../../../..//binary/armv7a/gcc/am335x/beaglebone/platform/Release/libplatform.a(ctlregcontext.o)
 .data          0x00000000        0x0 ../../../../../..//binary/armv7a/gcc/am335x/beaglebone/platform/Release/libplatform.a(ctlregcontext.o)
 .bss           0x00000000        0x0 ../../../../../..//binary/armv7a/gcc/am335x/beaglebone/platform/Release/libplatform.a(ctlregcontext.o)
 .text          0x00000000        0x0 ../../../../../..//binary/armv7a/gcc/am335x/beaglebone/platform/Release/libplatform.a(dmtimer.o)
 .data          0x00000000        0x0 ../../../../../..//binary/armv7a/gcc/am335x/beaglebone/platform/Release/libplatform.a(dmtimer.o)
 .bss           0x00000000        0x0 ../../../../../..//binary/armv7a/gcc/am335x/beaglebone/platform/Release/libplatform.a(dmtimer.o)
 .text          0x00000000        0x0 ../../../../../..//binary/armv7a/gcc/am335x/beaglebone/platform/Release/libplatform.a(edma.o)
 .data          0x00000000        0x0 ../../../../../..//binary/armv7a/gcc/am335x/beaglebone/platform/Release/libplatform.a(edma.o)
 .bss           0x00000000        0x0 ../../../../../..//binary/armv7a/gcc/am335x/beaglebone/platform/Release/libplatform.a(edma.o)
 .text.EDMA3CrossBarChannelMap
                0x00000000       0x48 ../../../../../..//binary/armv7a/gcc/am335x/beaglebone/platform/Release/libplatform.a(edma.o)
 .rodata.CSWTCH.3
                0x00000000        0xc ../../../../../..//binary/armv7a/gcc/am335x/beaglebone/platform/Release/libplatform.a(edma.o)
 .text          0x00000000        0x0 ../../../../../..//binary/armv7a/gcc/am335x/beaglebone/platform/Release/libplatform.a(eeprom.o)
 .data          0x00000000        0x0 ../../../../../..//binary/armv7a/gcc/am335x/beaglebone/platform/Release/libplatform.a(eeprom.o)
 .bss           0x00000000        0x0 ../../../../../..//binary/armv7a/gcc/am335x/beaglebone/platform/Release/libplatform.a(eeprom.o)
 .text          0x00000000        0x0 ../../../../../..//binary/armv7a/gcc/am335x/beaglebone/platform/Release/libplatform.a(gpio.o)
 .data          0x00000000        0x0 ../../../../../..//binary/armv7a/gcc/am335x/beaglebone/platform/Release/libplatform.a(gpio.o)
 .bss           0x00000000        0x0 ../../../../../..//binary/armv7a/gcc/am335x/beaglebone/platform/Release/libplatform.a(gpio.o)
 .text.GPIO1PinMuxSetup
                0x00000000       0x1c ../../../../../..//binary/armv7a/gcc/am335x/beaglebone/platform/Release/libplatform.a(gpio.o)
 .text          0x00000000        0x0 ../../../../../..//binary/armv7a/gcc/am335x/beaglebone/platform/Release/libplatform.a(hs_mmcsd.o)
 .data          0x00000000        0x0 ../../../../../..//binary/armv7a/gcc/am335x/beaglebone/platform/Release/libplatform.a(hs_mmcsd.o)
 .bss           0x00000000        0x0 ../../../../../..//binary/armv7a/gcc/am335x/beaglebone/platform/Release/libplatform.a(hs_mmcsd.o)
 .text          0x00000000        0x0 ../../../../../..//binary/armv7a/gcc/am335x/beaglebone/platform/Release/libplatform.a(hsi2c.o)
 .data          0x00000000        0x0 ../../../../../..//binary/armv7a/gcc/am335x/beaglebone/platform/Release/libplatform.a(hsi2c.o)
 .bss           0x00000000        0x0 ../../../../../..//binary/armv7a/gcc/am335x/beaglebone/platform/Release/libplatform.a(hsi2c.o)
 .text.I2C1ModuleClkConfig
                0x00000000      0x1a0 ../../../../../..//binary/armv7a/gcc/am335x/beaglebone/platform/Release/libplatform.a(hsi2c.o)
 .text          0x00000000        0x0 ../../../../../..//binary/armv7a/gcc/am335x/beaglebone/platform/Release/libplatform.a(rtc.o)
 .data          0x00000000        0x0 ../../../../../..//binary/armv7a/gcc/am335x/beaglebone/platform/Release/libplatform.a(rtc.o)
 .bss           0x00000000        0x0 ../../../../../..//binary/armv7a/gcc/am335x/beaglebone/platform/Release/libplatform.a(rtc.o)
 .text          0x00000000        0x0 ../../../../../..//binary/armv7a/gcc/am335x/beaglebone/platform/Release/libplatform.a(sysdelay.o)
 .data          0x00000000        0x0 ../../../../../..//binary/armv7a/gcc/am335x/beaglebone/platform/Release/libplatform.a(sysdelay.o)
 .bss           0x00000000        0x0 ../../../../../..//binary/armv7a/gcc/am335x/beaglebone/platform/Release/libplatform.a(sysdelay.o)
 .text.SysStartTimer
                0x00000000       0x60 ../../../../../..//binary/armv7a/gcc/am335x/beaglebone/platform/Release/libplatform.a(sysdelay.o)
 .text.SysStopTimer
                0x00000000       0x34 ../../../../../..//binary/armv7a/gcc/am335x/beaglebone/platform/Release/libplatform.a(sysdelay.o)
 .text.SysIsTimerElapsed
                0x00000000       0x10 ../../../../../..//binary/armv7a/gcc/am335x/beaglebone/platform/Release/libplatform.a(sysdelay.o)
 .text          0x00000000        0x0 ../../../../../..//binary/armv7a/gcc/am335x/beaglebone/platform/Release/libplatform.a(uartConsole.o)
 .data          0x00000000        0x0 ../../../../../..//binary/armv7a/gcc/am335x/beaglebone/platform/Release/libplatform.a(uartConsole.o)
 .bss           0x00000000        0x0 ../../../../../..//binary/armv7a/gcc/am335x/beaglebone/platform/Release/libplatform.a(uartConsole.o)
 .text          0x00000000        0x0 ../../../../../..//binary/armv7a/gcc/am335x/beaglebone/platform/Release/libplatform.a(uart.o)
 .data          0x00000000        0x0 ../../../../../..//binary/armv7a/gcc/am335x/beaglebone/platform/Release/libplatform.a(uart.o)
 .bss           0x00000000        0x0 ../../../../../..//binary/armv7a/gcc/am335x/beaglebone/platform/Release/libplatform.a(uart.o)
 .text          0x00000000        0x0 ../../../../../..//binary/armv7a/gcc/mmcsdlib/Release/libmmcsd.a(hs_mmcsdlib.o)
 .data          0x00000000        0x0 ../../../../../..//binary/armv7a/gcc/mmcsdlib/Release/libmmcsd.a(hs_mmcsdlib.o)
 .bss           0x00000000        0x0 ../../../../../..//binary/armv7a/gcc/mmcsdlib/Release/libmmcsd.a(hs_mmcsdlib.o)
 .text          0x00000000        0x0 ../../../../../..//binary/armv7a/gcc/mmcsdlib/Release/libmmcsd.a(mmcsd_proto.o)
 .data          0x00000000        0x0 ../../../../../..//binary/armv7a/gcc/mmcsdlib/Release/libmmcsd.a(mmcsd_proto.o)
 .bss           0x00000000        0x0 ../../../../../..//binary/armv7a/gcc/mmcsdlib/Release/libmmcsd.a(mmcsd_proto.o)
 .text.MMCSDCmdSend
                0x00000000       0x10 ../../../../../..//binary/armv7a/gcc/mmcsdlib/Release/libmmcsd.a(mmcsd_proto.o)
 .text.MMCSDCardReset
                0x00000000       0x30 ../../../../../..//binary/armv7a/gcc/mmcsdlib/Release/libmmcsd.a(mmcsd_proto.o)
 .text.MMCSDStopCmdSend
                0x00000000       0x40 ../../../../../..//binary/armv7a/gcc/mmcsdlib/Release/libmmcsd.a(mmcsd_proto.o)
 .text.MMCSDCardPresent
                0x00000000       0x10 ../../../../../..//binary/armv7a/gcc/mmcsdlib/Release/libmmcsd.a(mmcsd_proto.o)
 .text          0x00000000        0x0 ../../../../../..//binary/armv7a/gcc/am335x/system_config/Release/libsystem_config.a(cache.o)
 .data          0x00000000        0x0 ../../../../../..//binary/armv7a/gcc/am335x/system_config/Release/libsystem_config.a(cache.o)
 .bss           0x00000000        0x0 ../../../../../..//binary/armv7a/gcc/am335x/system_config/Release/libsystem_config.a(cache.o)
 .text.CacheInstInvalidateAll
                0x00000000       0x14 ../../../../../..//binary/armv7a/gcc/am335x/system_config/Release/libsystem_config.a(cache.o)
 .text.CacheInstInvalidateBuff
                0x00000000       0x14 ../../../../../..//binary/armv7a/gcc/am335x/system_config/Release/libsystem_config.a(cache.o)
 .text.CacheDataCleanInvalidateAll
                0x00000000       0x14 ../../../../../..//binary/armv7a/gcc/am335x/system_config/Release/libsystem_config.a(cache.o)
 .text.CacheDataCleanAll
                0x00000000       0x14 ../../../../../..//binary/armv7a/gcc/am335x/system_config/Release/libsystem_config.a(cache.o)
 .text.CacheDataInvalidateAll
                0x00000000       0x14 ../../../../../..//binary/armv7a/gcc/am335x/system_config/Release/libsystem_config.a(cache.o)
 .text.CacheDataCleanInvalidateBuff
                0x00000000       0x14 ../../../../../..//binary/armv7a/gcc/am335x/system_config/Release/libsystem_config.a(cache.o)
 .text          0x00000000        0x0 ../../../../../..//binary/armv7a/gcc/am335x/system_config/Release/libsystem_config.a(clock.o)
 .data          0x00000000        0x0 ../../../../../..//binary/armv7a/gcc/am335x/system_config/Release/libsystem_config.a(clock.o)
 .bss           0x00000000        0x0 ../../../../../..//binary/armv7a/gcc/am335x/system_config/Release/libsystem_config.a(clock.o)
 .text.enableADPLLLowPowerMode
                0x00000000       0x28 ../../../../../..//binary/armv7a/gcc/am335x/system_config/Release/libsystem_config.a(clock.o)
 .text.initClockDomain
                0x00000000       0x34 ../../../../../..//binary/armv7a/gcc/am335x/system_config/Release/libsystem_config.a(clock.o)
 .text.enableModule
                0x00000000       0x38 ../../../../../..//binary/armv7a/gcc/am335x/system_config/Release/libsystem_config.a(clock.o)
 .text.disableModule
                0x00000000       0x28 ../../../../../..//binary/armv7a/gcc/am335x/system_config/Release/libsystem_config.a(clock.o)
 .text.disableClockDomain
                0x00000000       0x54 ../../../../../..//binary/armv7a/gcc/am335x/system_config/Release/libsystem_config.a(clock.o)
 .text.getModuleState
                0x00000000       0x24 ../../../../../..//binary/armv7a/gcc/am335x/system_config/Release/libsystem_config.a(clock.o)
 .text.getGclockGateState
                0x00000000       0x24 ../../../../../..//binary/armv7a/gcc/am335x/system_config/Release/libsystem_config.a(clock.o)
 .text.getADPLLIdleStatus
                0x00000000       0x24 ../../../../../..//binary/armv7a/gcc/am335x/system_config/Release/libsystem_config.a(clock.o)
 .text.getDividerClkGateStatus
                0x00000000       0x28 ../../../../../..//binary/armv7a/gcc/am335x/system_config/Release/libsystem_config.a(clock.o)
 .text.deviceClockDisable
                0x00000000       0x50 ../../../../../..//binary/armv7a/gcc/am335x/system_config/Release/libsystem_config.a(clock.o)
 .text.clkdomainGateStatus
                0x00000000       0x28 ../../../../../..//binary/armv7a/gcc/am335x/system_config/Release/libsystem_config.a(clock.o)
 .text.deviceClockGateStatus
                0x00000000       0x54 ../../../../../..//binary/armv7a/gcc/am335x/system_config/Release/libsystem_config.a(clock.o)
 .text.deviceClockEnable
                0x00000000       0x34 ../../../../../..//binary/armv7a/gcc/am335x/system_config/Release/libsystem_config.a(clock.o)
 .data          0x00000000        0x0 ../../../../../..//binary/armv7a/gcc/am335x/system_config/Release/libsystem_config.a(cp15.o)
 .bss           0x00000000        0x0 ../../../../../..//binary/armv7a/gcc/am335x/system_config/Release/libsystem_config.a(cp15.o)
 .text          0x00000000        0x0 ../../../../../..//binary/armv7a/gcc/am335x/system_config/Release/libsystem_config.a(device.o)
 .data          0x00000000        0x0 ../../../../../..//binary/armv7a/gcc/am335x/system_config/Release/libsystem_config.a(device.o)
 .bss           0x00000000        0x0 ../../../../../..//binary/armv7a/gcc/am335x/system_config/Release/libsystem_config.a(device.o)
 .text.SysConfigOppDataGet
                0x00000000       0x18 ../../../../../..//binary/armv7a/gcc/am335x/system_config/Release/libsystem_config.a(device.o)
 .data          0x00000000        0x0 ../../../../../..//binary/armv7a/gcc/am335x/system_config/Release/libsystem_config.a(init.o)
 .bss           0x00000000        0x0 ../../../../../..//binary/armv7a/gcc/am335x/system_config/Release/libsystem_config.a(init.o)
 .text          0x00000000        0x0 ../../../../../..//binary/armv7a/gcc/am335x/system_config/Release/libsystem_config.a(interrupt.o)
 .data          0x00000000        0x0 ../../../../../..//binary/armv7a/gcc/am335x/system_config/Release/libsystem_config.a(interrupt.o)
 .bss           0x00000000        0x0 ../../../../../..//binary/armv7a/gcc/am335x/system_config/Release/libsystem_config.a(interrupt.o)
 .text.IntUnRegister
                0x00000000       0x18 ../../../../../..//binary/armv7a/gcc/am335x/system_config/Release/libsystem_config.a(interrupt.o)
 .text.IntSystemDisable
                0x00000000       0x24 ../../../../../..//binary/armv7a/gcc/am335x/system_config/Release/libsystem_config.a(interrupt.o)
 .text.IntIfClkFreeRunSet
                0x00000000       0x18 ../../../../../..//binary/armv7a/gcc/am335x/system_config/Release/libsystem_config.a(interrupt.o)
 .text.IntIfClkAutoGateSet
                0x00000000       0x18 ../../../../../..//binary/armv7a/gcc/am335x/system_config/Release/libsystem_config.a(interrupt.o)
 .text.IntActiveIrqNumGet
                0x00000000       0x14 ../../../../../..//binary/armv7a/gcc/am335x/system_config/Release/libsystem_config.a(interrupt.o)
 .text.IntSpurIrqFlagGet
                0x00000000       0x14 ../../../../../..//binary/armv7a/gcc/am335x/system_config/Release/libsystem_config.a(interrupt.o)
 .text.IntProtectionEnable
                0x00000000       0x14 ../../../../../..//binary/armv7a/gcc/am335x/system_config/Release/libsystem_config.a(interrupt.o)
 .text.IntProtectionDisable
                0x00000000       0x18 ../../../../../..//binary/armv7a/gcc/am335x/system_config/Release/libsystem_config.a(interrupt.o)
 .text.IntSyncClkFreeRunSet
                0x00000000       0x18 ../../../../../..//binary/armv7a/gcc/am335x/system_config/Release/libsystem_config.a(interrupt.o)
 .text.IntSyncClkAutoGateSet
                0x00000000       0x18 ../../../../../..//binary/armv7a/gcc/am335x/system_config/Release/libsystem_config.a(interrupt.o)
 .text.IntFuncClkFreeRunSet
                0x00000000       0x18 ../../../../../..//binary/armv7a/gcc/am335x/system_config/Release/libsystem_config.a(interrupt.o)
 .text.IntFuncClkAutoGateSet
                0x00000000       0x18 ../../../../../..//binary/armv7a/gcc/am335x/system_config/Release/libsystem_config.a(interrupt.o)
 .text.IntCurrIrqPriorityGet
                0x00000000       0x14 ../../../../../..//binary/armv7a/gcc/am335x/system_config/Release/libsystem_config.a(interrupt.o)
 .text.IntPriorityThresholdGet
                0x00000000       0x14 ../../../../../..//binary/armv7a/gcc/am335x/system_config/Release/libsystem_config.a(interrupt.o)
 .text.IntPriorityThresholdSet
                0x00000000       0x14 ../../../../../..//binary/armv7a/gcc/am335x/system_config/Release/libsystem_config.a(interrupt.o)
 .text.IntRawStatusGet
                0x00000000       0x24 ../../../../../..//binary/armv7a/gcc/am335x/system_config/Release/libsystem_config.a(interrupt.o)
 .text.IntSoftwareIntSet
                0x00000000       0x20 ../../../../../..//binary/armv7a/gcc/am335x/system_config/Release/libsystem_config.a(interrupt.o)
 .text.IntSoftwareIntClear
                0x00000000       0x20 ../../../../../..//binary/armv7a/gcc/am335x/system_config/Release/libsystem_config.a(interrupt.o)
 .text.IntPendingIrqMaskedStatusGet
                0x00000000       0x24 ../../../../../..//binary/armv7a/gcc/am335x/system_config/Release/libsystem_config.a(interrupt.o)
 .text.IntMasterFIQEnable
                0x00000000       0x14 ../../../../../..//binary/armv7a/gcc/am335x/system_config/Release/libsystem_config.a(interrupt.o)
 .text.IntMasterFIQDisable
                0x00000000       0x14 ../../../../../..//binary/armv7a/gcc/am335x/system_config/Release/libsystem_config.a(interrupt.o)
 .text.IntDisable
                0x00000000       0x28 ../../../../../..//binary/armv7a/gcc/am335x/system_config/Release/libsystem_config.a(interrupt.o)
 .text.IntEnable
                0x00000000       0x1c ../../../../../..//binary/armv7a/gcc/am335x/system_config/Release/libsystem_config.a(interrupt.o)
 .text          0x00000000        0x0 ../../../../../..//binary/armv7a/gcc/am335x/system_config/Release/libsystem_config.a(mmu.o)
 .data          0x00000000        0x0 ../../../../../..//binary/armv7a/gcc/am335x/system_config/Release/libsystem_config.a(mmu.o)
 .bss           0x00000000        0x0 ../../../../../..//binary/armv7a/gcc/am335x/system_config/Release/libsystem_config.a(mmu.o)
 .text          0x00000000        0x0 ../../../../../..//binary/armv7a/gcc/am335x/system_config/Release/libsystem_config.a(startup.o)
 .data          0x00000000        0x0 ../../../../../..//binary/armv7a/gcc/am335x/system_config/Release/libsystem_config.a(startup.o)
 .bss           0x00000000        0x0 ../../../../../..//binary/armv7a/gcc/am335x/system_config/Release/libsystem_config.a(startup.o)
 .rodata.AM335X_VECTOR_BASE
                0x00000000        0x4 ../../../../../..//binary/armv7a/gcc/am335x/system_config/Release/libsystem_config.a(startup.o)
 .text          0x00000000        0x0 ../../../../../..//binary/armv7a/gcc/am335x/system_config/Release/libsystem_config.a(cpu.o)
 .data          0x00000000        0x0 ../../../../../..//binary/armv7a/gcc/am335x/system_config/Release/libsystem_config.a(cpu.o)
 .bss           0x00000000        0x0 ../../../../../..//binary/armv7a/gcc/am335x/system_config/Release/libsystem_config.a(cpu.o)
 .text.CPUSwitchToPrivilegedMode
                0x00000000        0x8 ../../../../../..//binary/armv7a/gcc/am335x/system_config/Release/libsystem_config.a(cpu.o)
 .text.CPUSwitchToUserMode
                0x00000000       0x14 ../../../../../..//binary/armv7a/gcc/am335x/system_config/Release/libsystem_config.a(cpu.o)
 .text.CPUAbortHandler
                0x00000000        0x4 ../../../../../..//binary/armv7a/gcc/am335x/system_config/Release/libsystem_config.a(cpu.o)
 .text.CPUfiqd  0x00000000       0x14 ../../../../../..//binary/armv7a/gcc/am335x/system_config/Release/libsystem_config.a(cpu.o)
 .text.CPUfiqe  0x00000000       0x14 ../../../../../..//binary/armv7a/gcc/am335x/system_config/Release/libsystem_config.a(cpu.o)
 .data          0x00000000        0x0 ../../../../../..//binary/armv7a/gcc/am335x/system_config/Release/libsystem_config.a(exceptionhandler.o)
 .bss           0x00000000        0x0 ../../../../../..//binary/armv7a/gcc/am335x/system_config/Release/libsystem_config.a(exceptionhandler.o)
 .text          0x00000000        0x0 /home/abby/opt/gcc-arm-none-eabi-4_7-2012q4//arm-none-eabi/lib//libc.a(lib_a-memcmp.o)
 .data          0x00000000        0x0 /home/abby/opt/gcc-arm-none-eabi-4_7-2012q4//arm-none-eabi/lib//libc.a(lib_a-memcmp.o)
 .bss           0x00000000        0x0 /home/abby/opt/gcc-arm-none-eabi-4_7-2012q4//arm-none-eabi/lib//libc.a(lib_a-memcmp.o)
 .text          0x00000000        0x0 /home/abby/opt/gcc-arm-none-eabi-4_7-2012q4//arm-none-eabi/lib//libc.a(lib_a-memcpy.o)
 .data          0x00000000        0x0 /home/abby/opt/gcc-arm-none-eabi-4_7-2012q4//arm-none-eabi/lib//libc.a(lib_a-memcpy.o)
 .bss           0x00000000        0x0 /home/abby/opt/gcc-arm-none-eabi-4_7-2012q4//arm-none-eabi/lib//libc.a(lib_a-memcpy.o)
 .text          0x00000000        0x0 /home/abby/opt/gcc-arm-none-eabi-4_7-2012q4//arm-none-eabi/lib//libc.a(lib_a-memset.o)
 .data          0x00000000        0x0 /home/abby/opt/gcc-arm-none-eabi-4_7-2012q4//arm-none-eabi/lib//libc.a(lib_a-memset.o)
 .bss           0x00000000        0x0 /home/abby/opt/gcc-arm-none-eabi-4_7-2012q4//arm-none-eabi/lib//libc.a(lib_a-memset.o)
 .text          0x00000000        0x0 /home/abby/opt/gcc-arm-none-eabi-4_7-2012q4//arm-none-eabi/lib//libc.a(lib_a-stpcpy.o)
 .data          0x00000000        0x0 /home/abby/opt/gcc-arm-none-eabi-4_7-2012q4//arm-none-eabi/lib//libc.a(lib_a-stpcpy.o)
 .bss           0x00000000        0x0 /home/abby/opt/gcc-arm-none-eabi-4_7-2012q4//arm-none-eabi/lib//libc.a(lib_a-stpcpy.o)
 .text          0x00000000        0x0 /home/abby/opt/gcc-arm-none-eabi-4_7-2012q4//arm-none-eabi/lib//libc.a(lib_a-strcat.o)
 .data          0x00000000        0x0 /home/abby/opt/gcc-arm-none-eabi-4_7-2012q4//arm-none-eabi/lib//libc.a(lib_a-strcat.o)
 .bss           0x00000000        0x0 /home/abby/opt/gcc-arm-none-eabi-4_7-2012q4//arm-none-eabi/lib//libc.a(lib_a-strcat.o)
 .text          0x00000000        0x0 /home/abby/opt/gcc-arm-none-eabi-4_7-2012q4//arm-none-eabi/lib//libc.a(lib_a-strchr.o)
 .data          0x00000000        0x0 /home/abby/opt/gcc-arm-none-eabi-4_7-2012q4//arm-none-eabi/lib//libc.a(lib_a-strchr.o)
 .bss           0x00000000        0x0 /home/abby/opt/gcc-arm-none-eabi-4_7-2012q4//arm-none-eabi/lib//libc.a(lib_a-strchr.o)
 .text          0x00000000        0x0 /home/abby/opt/gcc-arm-none-eabi-4_7-2012q4//arm-none-eabi/lib//libc.a(lib_a-strcmp.o)
 .data          0x00000000        0x0 /home/abby/opt/gcc-arm-none-eabi-4_7-2012q4//arm-none-eabi/lib//libc.a(lib_a-strcmp.o)
 .bss           0x00000000        0x0 /home/abby/opt/gcc-arm-none-eabi-4_7-2012q4//arm-none-eabi/lib//libc.a(lib_a-strcmp.o)
 .text          0x00000000        0x0 /home/abby/opt/gcc-arm-none-eabi-4_7-2012q4//arm-none-eabi/lib//libc.a(lib_a-strcpy.o)
 .data          0x00000000        0x0 /home/abby/opt/gcc-arm-none-eabi-4_7-2012q4//arm-none-eabi/lib//libc.a(lib_a-strcpy.o)
 .bss           0x00000000        0x0 /home/abby/opt/gcc-arm-none-eabi-4_7-2012q4//arm-none-eabi/lib//libc.a(lib_a-strcpy.o)
 .text          0x00000000        0x0 /home/abby/opt/gcc-arm-none-eabi-4_7-2012q4//arm-none-eabi/lib//libc.a(lib_a-strlen.o)
 .data          0x00000000        0x0 /home/abby/opt/gcc-arm-none-eabi-4_7-2012q4//arm-none-eabi/lib//libc.a(lib_a-strlen.o)
 .bss           0x00000000        0x0 /home/abby/opt/gcc-arm-none-eabi-4_7-2012q4//arm-none-eabi/lib//libc.a(lib_a-strlen.o)
 .text          0x00000000        0x0 /home/abby/opt/gcc-arm-none-eabi-4_7-2012q4//arm-none-eabi/lib//libc.a(lib_a-strncmp.o)
 .data          0x00000000        0x0 /home/abby/opt/gcc-arm-none-eabi-4_7-2012q4//arm-none-eabi/lib//libc.a(lib_a-strncmp.o)
 .bss           0x00000000        0x0 /home/abby/opt/gcc-arm-none-eabi-4_7-2012q4//arm-none-eabi/lib//libc.a(lib_a-strncmp.o)
 .text          0x00000000        0x0 /home/abby/opt/gcc-arm-none-eabi-4_7-2012q4//arm-none-eabi/lib//libc.a(lib_a-strncpy.o)
 .data          0x00000000        0x0 /home/abby/opt/gcc-arm-none-eabi-4_7-2012q4//arm-none-eabi/lib//libc.a(lib_a-strncpy.o)
 .bss           0x00000000        0x0 /home/abby/opt/gcc-arm-none-eabi-4_7-2012q4//arm-none-eabi/lib//libc.a(lib_a-strncpy.o)
 .data          0x00000000        0x0 /home/abby/opt/gcc-arm-none-eabi-4_7-2012q4//lib/gcc/arm-none-eabi/4.7.3//libgcc.a(_udivsi3.o)
 .bss           0x00000000        0x0 /home/abby/opt/gcc-arm-none-eabi-4_7-2012q4//lib/gcc/arm-none-eabi/4.7.3//libgcc.a(_udivsi3.o)
 .data          0x00000000        0x0 /home/abby/opt/gcc-arm-none-eabi-4_7-2012q4//lib/gcc/arm-none-eabi/4.7.3//libgcc.a(_divsi3.o)
 .bss           0x00000000        0x0 /home/abby/opt/gcc-arm-none-eabi-4_7-2012q4//lib/gcc/arm-none-eabi/4.7.3//libgcc.a(_divsi3.o)
 .data          0x00000000        0x0 /home/abby/opt/gcc-arm-none-eabi-4_7-2012q4//lib/gcc/arm-none-eabi/4.7.3//libgcc.a(_dvmd_tls.o)
 .bss           0x00000000        0x0 /home/abby/opt/gcc-arm-none-eabi-4_7-2012q4//lib/gcc/arm-none-eabi/4.7.3//libgcc.a(_dvmd_tls.o)

Memory Configuration

Name             Origin             Length             Attributes
OCMC             0x40300000         0x0000ffff
DDR0             0x80000000         0x10000000
*default*        0x00000000         0xffffffff

Linker script and memory map

LOAD Release/am335x_clock_data.o
LOAD Release/cm3wkup_proxy.o
LOAD Release/demoDvfs.o
LOAD Release/demoEnet.o
LOAD Release/demoGpio.o
LOAD Release/demoI2c.o
LOAD Release/demoLedIf.o
LOAD Release/demoMain.o
LOAD Release/demoPwrMgmnt.o
LOAD Release/demoRtc.o
LOAD Release/demoSdFs.o
LOAD Release/demoSdRw.o
LOAD Release/demoTimer.o
LOAD Release/demoUart.o
LOAD Release/fat_mmcsd.o
LOAD Release/ff.o
LOAD Release/httpd_io.o
LOAD Release/lwiplib.o
LOAD Release/pmic.o
LOAD Release/slpWkup_gcc.o
LOAD ../../../../../..//binary/armv7a/gcc/am335x/drivers/Release/libdrivers.a
LOAD ../../../../../..//binary/armv7a/gcc/utils/Release/libutils.a
LOAD ../../../../../..//binary/armv7a/gcc/am335x/beaglebone/platform/Release/libplatform.a
LOAD ../../../../../..//binary/armv7a/gcc/mmcsdlib/Release/libmmcsd.a
LOAD ../../../../../..//binary/armv7a/gcc/am335x/system_config/Release/libsystem_config.a
LOAD /home/abby/opt/gcc-arm-none-eabi-4_7-2012q4//arm-none-eabi/lib//libc.a
LOAD /home/abby/opt/gcc-arm-none-eabi-4_7-2012q4//lib/gcc/arm-none-eabi/4.7.3//libgcc.a
LOAD ../../../../../..//binary/armv7a/gcc/am335x/drivers/Release/libdrivers.a
LOAD ../../../../../..//binary/armv7a/gcc/utils/Release/libutils.a
LOAD ../../../../../..//binary/armv7a/gcc/am335x/beaglebone/platform/Release/libplatform.a
LOAD ../../../../../..//binary/armv7a/gcc/mmcsdlib/Release/libmmcsd.a
LOAD ../../../../../..//binary/armv7a/gcc/am335x/system_config/Release/libsystem_config.a
LOAD /home/abby/opt/gcc-arm-none-eabi-4_7-2012q4//arm-none-eabi/lib//libc.a
LOAD /home/abby/opt/gcc-arm-none-eabi-4_7-2012q4//lib/gcc/arm-none-eabi/4.7.3//libgcc.a

.startcode      0x80000000       0xb4
                0x80000000                . = ALIGN (0x4)
 *init.o(.text)
 .text          0x80000000       0xb4 ../../../../../..//binary/armv7a/gcc/am335x/system_config/Release/libsystem_config.a(init.o)
                0x80000000                Entry

.text           0x800000b4    0x3ac54
                0x800000b4                . = ALIGN (0x4)
 *(.text*)
 .text.CM3Isr   0x800000b4       0x34 Release/cm3wkup_proxy.o
 .text.configIPCRegs
                0x800000e8       0x4c Release/cm3wkup_proxy.o
                0x800000e8                configIPCRegs
 .text.readCmdStatus
                0x80000134       0x14 Release/cm3wkup_proxy.o
                0x80000134                readCmdStatus
 .text.readCM3FWVersion
                0x80000148       0x14 Release/cm3wkup_proxy.o
                0x80000148                readCM3FWVersion
 .text.CM3EventsClear
                0x8000015c       0x24 Release/cm3wkup_proxy.o
                0x8000015c                CM3EventsClear
 .text.CM3IntRegister
                0x80000180       0x20 Release/cm3wkup_proxy.o
                0x80000180                CM3IntRegister
 .text.CM3LoadAndRun
                0x800001a0       0x3c Release/cm3wkup_proxy.o
                0x800001a0                CM3LoadAndRun
 .text.waitForM3Txevent
                0x800001dc       0xb8 Release/cm3wkup_proxy.o
                0x800001dc                waitForM3Txevent
 .text.initializeMailbox
                0x80000294       0x74 Release/cm3wkup_proxy.o
                0x80000294                initializeMailbox
 .text.MailBoxInit
                0x80000308       0x1c Release/cm3wkup_proxy.o
                0x80000308                MailBoxInit
 .text.generateMailboxInt
                0x80000324       0x20 Release/cm3wkup_proxy.o
                0x80000324                generateMailboxInt
 .text.clearMailboxMsg
                0x80000344       0x48 Release/cm3wkup_proxy.o
                0x80000344                clearMailboxMsg
 .text.syncCm3  0x8000038c       0x34 Release/cm3wkup_proxy.o
                0x8000038c                syncCm3
 .text.VddVoltageGet
                0x800003c0       0x74 Release/demoDvfs.o
                0x800003c0                VddVoltageGet
 .text.FrequencyGet
                0x80000434       0x8c Release/demoDvfs.o
                0x80000434                FrequencyGet
 .text.DemoMpuPllConfig
                0x800004c0       0xd0 Release/demoDvfs.o
                0x800004c0                DemoMpuPllConfig
 .text.ConfigMaximumOPP
                0x80000590       0x50 Release/demoDvfs.o
                0x80000590                ConfigMaximumOPP
 .text.ConfigMinimumOPP
                0x800005e0       0x50 Release/demoDvfs.o
                0x800005e0                ConfigMinimumOPP
 .text.PrintConfigDVFS
                0x80000630       0xe0 Release/demoDvfs.o
                0x80000630                PrintConfigDVFS
 .text.ControlCGIHandler
                0x80000710      0x114 Release/demoEnet.o
 .text.CPSWCore0TxIsr
                0x80000824       0x18 Release/demoEnet.o
 .text.CPSWCore0RxIsr
                0x8000083c       0x18 Release/demoEnet.o
 .text.EnetIntRegister
                0x80000854       0x58 Release/demoEnet.o
                0x80000854                EnetIntRegister
 .text.EnetIfIsUp
                0x800008ac       0x1c Release/demoEnet.o
                0x800008ac                EnetIfIsUp
 .text.EnetLinkIsUp
                0x800008c8       0x1c Release/demoEnet.o
                0x800008c8                EnetLinkIsUp
 .text.IpAddrDisplay
                0x800008e4       0x44 Release/demoEnet.o
                0x800008e4                IpAddrDisplay
 .text.EnetHttpServerInit
                0x80000928       0xe0 Release/demoEnet.o
                0x80000928                EnetHttpServerInit
 .text.EnetDHCPRestart
                0x80000a08       0xc8 Release/demoEnet.o
                0x80000a08                EnetDHCPRestart
 .text.EnetContextSave
                0x80000ad0       0xa8 Release/demoEnet.o
                0x80000ad0                EnetContextSave
 .text.EnetReset
                0x80000b78       0x64 Release/demoEnet.o
                0x80000b78                EnetReset
 .text._DemoGpioPinConfig
                0x80000bdc      0x120 Release/demoGpio.o
                0x80000bdc                _DemoGpioPinConfig
 .text.gpioStdbyUartIsr
                0x80000cfc       0x24 Release/demoGpio.o
                0x80000cfc                gpioStdbyUartIsr
 .text.DemoGpioPinStandbySrcConfig
                0x80000d20       0x94 Release/demoGpio.o
                0x80000d20                DemoGpioPinStandbySrcConfig
 .text.I2C0Isr  0x80000db4      0x1b8 Release/demoI2c.o
                0x80000db4                I2C0Isr
 .text.getI2CAddr
                0x80000f6c       0x40 Release/demoI2c.o
                0x80000f6c                getI2CAddr
 .text.cleanupInterrupts
                0x80000fac       0x50 Release/demoI2c.o
                0x80000fac                cleanupInterrupts
 .text.I2CInit  0x80000ffc       0xac Release/demoI2c.o
                0x80000ffc                I2CInit
 .text.I2CIntRegister
                0x800010a8       0x28 Release/demoI2c.o
                0x800010a8                I2CIntRegister
 .text.SetupI2CTransmit
                0x800010d0      0x100 Release/demoI2c.o
                0x800010d0                SetupI2CTransmit
 .text.SetupReception
                0x800011d0      0x174 Release/demoI2c.o
                0x800011d0                SetupReception
 .text.LedIfConfig
                0x80001344       0x48 Release/demoLedIf.o
                0x80001344                LedIfConfig
 .text.LedToggle
                0x8000138c       0x34 Release/demoLedIf.o
                0x8000138c                LedToggle
 .text.LedOff   0x800013c0       0x24 Release/demoLedIf.o
                0x800013c0                LedOff
 .text.LedOn    0x800013e4       0x24 Release/demoLedIf.o
                0x800013e4                LedOn
 .text.dummyIsr
                0x80001408        0x4 Release/demoMain.o
 .text.gpioIsr  0x8000140c       0x18 Release/demoMain.o
 .text.uartIsr  0x80001424       0x44 Release/demoMain.o
 .text.UpdateUartConsoleHelp
                0x80001468       0x7c Release/demoMain.o
                0x80001468                UpdateUartConsoleHelp
 .text.ActionWakeOnUart
                0x800014e4       0x38 Release/demoMain.o
 .text.ActionWakeOnTimer
                0x8000151c       0x38 Release/demoMain.o
 .text.ActionStandBy
                0x80001554       0x50 Release/demoMain.o
 .text.ActionDeepSleep1
                0x800015a4       0x50 Release/demoMain.o
 .text.ActionDeepSleep0
                0x800015f4       0x50 Release/demoMain.o
 .text.ActionMMCSD
                0x80001644       0xb8 Release/demoMain.o
 .text.ActionRTC
                0x800016fc       0x30 Release/demoMain.o
 .text.ActionEnetInit
                0x8000172c      0x114 Release/demoMain.o
 .text.ActionMenu
                0x80001840       0x78 Release/demoMain.o
 .text.ActionMenuPM
                0x800018b8       0x74 Release/demoMain.o
 .text.ActionMenuMMCSD
                0x8000192c       0x64 Release/demoMain.o
 .text.ActionMenuTimer
                0x80001990       0x74 Release/demoMain.o
 .text.ActionMenuGPIO
                0x80001a04       0x70 Release/demoMain.o
 .text.ActionMenuRTC
                0x80001a74       0x64 Release/demoMain.o
 .text.ActionMenuWeb
                0x80001ad8       0x7c Release/demoMain.o
 .text.startup.main
                0x80001b54      0x8a8 Release/demoMain.o
                0x80001b54                main
 .text.ConfigIdleMode
                0x800023fc      0x174 Release/demoPwrMgmnt.o
                0x800023fc                ConfigIdleMode
 .text.enableStandbyWakeSrc
                0x80002570      0x144 Release/demoPwrMgmnt.o
                0x80002570                enableStandbyWakeSrc
 .text.disableStandbyWakeSrc
                0x800026b4       0x90 Release/demoPwrMgmnt.o
                0x800026b4                disableStandbyWakeSrc
 .text.enableWakeSource
                0x80002744       0x98 Release/demoPwrMgmnt.o
                0x80002744                enableWakeSource
 .text.disableWakeSource
                0x800027dc       0x80 Release/demoPwrMgmnt.o
                0x800027dc                disableWakeSource
 .text.PowerSaveModeEnter
                0x8000285c      0x6a8 Release/demoPwrMgmnt.o
                0x8000285c                PowerSaveModeEnter
 .text.RTCIsr   0x80002f04       0x14 Release/demoRtc.o
 .text.RtcIntRegister
                0x80002f18       0x20 Release/demoRtc.o
                0x80002f18                RtcIntRegister
 .text.RtcSecIntEnable
                0x80002f38       0x20 Release/demoRtc.o
                0x80002f38                RtcSecIntEnable
 .text.RtcInit  0x80002f58       0x58 Release/demoRtc.o
                0x80002f58                RtcInit
 .text.RtcTimeCalSet
                0x80002fb0      0x2c0 Release/demoRtc.o
                0x80002fb0                RtcTimeCalSet
 .text.RtcTimeCalDisplay
                0x80003270      0x138 Release/demoRtc.o
                0x80003270                RtcTimeCalDisplay
 .text.Cmd_exit
                0x800033a8        0x8 Release/demoSdFs.o
                0x800033a8                Cmd_exit
 .text.Cmd_help
                0x800033b0       0x5c Release/demoSdFs.o
                0x800033b0                Cmd_help
 .text.Cmd_pwd  0x8000340c       0x28 Release/demoSdFs.o
                0x8000340c                Cmd_pwd
 .text.Cmd_cd   0x80003434      0x1a0 Release/demoSdFs.o
                0x80003434                Cmd_cd
 .text.Cmd_cat  0x800035d4      0x15c Release/demoSdFs.o
                0x800035d4                Cmd_cat
 .text.Cmd_ls   0x80003730      0x1d4 Release/demoSdFs.o
                0x80003730                Cmd_ls
 .text.ReadLine
                0x80003904      0x24c Release/demoSdFs.o
                0x80003904                ReadLine
 .text.HSMMCSDFsMount
                0x80003b50       0x74 Release/demoSdFs.o
                0x80003b50                HSMMCSDFsMount
 .text.HSMMCSDFsProcessCmdLine
                0x80003bc4      0x130 Release/demoSdFs.o
                0x80003bc4                HSMMCSDFsProcessCmdLine
 .text.HSMMCSDCmdStatusGet
                0x80003cf4       0x5c Release/demoSdRw.o
 .text.HSMMCSDXferStatusGet
                0x80003d50       0xa4 Release/demoSdRw.o
 .text.Edma3CCErrorIsr
                0x80003df4      0x138 Release/demoSdRw.o
 .text.callback
                0x80003f2c       0x30 Release/demoSdRw.o
 .text.HSMMCSDXferSetup
                0x80003f5c      0x16c Release/demoSdRw.o
 .text.HSMMCSDIsr
                0x800040c8       0xd0 Release/demoSdRw.o
 .text.Edma3CompletionIsr
                0x80004198       0xbc Release/demoSdRw.o
 .text.HSMMCSDIntRegister
                0x80004254       0x40 Release/demoSdRw.o
                0x80004254                HSMMCSDIntRegister
 .text.HSMMCSDContolInit
                0x80004294      0x184 Release/demoSdRw.o
                0x80004294                HSMMCSDContolInit
 .text.HSMMCSDCardPresentStat
                0x80004418       0x24 Release/demoSdRw.o
                0x80004418                HSMMCSDCardPresentStat
 .text.HSMMCSDCardAccessSetup
                0x8000443c       0x54 Release/demoSdRw.o
                0x8000443c                HSMMCSDCardAccessSetup
 .text.Timer6Isr
                0x80004490       0x34 Release/demoTimer.o
 .text.Timer4Isr
                0x800044c4       0x30 Release/demoTimer.o
 .text.Timer2Isr
                0x800044f4       0xa8 Release/demoTimer.o
 .text.Timer2IntRegister
                0x8000459c       0x20 Release/demoTimer.o
                0x8000459c                Timer2IntRegister
 .text.Timer2IntEnable
                0x800045bc       0x20 Release/demoTimer.o
                0x800045bc                Timer2IntEnable
 .text.Timer2Start
                0x800045dc       0x1c Release/demoTimer.o
                0x800045dc                Timer2Start
 .text.Timer2Stop
                0x800045f8       0x1c Release/demoTimer.o
                0x800045f8                Timer2Stop
 .text.Timer2Config
                0x80004614       0x58 Release/demoTimer.o
                0x80004614                Timer2Config
 .text.Timer4IntRegister
                0x8000466c       0x48 Release/demoTimer.o
                0x8000466c                Timer4IntRegister
 .text.Timer4IntEnable
                0x800046b4       0x20 Release/demoTimer.o
                0x800046b4                Timer4IntEnable
 .text.Timer4Start
                0x800046d4       0x1c Release/demoTimer.o
                0x800046d4                Timer4Start
 .text.Timer4Stop
                0x800046f0       0x1c Release/demoTimer.o
                0x800046f0                Timer4Stop
 .text.Timer4Config
                0x8000470c       0x58 Release/demoTimer.o
                0x8000470c                Timer4Config
 .text.Timer6IntRegister
                0x80004764       0x48 Release/demoTimer.o
                0x80004764                Timer6IntRegister
 .text.Timer6IntEnable
                0x800047ac       0x20 Release/demoTimer.o
                0x800047ac                Timer6IntEnable
 .text.Timer6Start
                0x800047cc       0x1c Release/demoTimer.o
                0x800047cc                Timer6Start
 .text.Timer6Stop
                0x800047e8       0x1c Release/demoTimer.o
                0x800047e8                Timer6Stop
 .text.Timer6Config
                0x80004804       0x6c Release/demoTimer.o
                0x80004804                Timer6Config
 .text.initializeTimer1
                0x80004870       0x34 Release/demoTimer.o
                0x80004870                initializeTimer1
 .text.setTimerCount
                0x800048a4       0x18 Release/demoTimer.o
                0x800048a4                setTimerCount
 .text.clearTimerInt
                0x800048bc       0x14 Release/demoTimer.o
                0x800048bc                clearTimerInt
 .text.enableUartWakeup
                0x800048d0       0x4c Release/demoUart.o
                0x800048d0                enableUartWakeup
 .text.disableUartWakeup
                0x8000491c       0x4c Release/demoUart.o
                0x8000491c                disableUartWakeup
 .text.disk_initialize
                0x80004968       0xb4 Release/fat_mmcsd.o
                0x80004968                disk_initialize
 .text.disk_status
                0x80004a1c        0x8 Release/fat_mmcsd.o
                0x80004a1c                disk_status
 .text.disk_read
                0x80004a24       0x3c Release/fat_mmcsd.o
                0x80004a24                disk_read
 .text.disk_write
                0x80004a60       0x3c Release/fat_mmcsd.o
                0x80004a60                disk_write
 .text.disk_ioctl
                0x80004a9c        0x8 Release/fat_mmcsd.o
                0x80004a9c                disk_ioctl
 .text.get_fattime
                0x80004aa4        0xc Release/fat_mmcsd.o
                0x80004aa4                get_fattime
 .text.get_fileinfo
                0x80004ab0      0x114 Release/ff.o
 .text.move_window
                0x80004bc4       0xec Release/ff.o
 .text.put_cluster
                0x80004cb0      0x154 Release/ff.o
 .text.validate
                0x80004e04       0x38 Release/ff.o
 .text.check_fs
                0x80004e3c       0xa0 Release/ff.o
 .text.auto_mount
                0x80004edc      0x30c Release/ff.o
 .text.get_cluster
                0x800051e8      0x134 Release/ff.o
 .text.next_dir_entry
                0x8000531c       0xb0 Release/ff.o
 .text.trace_path
                0x800053cc      0x330 Release/ff.o
 .text.create_chain
                0x800056fc      0x100 Release/ff.o
 .text.reserve_direntry
                0x800057fc      0x1b0 Release/ff.o
 .text.remove_chain
                0x800059ac       0x9c Release/ff.o
 .text.sync     0x80005a48       0x58 Release/ff.o
 .text.f_mount  0x80005aa0       0x6c Release/ff.o
                0x80005aa0                f_mount
 .text.f_open   0x80005b0c      0x304 Release/ff.o
                0x80005b0c                f_open
 .text.f_read   0x80005e10      0x284 Release/ff.o
                0x80005e10                f_read
 .text.f_sync   0x80006094      0x148 Release/ff.o
                0x80006094                f_sync
 .text.f_close  0x800061dc       0x20 Release/ff.o
                0x800061dc                f_close
 .text.f_opendir
                0x800061fc       0xf4 Release/ff.o
                0x800061fc                f_opendir
 .text.f_readdir
                0x800062f0       0xdc Release/ff.o
                0x800062f0                f_readdir
 .text.f_getfree
                0x800063cc      0x174 Release/ff.o
                0x800063cc                f_getfree
 .text.http_accept
                0x80006540       0xd0 Release/httpd_io.o
 .text.http_state_free
                0x80006610       0x64 Release/httpd_io.o
 .text.http_err
                0x80006674       0x1c Release/httpd_io.o
 .text.strnstr  0x80006690       0xac Release/httpd_io.o
 .text.http_close_conn
                0x8000673c       0xb0 Release/httpd_io.o
 .text.http_send_data
                0x800067ec      0x17c Release/httpd_io.o
 .text.http_sent
                0x80006968       0x30 Release/httpd_io.o
 .text.http_poll
                0x80006998       0x8c Release/httpd_io.o
 .text.fs_open  0x80006a24       0xdc Release/httpd_io.o
                0x80006a24                fs_open
 .text.http_get_404_file
                0x80006b00       0x68 Release/httpd_io.o
 .text.http_recv
                0x80006b68      0x49c Release/httpd_io.o
 .text.httpd_init
                0x80007004       0x84 Release/httpd_io.o
                0x80007004                httpd_init
 .text.http_set_cgi_handlers
                0x80007088       0x1c Release/httpd_io.o
                0x80007088                http_set_cgi_handlers
 .text.dhcp_option_long
                0x800070a4       0x60 Release/lwiplib.o
 .text.dhcp_option_trailer
                0x80007104       0x5c Release/lwiplib.o
 .text.tcp_accept_null
                0x80007160        0x8 Release/lwiplib.o
 .text.tcp_new_port
                0x80007168       0x70 Release/lwiplib.o
 .text.tcp_parseopt
                0x800071d8       0xd8 Release/lwiplib.o
 .text.lwip_standard_chksum
                0x800072b0       0xb8 Release/lwiplib.o
 .text.cpswif_ale_entry_match_free
                0x80007368       0x5c Release/lwiplib.o
 .text.etharp_send_ip
                0x800073c4       0x44 Release/lwiplib.o
 .text.mem_init
                0x80007408       0x70 Release/lwiplib.o
                0x80007408                mem_init
 .text.mem_malloc
                0x80007478      0x1a8 Release/lwiplib.o
                0x80007478                mem_malloc
 .text.memp_init
                0x80007620       0xd4 Release/lwiplib.o
                0x80007620                memp_init
 .text.lwip_init
                0x800076f4       0x20 Release/lwiplib.o
                0x800076f4                lwip_init
 .text.pbuf_header
                0x80007714       0xbc Release/lwiplib.o
                0x80007714                pbuf_header
 .text.pbuf_cat
                0x800077d0       0x68 Release/lwiplib.o
                0x800077d0                pbuf_cat
 .text.pbuf_copy
                0x80007838      0x124 Release/lwiplib.o
                0x80007838                pbuf_copy
 .text.pbuf_copy_partial
                0x8000795c       0xc4 Release/lwiplib.o
                0x8000795c                pbuf_copy_partial
 .text.raw_input
                0x80007a20       0xc4 Release/lwiplib.o
                0x80007a20                raw_input
 .text.tcp_bind
                0x80007ae4       0xe8 Release/lwiplib.o
                0x80007ae4                tcp_bind
 .text.tcp_update_rcv_ann_wnd
                0x80007bcc       0x5c Release/lwiplib.o
                0x80007bcc                tcp_update_rcv_ann_wnd
 .text.tcp_setprio
                0x80007c28        0x8 Release/lwiplib.o
                0x80007c28                tcp_setprio
 .text.tcp_arg  0x80007c30        0x8 Release/lwiplib.o
                0x80007c30                tcp_arg
 .text.tcp_recv
                0x80007c38        0x8 Release/lwiplib.o
                0x80007c38                tcp_recv
 .text.tcp_sent
                0x80007c40        0x8 Release/lwiplib.o
                0x80007c40                tcp_sent
 .text.tcp_err  0x80007c48        0x8 Release/lwiplib.o
                0x80007c48                tcp_err
 .text.tcp_accept
                0x80007c50        0x8 Release/lwiplib.o
                0x80007c50                tcp_accept
 .text.tcp_poll
                0x80007c58        0xc Release/lwiplib.o
                0x80007c58                tcp_poll
 .text.tcp_rexmit
                0x80007c64       0x84 Release/lwiplib.o
                0x80007c64                tcp_rexmit
 .text.tcp_rexmit_fast
                0x80007ce8       0x7c Release/lwiplib.o
                0x80007ce8                tcp_rexmit_fast
 .text.udp_bind
                0x80007d64       0xfc Release/lwiplib.o
                0x80007d64                udp_bind
 .text.udp_connect
                0x80007e60       0xb4 Release/lwiplib.o
                0x80007e60                udp_connect
 .text.inet_chksum_pseudo
                0x80007f14       0xd0 Release/lwiplib.o
                0x80007f14                inet_chksum_pseudo
 .text.inet_chksum
                0x80007fe4       0x1c Release/lwiplib.o
                0x80007fe4                inet_chksum
 .text.inet_chksum_pbuf
                0x80008000       0x88 Release/lwiplib.o
                0x80008000                inet_chksum_pbuf
 .text.ip_route
                0x80008088       0x7c Release/lwiplib.o
                0x80008088                ip_route
 .text.tcp_eff_send_mss
                0x80008104       0x44 Release/lwiplib.o
                0x80008104                tcp_eff_send_mss
 .text.ip_output_if
                0x80008148      0x170 Release/lwiplib.o
                0x80008148                ip_output_if
 .text.ip_output
                0x800082b8       0x88 Release/lwiplib.o
                0x800082b8                ip_output
 .text.ip4_addr_isbroadcast
                0x80008340       0x6c Release/lwiplib.o
                0x80008340                ip4_addr_isbroadcast
 .text.sys_arch_protect
                0x800083ac       0x28 Release/lwiplib.o
                0x800083ac                sys_arch_protect
 .text.sys_arch_unprotect
                0x800083d4       0x1c Release/lwiplib.o
                0x800083d4                sys_arch_unprotect
 .text.pbuf_ref
                0x800083f0       0x34 Release/lwiplib.o
                0x800083f0                pbuf_ref
 .text.pbuf_chain
                0x80008424       0x28 Release/lwiplib.o
                0x80008424                pbuf_chain
 .text.cpswif_output
                0x8000844c      0x1c0 Release/lwiplib.o
 .text.memp_free
                0x8000860c       0x5c Release/lwiplib.o
                0x8000860c                memp_free
 .text.udp_remove
                0x80008668       0x74 Release/lwiplib.o
                0x80008668                udp_remove
 .text.dhcp_stop
                0x800086dc       0x60 Release/lwiplib.o
                0x800086dc                dhcp_stop
 .text.memp_malloc
                0x8000873c       0x94 Release/lwiplib.o
                0x8000873c                memp_malloc
 .text.udp_new  0x800087d0       0x40 Release/lwiplib.o
                0x800087d0                udp_new
 .text.tcp_seg_copy
                0x80008810       0x58 Release/lwiplib.o
                0x80008810                tcp_seg_copy
 .text.tcp_listen_with_backlog
                0x80008868      0x148 Release/lwiplib.o
                0x80008868                tcp_listen_with_backlog
 .text.mem_trim
                0x800089b0      0x184 Release/lwiplib.o
                0x800089b0                mem_trim
 .text.mem_free
                0x80008b34      0x134 Release/lwiplib.o
                0x80008b34                mem_free
 .text.pbuf_free
                0x80008c68       0xc0 Release/lwiplib.o
                0x80008c68                pbuf_free
 .text.find_entry
                0x80008d28      0x1c4 Release/lwiplib.o
 .text.tcp_seg_free
                0x80008eec       0x3c Release/lwiplib.o
                0x80008eec                tcp_seg_free
 .text.tcp_segs_free
                0x80008f28       0x28 Release/lwiplib.o
                0x80008f28                tcp_segs_free
 .text.tcp_create_segment
                0x80008f50      0x128 Release/lwiplib.o
 .text.tcp_pcb_purge
                0x80009078       0x80 Release/lwiplib.o
                0x80009078                tcp_pcb_purge
 .text.pbuf_realloc
                0x800090f8       0xc0 Release/lwiplib.o
                0x800090f8                pbuf_realloc
 .text.tcp_oos_insert_segment
                0x800091b8      0x104 Release/lwiplib.o
 .text.pbuf_alloc
                0x800092bc      0x1ec Release/lwiplib.o
                0x800092bc                pbuf_alloc
 .text.cpswif_rxbd_alloc
                0x800094a8      0x124 Release/lwiplib.o
 .text.cpswif_init
                0x800095cc      0x800 Release/lwiplib.o
                0x800095cc                cpswif_init
 .text.tcp_enqueue_flags
                0x80009dcc      0x19c Release/lwiplib.o
                0x80009dcc                tcp_enqueue_flags
 .text.tcp_send_fin
                0x80009f68       0x64 Release/lwiplib.o
                0x80009f68                tcp_send_fin
 .text.tcp_pbuf_prealloc
                0x80009fcc       0xb8 Release/lwiplib.o
 .text.dhcp_create_msg
                0x8000a084      0x254 Release/lwiplib.o
 .text.tcp_output_alloc_header.constprop.15
                0x8000a2d8       0xa4 Release/lwiplib.o
 .text.icmp_input
                0x8000a37c      0x2e4 Release/lwiplib.o
                0x8000a37c                icmp_input
 .text.udp_sendto_if
                0x8000a660      0x1d4 Release/lwiplib.o
                0x8000a660                udp_sendto_if
 .text.tcp_send_empty_ack
                0x8000a834       0xb4 Release/lwiplib.o
                0x8000a834                tcp_send_empty_ack
 .text.tcp_output
                0x8000a8e8      0x470 Release/lwiplib.o
                0x8000a8e8                tcp_output
 .text.tcp_pcb_remove
                0x8000ad58       0xd4 Release/lwiplib.o
                0x8000ad58                tcp_pcb_remove
 .text.tcp_recved
                0x8000ae2c       0x5c Release/lwiplib.o
                0x8000ae2c                tcp_recved
 .text.tcp_receive
                0x8000ae88      0xc0c Release/lwiplib.o
 .text.tcp_rst  0x8000ba94      0x11c Release/lwiplib.o
                0x8000ba94                tcp_rst
 .text.tcp_abandon
                0x8000bbb0      0x124 Release/lwiplib.o
                0x8000bbb0                tcp_abandon
 .text.tcp_abort
                0x8000bcd4       0x18 Release/lwiplib.o
                0x8000bcd4                tcp_abort
 .text.tcp_alloc
                0x8000bcec      0x1f8 Release/lwiplib.o
                0x8000bcec                tcp_alloc
 .text.tcp_new  0x8000bee4       0x18 Release/lwiplib.o
                0x8000bee4                tcp_new
 .text.netif_set_ipaddr
                0x8000befc       0xb4 Release/lwiplib.o
                0x8000befc                netif_set_ipaddr
 .text.netif_set_addr
                0x8000bfb0       0x38 Release/lwiplib.o
                0x8000bfb0                netif_set_addr
 .text.netif_add
                0x8000bfe8       0x84 Release/lwiplib.o
                0x8000bfe8                netif_add
 .text.tcp_close_shutdown
                0x8000c06c      0x280 Release/lwiplib.o
 .text.tcp_close
                0x8000c2ec       0x2c Release/lwiplib.o
                0x8000c2ec                tcp_close
 .text.tcp_recv_null
                0x8000c318       0x5c Release/lwiplib.o
                0x8000c318                tcp_recv_null
 .text.tcp_input
                0x8000c374      0xfc8 Release/lwiplib.o
                0x8000c374                tcp_input
 .text.tcp_write
                0x8000d33c      0x5ec Release/lwiplib.o
                0x8000d33c                tcp_write
 .text.dhcp_delete_msg
                0x8000d928       0x34 Release/lwiplib.o
 .text.dhcp_discover
                0x8000d95c      0x1e0 Release/lwiplib.o
 .text.dhcp_start
                0x8000db3c      0x148 Release/lwiplib.o
                0x8000db3c                dhcp_start
 .text.lwIPDHCPComplete
                0x8000dc84       0x94 Release/lwiplib.o
 .text.dhcp_select
                0x8000dd18      0x254 Release/lwiplib.o
 .text.icmp_dest_unreach
                0x8000df6c      0x114 Release/lwiplib.o
                0x8000df6c                icmp_dest_unreach
 .text.udp_input
                0x8000e080      0x384 Release/lwiplib.o
                0x8000e080                udp_input
 .text.ip_input
                0x8000e404      0x3b0 Release/lwiplib.o
                0x8000e404                ip_input
 .text.ethernet_input
                0x8000e7b4      0x348 Release/lwiplib.o
                0x8000e7b4                ethernet_input
 .text.etharp_request
                0x8000eafc      0x144 Release/lwiplib.o
                0x8000eafc                etharp_request
 .text.netif_set_up
                0x8000ec40       0x38 Release/lwiplib.o
                0x8000ec40                netif_set_up
 .text.unlikely.dhcp_bind
                0x8000ec78      0x120 Release/lwiplib.o
 .text.dhcp_recv
                0x8000ed98      0x6ac Release/lwiplib.o
 .text.etharp_query
                0x8000f444      0x224 Release/lwiplib.o
                0x8000f444                etharp_query
 .text.etharp_output
                0x8000f668      0x198 Release/lwiplib.o
                0x8000f668                etharp_output
 .text.etharp_tmr
                0x8000f800       0x98 Release/lwiplib.o
                0x8000f800                etharp_tmr
 .text.cpswif_rx_inthandler
                0x8000f898      0x140 Release/lwiplib.o
                0x8000f898                cpswif_rx_inthandler
 .text.cpswif_tx_inthandler
                0x8000f9d8      0x14c Release/lwiplib.o
                0x8000f9d8                cpswif_tx_inthandler
 .text.cpswif_link_status
                0x8000fb24       0x34 Release/lwiplib.o
                0x8000fb24                cpswif_link_status
 .text.lwIPInit
                0x8000fb58      0x19c Release/lwiplib.o
                0x8000fb58                lwIPInit
 .text.lwIPNetIfStatusGet
                0x8000fcf4       0x24 Release/lwiplib.o
                0x8000fcf4                lwIPNetIfStatusGet
 .text.lwIPLinkStatusGet
                0x8000fd18       0x14 Release/lwiplib.o
                0x8000fd18                lwIPLinkStatusGet
 .text.lwIPRxIntHandler
                0x8000fd2c       0x1c Release/lwiplib.o
                0x8000fd2c                lwIPRxIntHandler
 .text.lwIPTxIntHandler
                0x8000fd48       0x14 Release/lwiplib.o
                0x8000fd48                lwIPTxIntHandler
 .text.lwIPDHCPStart
                0x8000fd5c       0x34 Release/lwiplib.o
                0x8000fd5c                lwIPDHCPStart
 .text.TPS65217RegWrite
                0x8000fd90      0x130 Release/pmic.o
                0x8000fd90                TPS65217RegWrite
 .text.TPS65217VoltageUpdate
                0x8000fec0       0x3c Release/pmic.o
                0x8000fec0                TPS65217VoltageUpdate
 .text.configVddOpVoltage
                0x8000fefc       0x64 Release/pmic.o
                0x8000fefc                configVddOpVoltage
 .text.setVdd1OpVoltage
                0x8000ff60       0x38 Release/pmic.o
                0x8000ff60                setVdd1OpVoltage
 .text.CPSWSSReset
                0x8000ff98       0x1c ../../../../../..//binary/armv7a/gcc/am335x/drivers/Release/libdrivers.a(cpsw.o)
                0x8000ff98                CPSWSSReset
 .text.CPSWSlTransferModeSet
                0x8000ffb4       0x1c ../../../../../..//binary/armv7a/gcc/am335x/drivers/Release/libdrivers.a(cpsw.o)
                0x8000ffb4                CPSWSlTransferModeSet
 .text.CPSWSlReset
                0x8000ffd0       0x1c ../../../../../..//binary/armv7a/gcc/am335x/drivers/Release/libdrivers.a(cpsw.o)
                0x8000ffd0                CPSWSlReset
 .text.CPSWSlRGMIIEnable
                0x8000ffec       0x14 ../../../../../..//binary/armv7a/gcc/am335x/drivers/Release/libdrivers.a(cpsw.o)
                0x8000ffec                CPSWSlRGMIIEnable
 .text.CPSWWrReset
                0x80010000       0x1c ../../../../../..//binary/armv7a/gcc/am335x/drivers/Release/libdrivers.a(cpsw.o)
                0x80010000                CPSWWrReset
 .text.CPSWWrControlRegReset
                0x8001001c        0xc ../../../../../..//binary/armv7a/gcc/am335x/drivers/Release/libdrivers.a(cpsw.o)
                0x8001001c                CPSWWrControlRegReset
 .text.CPSWWrCoreIntEnable
                0x80010028       0x1c ../../../../../..//binary/armv7a/gcc/am335x/drivers/Release/libdrivers.a(cpsw.o)
                0x80010028                CPSWWrCoreIntEnable
 .text.CPSWALEInit
                0x80010044        0xc ../../../../../..//binary/armv7a/gcc/am335x/drivers/Release/libdrivers.a(cpsw.o)
                0x80010044                CPSWALEInit
 .text.CPSWALEPortStateSet
                0x80010050       0x20 ../../../../../..//binary/armv7a/gcc/am335x/drivers/Release/libdrivers.a(cpsw.o)
                0x80010050                CPSWALEPortStateSet
 .text.CPSWALEVLANAwareSet
                0x80010070       0x10 ../../../../../..//binary/armv7a/gcc/am335x/drivers/Release/libdrivers.a(cpsw.o)
                0x80010070                CPSWALEVLANAwareSet
 .text.CPSWALETableEntrySet
                0x80010080       0x24 ../../../../../..//binary/armv7a/gcc/am335x/drivers/Release/libdrivers.a(cpsw.o)
                0x80010080                CPSWALETableEntrySet
 .text.CPSWALETableEntryGet
                0x800100a4       0x20 ../../../../../..//binary/armv7a/gcc/am335x/drivers/Release/libdrivers.a(cpsw.o)
                0x800100a4                CPSWALETableEntryGet
 .text.CPSWStatisticsEnable
                0x800100c4        0xc ../../../../../..//binary/armv7a/gcc/am335x/drivers/Release/libdrivers.a(cpsw.o)
                0x800100c4                CPSWStatisticsEnable
 .text.CPSWPortSrcAddrSet
                0x800100d0       0x40 ../../../../../..//binary/armv7a/gcc/am335x/drivers/Release/libdrivers.a(cpsw.o)
                0x800100d0                CPSWPortSrcAddrSet
 .text.CPSWHostPortDualMacModeSet
                0x80010110       0x1c ../../../../../..//binary/armv7a/gcc/am335x/drivers/Release/libdrivers.a(cpsw.o)
                0x80010110                CPSWHostPortDualMacModeSet
 .text.CPSWPortVLANConfig
                0x8001012c       0x10 ../../../../../..//binary/armv7a/gcc/am335x/drivers/Release/libdrivers.a(cpsw.o)
                0x8001012c                CPSWPortVLANConfig
 .text.CPSWCPDMAReset
                0x8001013c       0x54 ../../../../../..//binary/armv7a/gcc/am335x/drivers/Release/libdrivers.a(cpsw.o)
                0x8001013c                CPSWCPDMAReset
 .text.CPSWCPDMATxIntEnable
                0x80010190       0x14 ../../../../../..//binary/armv7a/gcc/am335x/drivers/Release/libdrivers.a(cpsw.o)
                0x80010190                CPSWCPDMATxIntEnable
 .text.CPSWCPDMARxIntEnable
                0x800101a4       0x14 ../../../../../..//binary/armv7a/gcc/am335x/drivers/Release/libdrivers.a(cpsw.o)
                0x800101a4                CPSWCPDMARxIntEnable
 .text.CPSWCPDMATxEnable
                0x800101b8        0xc ../../../../../..//binary/armv7a/gcc/am335x/drivers/Release/libdrivers.a(cpsw.o)
                0x800101b8                CPSWCPDMATxEnable
 .text.CPSWCPDMARxEnable
                0x800101c4        0xc ../../../../../..//binary/armv7a/gcc/am335x/drivers/Release/libdrivers.a(cpsw.o)
                0x800101c4                CPSWCPDMARxEnable
 .text.CPSWCPDMATxHdrDescPtrWrite
                0x800101d0        0xc ../../../../../..//binary/armv7a/gcc/am335x/drivers/Release/libdrivers.a(cpsw.o)
                0x800101d0                CPSWCPDMATxHdrDescPtrWrite
 .text.CPSWCPDMARxHdrDescPtrWrite
                0x800101dc        0xc ../../../../../..//binary/armv7a/gcc/am335x/drivers/Release/libdrivers.a(cpsw.o)
                0x800101dc                CPSWCPDMARxHdrDescPtrWrite
 .text.CPSWCPDMAEndOfIntVectorWrite
                0x800101e8        0x8 ../../../../../..//binary/armv7a/gcc/am335x/drivers/Release/libdrivers.a(cpsw.o)
                0x800101e8                CPSWCPDMAEndOfIntVectorWrite
 .text.CPSWCPDMATxCPWrite
                0x800101f0        0xc ../../../../../..//binary/armv7a/gcc/am335x/drivers/Release/libdrivers.a(cpsw.o)
                0x800101f0                CPSWCPDMATxCPWrite
 .text.CPSWCPDMARxCPWrite
                0x800101fc        0xc ../../../../../..//binary/armv7a/gcc/am335x/drivers/Release/libdrivers.a(cpsw.o)
                0x800101fc                CPSWCPDMARxCPWrite
 .text.CPSWCPDMACmdIdleEnable
                0x80010208       0x20 ../../../../../..//binary/armv7a/gcc/am335x/drivers/Release/libdrivers.a(cpsw.o)
                0x80010208                CPSWCPDMACmdIdleEnable
 .text.CPSWCPDMACmdIdleDisable
                0x80010228       0x10 ../../../../../..//binary/armv7a/gcc/am335x/drivers/Release/libdrivers.a(cpsw.o)
                0x80010228                CPSWCPDMACmdIdleDisable
 .text.CPSWContextSave
                0x80010238      0x1c0 ../../../../../..//binary/armv7a/gcc/am335x/drivers/Release/libdrivers.a(cpsw.o)
                0x80010238                CPSWContextSave
 .text.CPSWContextRestore
                0x800103f8      0x1d8 ../../../../../..//binary/armv7a/gcc/am335x/drivers/Release/libdrivers.a(cpsw.o)
                0x800103f8                CPSWContextRestore
 .text.DMTimerEnable
                0x800105d0       0x2c ../../../../../..//binary/armv7a/gcc/am335x/drivers/Release/libdrivers.a(dmtimer.o)
                0x800105d0                DMTimerEnable
 .text.DMTimerDisable
                0x800105fc       0x2c ../../../../../..//binary/armv7a/gcc/am335x/drivers/Release/libdrivers.a(dmtimer.o)
                0x800105fc                DMTimerDisable
 .text.DMTimerModeConfigure
                0x80010628       0x58 ../../../../../..//binary/armv7a/gcc/am335x/drivers/Release/libdrivers.a(dmtimer.o)
                0x80010628                DMTimerModeConfigure
 .text.DMTimerCounterSet
                0x80010680       0x24 ../../../../../..//binary/armv7a/gcc/am335x/drivers/Release/libdrivers.a(dmtimer.o)
                0x80010680                DMTimerCounterSet
 .text.DMTimerReloadSet
                0x800106a4       0x24 ../../../../../..//binary/armv7a/gcc/am335x/drivers/Release/libdrivers.a(dmtimer.o)
                0x800106a4                DMTimerReloadSet
 .text.DMTimerIntStatusClear
                0x800106c8        0xc ../../../../../..//binary/armv7a/gcc/am335x/drivers/Release/libdrivers.a(dmtimer.o)
                0x800106c8                DMTimerIntStatusClear
 .text.DMTimerIntEnable
                0x800106d4        0xc ../../../../../..//binary/armv7a/gcc/am335x/drivers/Release/libdrivers.a(dmtimer.o)
                0x800106d4                DMTimerIntEnable
 .text.DMTimerIntDisable
                0x800106e0        0xc ../../../../../..//binary/armv7a/gcc/am335x/drivers/Release/libdrivers.a(dmtimer.o)
                0x800106e0                DMTimerIntDisable
 .text.DMTimerContextSave
                0x800106ec       0x48 ../../../../../..//binary/armv7a/gcc/am335x/drivers/Release/libdrivers.a(dmtimer.o)
                0x800106ec                DMTimerContextSave
 .text.DMTimerContextRestore
                0x80010734       0x9c ../../../../../..//binary/armv7a/gcc/am335x/drivers/Release/libdrivers.a(dmtimer.o)
                0x80010734                DMTimerContextRestore
 .text.EDMA3Init
                0x800107d0      0x104 ../../../../../..//binary/armv7a/gcc/am335x/drivers/Release/libdrivers.a(edma.o)
                0x800107d0                EDMA3Init
 .text.EDMA3EnableChInShadowReg
                0x800108d4       0x80 ../../../../../..//binary/armv7a/gcc/am335x/drivers/Release/libdrivers.a(edma.o)
                0x800108d4                EDMA3EnableChInShadowReg
 .text.EDMA3MapChToEvtQ
                0x80010954       0x60 ../../../../../..//binary/armv7a/gcc/am335x/drivers/Release/libdrivers.a(edma.o)
                0x80010954                EDMA3MapChToEvtQ
 .text.EDMA3ClrMissEvt
                0x800109b4       0x6c ../../../../../..//binary/armv7a/gcc/am335x/drivers/Release/libdrivers.a(edma.o)
                0x800109b4                EDMA3ClrMissEvt
 .text.EDMA3SetEvt
                0x80010a20       0x60 ../../../../../..//binary/armv7a/gcc/am335x/drivers/Release/libdrivers.a(edma.o)
                0x80010a20                EDMA3SetEvt
 .text.EDMA3ClrEvt
                0x80010a80       0x60 ../../../../../..//binary/armv7a/gcc/am335x/drivers/Release/libdrivers.a(edma.o)
                0x80010a80                EDMA3ClrEvt
 .text.EDMA3EnableDmaEvt
                0x80010ae0       0x60 ../../../../../..//binary/armv7a/gcc/am335x/drivers/Release/libdrivers.a(edma.o)
                0x80010ae0                EDMA3EnableDmaEvt
 .text.EDMA3DisableDmaEvt
                0x80010b40       0x34 ../../../../../..//binary/armv7a/gcc/am335x/drivers/Release/libdrivers.a(edma.o)
                0x80010b40                EDMA3DisableDmaEvt
 .text.EDMA3EnableEvtIntr
                0x80010b74       0x60 ../../../../../..//binary/armv7a/gcc/am335x/drivers/Release/libdrivers.a(edma.o)
                0x80010b74                EDMA3EnableEvtIntr
 .text.EDMA3SetPaRAM
                0x80010bd4       0x24 ../../../../../..//binary/armv7a/gcc/am335x/drivers/Release/libdrivers.a(edma.o)
                0x80010bd4                EDMA3SetPaRAM
 .text.EDMA3RequestChannel
                0x80010bf8       0xb0 ../../../../../..//binary/armv7a/gcc/am335x/drivers/Release/libdrivers.a(edma.o)
                0x80010bf8                EDMA3RequestChannel
 .text.EDMA3EnableTransfer
                0x80010ca8       0xa4 ../../../../../..//binary/armv7a/gcc/am335x/drivers/Release/libdrivers.a(edma.o)
                0x80010ca8                EDMA3EnableTransfer
 .text.EDMA3DisableTransfer
                0x80010d4c       0xa4 ../../../../../..//binary/armv7a/gcc/am335x/drivers/Release/libdrivers.a(edma.o)
                0x80010d4c                EDMA3DisableTransfer
 .text.EDMA3ContextSave
                0x80010df0       0xec ../../../../../..//binary/armv7a/gcc/am335x/drivers/Release/libdrivers.a(edma.o)
                0x80010df0                EDMA3ContextSave
 .text.EDMA3ContextRestore
                0x80010edc       0xf8 ../../../../../..//binary/armv7a/gcc/am335x/drivers/Release/libdrivers.a(edma.o)
                0x80010edc                EDMA3ContextRestore
 .text.GPIOModuleReset
                0x80010fd4       0x20 ../../../../../..//binary/armv7a/gcc/am335x/drivers/Release/libdrivers.a(gpio_v2.o)
                0x80010fd4                GPIOModuleReset
 .text.GPIOModuleEnable
                0x80010ff4       0x10 ../../../../../..//binary/armv7a/gcc/am335x/drivers/Release/libdrivers.a(gpio_v2.o)
                0x80010ff4                GPIOModuleEnable
 .text.GPIODirModeSet
                0x80011004       0x1c ../../../../../..//binary/armv7a/gcc/am335x/drivers/Release/libdrivers.a(gpio_v2.o)
                0x80011004                GPIODirModeSet
 .text.GPIOPinWrite
                0x80011020       0x1c ../../../../../..//binary/armv7a/gcc/am335x/drivers/Release/libdrivers.a(gpio_v2.o)
                0x80011020                GPIOPinWrite
 .text.GPIOPinIntEnable
                0x8001103c       0x18 ../../../../../..//binary/armv7a/gcc/am335x/drivers/Release/libdrivers.a(gpio_v2.o)
                0x8001103c                GPIOPinIntEnable
 .text.GPIOPinIntDisable
                0x80011054       0x18 ../../../../../..//binary/armv7a/gcc/am335x/drivers/Release/libdrivers.a(gpio_v2.o)
                0x80011054                GPIOPinIntDisable
 .text.GPIOIntTypeSet
                0x8001106c      0x1bc ../../../../../..//binary/armv7a/gcc/am335x/drivers/Release/libdrivers.a(gpio_v2.o)
                0x8001106c                GPIOIntTypeSet
 .text.GPIOPinIntClear
                0x80011228       0x18 ../../../../../..//binary/armv7a/gcc/am335x/drivers/Release/libdrivers.a(gpio_v2.o)
                0x80011228                GPIOPinIntClear
 .text.GPIOWakeupGlobalEnable
                0x80011240       0x10 ../../../../../..//binary/armv7a/gcc/am335x/drivers/Release/libdrivers.a(gpio_v2.o)
                0x80011240                GPIOWakeupGlobalEnable
 .text.GPIOWakeupGlobalDisable
                0x80011250       0x10 ../../../../../..//binary/armv7a/gcc/am335x/drivers/Release/libdrivers.a(gpio_v2.o)
                0x80011250                GPIOWakeupGlobalDisable
 .text.GPIOPinIntWakeUpEnable
                0x80011260       0x28 ../../../../../..//binary/armv7a/gcc/am335x/drivers/Release/libdrivers.a(gpio_v2.o)
                0x80011260                GPIOPinIntWakeUpEnable
 .text.GPIOPinIntWakeUpDisable
                0x80011288       0x28 ../../../../../..//binary/armv7a/gcc/am335x/drivers/Release/libdrivers.a(gpio_v2.o)
                0x80011288                GPIOPinIntWakeUpDisable
 .text.GPIODebounceFuncControl
                0x800112b0       0x20 ../../../../../..//binary/armv7a/gcc/am335x/drivers/Release/libdrivers.a(gpio_v2.o)
                0x800112b0                GPIODebounceFuncControl
 .text.GPIODebounceTimeConfig
                0x800112d0        0xc ../../../../../..//binary/armv7a/gcc/am335x/drivers/Release/libdrivers.a(gpio_v2.o)
                0x800112d0                GPIODebounceTimeConfig
 .text.gpioContextSave
                0x800112dc       0x1c ../../../../../..//binary/armv7a/gcc/am335x/drivers/Release/libdrivers.a(gpio_v2.o)
                0x800112dc                gpioContextSave
 .text.gpioContextRestore
                0x800112f8       0x1c ../../../../../..//binary/armv7a/gcc/am335x/drivers/Release/libdrivers.a(gpio_v2.o)
                0x800112f8                gpioContextRestore
 .text.GPMCIdleModeSelect
                0x80011314       0x24 ../../../../../..//binary/armv7a/gcc/am335x/drivers/Release/libdrivers.a(gpmc.o)
                0x80011314                GPMCIdleModeSelect
 .text.HSMMCSDSoftReset
                0x80011338       0x58 ../../../../../..//binary/armv7a/gcc/am335x/drivers/Release/libdrivers.a(hs_mmcsd.o)
                0x80011338                HSMMCSDSoftReset
 .text.HSMMCSDLinesReset
                0x80011390       0x5c ../../../../../..//binary/armv7a/gcc/am335x/drivers/Release/libdrivers.a(hs_mmcsd.o)
                0x80011390                HSMMCSDLinesReset
 .text.HSMMCSDSystemConfig
                0x800113ec       0x20 ../../../../../..//binary/armv7a/gcc/am335x/drivers/Release/libdrivers.a(hs_mmcsd.o)
                0x800113ec                HSMMCSDSystemConfig
 .text.HSMMCSDBusWidthSet
                0x8001140c       0x68 ../../../../../..//binary/armv7a/gcc/am335x/drivers/Release/libdrivers.a(hs_mmcsd.o)
                0x8001140c                HSMMCSDBusWidthSet
 .text.HSMMCSDBusVoltSet
                0x80011474       0x1c ../../../../../..//binary/armv7a/gcc/am335x/drivers/Release/libdrivers.a(hs_mmcsd.o)
                0x80011474                HSMMCSDBusVoltSet
 .text.HSMMCSDBusPower
                0x80011490       0x68 ../../../../../..//binary/armv7a/gcc/am335x/drivers/Release/libdrivers.a(hs_mmcsd.o)
                0x80011490                HSMMCSDBusPower
 .text.HSMMCSDIntClock
                0x800114f8       0x88 ../../../../../..//binary/armv7a/gcc/am335x/drivers/Release/libdrivers.a(hs_mmcsd.o)
                0x800114f8                HSMMCSDIntClock
 .text.HSMMCSDSupportedVoltSet
                0x80011580       0x1c ../../../../../..//binary/armv7a/gcc/am335x/drivers/Release/libdrivers.a(hs_mmcsd.o)
                0x80011580                HSMMCSDSupportedVoltSet
 .text.HSMMCSDDataTimeoutSet
                0x8001159c       0x1c ../../../../../..//binary/armv7a/gcc/am335x/drivers/Release/libdrivers.a(hs_mmcsd.o)
                0x8001159c                HSMMCSDDataTimeoutSet
 .text.HSMMCSDBusFreqSet
                0x800115b8      0x174 ../../../../../..//binary/armv7a/gcc/am335x/drivers/Release/libdrivers.a(hs_mmcsd.o)
                0x800115b8                HSMMCSDBusFreqSet
 .text.HSMMCSDInitStreamSend
                0x8001172c       0x90 ../../../../../..//binary/armv7a/gcc/am335x/drivers/Release/libdrivers.a(hs_mmcsd.o)
                0x8001172c                HSMMCSDInitStreamSend
 .text.HSMMCSDIntrEnable
                0x800117bc       0x1c ../../../../../..//binary/armv7a/gcc/am335x/drivers/Release/libdrivers.a(hs_mmcsd.o)
                0x800117bc                HSMMCSDIntrEnable
 .text.HSMMCSDIntrStatusGet
                0x800117d8        0xc ../../../../../..//binary/armv7a/gcc/am335x/drivers/Release/libdrivers.a(hs_mmcsd.o)
                0x800117d8                HSMMCSDIntrStatusGet
 .text.HSMMCSDIntrStatusClear
                0x800117e4        0x8 ../../../../../..//binary/armv7a/gcc/am335x/drivers/Release/libdrivers.a(hs_mmcsd.o)
                0x800117e4                HSMMCSDIntrStatusClear
 .text.HSMMCSDBlkLenSet
                0x800117ec       0x20 ../../../../../..//binary/armv7a/gcc/am335x/drivers/Release/libdrivers.a(hs_mmcsd.o)
                0x800117ec                HSMMCSDBlkLenSet
 .text.HSMMCSDCommandSend
                0x8001180c       0x40 ../../../../../..//binary/armv7a/gcc/am335x/drivers/Release/libdrivers.a(hs_mmcsd.o)
                0x8001180c                HSMMCSDCommandSend
 .text.HSMMCSDResponseGet
                0x8001184c       0x24 ../../../../../..//binary/armv7a/gcc/am335x/drivers/Release/libdrivers.a(hs_mmcsd.o)
                0x8001184c                HSMMCSDResponseGet
 .text.HSMMCSDIsCardInserted
                0x80011870        0xc ../../../../../..//binary/armv7a/gcc/am335x/drivers/Release/libdrivers.a(hs_mmcsd.o)
                0x80011870                HSMMCSDIsCardInserted
 .text.MMCSDContextSave
                0x8001187c       0x34 ../../../../../..//binary/armv7a/gcc/am335x/drivers/Release/libdrivers.a(hs_mmcsd.o)
                0x8001187c                MMCSDContextSave
 .text.MMCSDContextRestore
                0x800118b0       0x34 ../../../../../..//binary/armv7a/gcc/am335x/drivers/Release/libdrivers.a(hs_mmcsd.o)
                0x800118b0                MMCSDContextRestore
 .text.I2CMasterInitExpClk
                0x800118e4       0x50 ../../../../../..//binary/armv7a/gcc/am335x/drivers/Release/libdrivers.a(hsi2c.o)
                0x800118e4                I2CMasterInitExpClk
 .text.I2CMasterEnable
                0x80011934       0x10 ../../../../../..//binary/armv7a/gcc/am335x/drivers/Release/libdrivers.a(hsi2c.o)
                0x80011934                I2CMasterEnable
 .text.I2CMasterDisable
                0x80011944       0x10 ../../../../../..//binary/armv7a/gcc/am335x/drivers/Release/libdrivers.a(hsi2c.o)
                0x80011944                I2CMasterDisable
 .text.I2CMasterBusBusy
                0x80011954        0xc ../../../../../..//binary/armv7a/gcc/am335x/drivers/Release/libdrivers.a(hsi2c.o)
                0x80011954                I2CMasterBusBusy
 .text.I2CMasterBusy
                0x80011960        0xc ../../../../../..//binary/armv7a/gcc/am335x/drivers/Release/libdrivers.a(hsi2c.o)
                0x80011960                I2CMasterBusy
 .text.I2CMasterControl
                0x8001196c        0xc ../../../../../..//binary/armv7a/gcc/am335x/drivers/Release/libdrivers.a(hsi2c.o)
                0x8001196c                I2CMasterControl
 .text.I2CMasterStart
                0x80011978       0x10 ../../../../../..//binary/armv7a/gcc/am335x/drivers/Release/libdrivers.a(hsi2c.o)
                0x80011978                I2CMasterStart
 .text.I2CMasterStop
                0x80011988       0x10 ../../../../../..//binary/armv7a/gcc/am335x/drivers/Release/libdrivers.a(hsi2c.o)
                0x80011988                I2CMasterStop
 .text.I2CMasterIntEnableEx
                0x80011998       0x10 ../../../../../..//binary/armv7a/gcc/am335x/drivers/Release/libdrivers.a(hsi2c.o)
                0x80011998                I2CMasterIntEnableEx
 .text.I2CMasterIntDisableEx
                0x800119a8        0x8 ../../../../../..//binary/armv7a/gcc/am335x/drivers/Release/libdrivers.a(hsi2c.o)
                0x800119a8                I2CMasterIntDisableEx
 .text.I2CMasterIntStatus
                0x800119b0        0x8 ../../../../../..//binary/armv7a/gcc/am335x/drivers/Release/libdrivers.a(hsi2c.o)
                0x800119b0                I2CMasterIntStatus
 .text.I2CMasterIntRawStatus
                0x800119b8        0x8 ../../../../../..//binary/armv7a/gcc/am335x/drivers/Release/libdrivers.a(hsi2c.o)
                0x800119b8                I2CMasterIntRawStatus
 .text.I2CMasterIntRawStatusEx
                0x800119c0        0xc ../../../../../..//binary/armv7a/gcc/am335x/drivers/Release/libdrivers.a(hsi2c.o)
                0x800119c0                I2CMasterIntRawStatusEx
 .text.I2CMasterIntClearEx
                0x800119cc        0x8 ../../../../../..//binary/armv7a/gcc/am335x/drivers/Release/libdrivers.a(hsi2c.o)
                0x800119cc                I2CMasterIntClearEx
 .text.I2CMasterSlaveAddrSet
                0x800119d4        0x8 ../../../../../..//binary/armv7a/gcc/am335x/drivers/Release/libdrivers.a(hsi2c.o)
                0x800119d4                I2CMasterSlaveAddrSet
 .text.I2CSetDataCount
                0x800119dc        0x8 ../../../../../..//binary/armv7a/gcc/am335x/drivers/Release/libdrivers.a(hsi2c.o)
                0x800119dc                I2CSetDataCount
 .text.I2CDataCountGet
                0x800119e4        0x8 ../../../../../..//binary/armv7a/gcc/am335x/drivers/Release/libdrivers.a(hsi2c.o)
                0x800119e4                I2CDataCountGet
 .text.I2COwnAddressSet
                0x800119ec       0x30 ../../../../../..//binary/armv7a/gcc/am335x/drivers/Release/libdrivers.a(hsi2c.o)
                0x800119ec                I2COwnAddressSet
 .text.I2CSoftReset
                0x80011a1c       0x10 ../../../../../..//binary/armv7a/gcc/am335x/drivers/Release/libdrivers.a(hsi2c.o)
                0x80011a1c                I2CSoftReset
 .text.I2CAutoIdleDisable
                0x80011a2c       0x10 ../../../../../..//binary/armv7a/gcc/am335x/drivers/Release/libdrivers.a(hsi2c.o)
                0x80011a2c                I2CAutoIdleDisable
 .text.I2CSystemStatusGet
                0x80011a3c        0xc ../../../../../..//binary/armv7a/gcc/am335x/drivers/Release/libdrivers.a(hsi2c.o)
                0x80011a3c                I2CSystemStatusGet
 .text.I2CMasterDataPut
                0x80011a48        0x8 ../../../../../..//binary/armv7a/gcc/am335x/drivers/Release/libdrivers.a(hsi2c.o)
                0x80011a48                I2CMasterDataPut
 .text.I2CMasterDataGet
                0x80011a50        0xc ../../../../../..//binary/armv7a/gcc/am335x/drivers/Release/libdrivers.a(hsi2c.o)
                0x80011a50                I2CMasterDataGet
 .text.MBresetMailbox
                0x80011a5c       0x1c ../../../../../..//binary/armv7a/gcc/am335x/drivers/Release/libdrivers.a(mailbox.o)
                0x80011a5c                MBresetMailbox
 .text.MBconfigIdleMode
                0x80011a78        0xc ../../../../../..//binary/armv7a/gcc/am335x/drivers/Release/libdrivers.a(mailbox.o)
                0x80011a78                MBconfigIdleMode
 .text.MBgetMessage
                0x80011a84       0x28 ../../../../../..//binary/armv7a/gcc/am335x/drivers/Release/libdrivers.a(mailbox.o)
                0x80011a84                MBgetMessage
 .text.MBsendMessage
                0x80011aac       0x20 ../../../../../..//binary/armv7a/gcc/am335x/drivers/Release/libdrivers.a(mailbox.o)
                0x80011aac                MBsendMessage
 .text.MBenableNewMsgInt
                0x80011acc       0x1c ../../../../../..//binary/armv7a/gcc/am335x/drivers/Release/libdrivers.a(mailbox.o)
                0x80011acc                MBenableNewMsgInt
 .text.MBclrNewMsgStatus
                0x80011ae8       0x1c ../../../../../..//binary/armv7a/gcc/am335x/drivers/Release/libdrivers.a(mailbox.o)
                0x80011ae8                MBclrNewMsgStatus
 .text.MDIOPhyRegRead
                0x80011b04       0x5c ../../../../../..//binary/armv7a/gcc/am335x/drivers/Release/libdrivers.a(mdio.o)
                0x80011b04                MDIOPhyRegRead
 .text.MDIOPhyRegWrite
                0x80011b60       0x44 ../../../../../..//binary/armv7a/gcc/am335x/drivers/Release/libdrivers.a(mdio.o)
                0x80011b60                MDIOPhyRegWrite
 .text.MDIOPhyAliveStatusGet
                0x80011ba4        0x8 ../../../../../..//binary/armv7a/gcc/am335x/drivers/Release/libdrivers.a(mdio.o)
                0x80011ba4                MDIOPhyAliveStatusGet
 .text.MDIOInit
                0x80011bac       0x34 ../../../../../..//binary/armv7a/gcc/am335x/drivers/Release/libdrivers.a(mdio.o)
                0x80011bac                MDIOInit
 .text.MDIOContextSave
                0x80011be0        0xc ../../../../../..//binary/armv7a/gcc/am335x/drivers/Release/libdrivers.a(mdio.o)
                0x80011be0                MDIOContextSave
 .text.MDIOContextRestore
                0x80011bec        0xc ../../../../../..//binary/armv7a/gcc/am335x/drivers/Release/libdrivers.a(mdio.o)
                0x80011bec                MDIOContextRestore
 .text.PhyAutoNegotiate
                0x80011bf8      0x164 ../../../../../..//binary/armv7a/gcc/am335x/drivers/Release/libdrivers.a(phy.o)
                0x80011bf8                PhyAutoNegotiate
 .text.PhyAutoNegStatusGet
                0x80011d5c       0x2c ../../../../../..//binary/armv7a/gcc/am335x/drivers/Release/libdrivers.a(phy.o)
                0x80011d5c                PhyAutoNegStatusGet
 .text.PhyPartnerAbilityGet
                0x80011d88       0x58 ../../../../../..//binary/armv7a/gcc/am335x/drivers/Release/libdrivers.a(phy.o)
                0x80011d88                PhyPartnerAbilityGet
 .text.PhyLinkStatusGet
                0x80011de0       0x8c ../../../../../..//binary/armv7a/gcc/am335x/drivers/Release/libdrivers.a(phy.o)
                0x80011de0                PhyLinkStatusGet
 .text.RTCRun   0x80011e6c       0x48 ../../../../../..//binary/armv7a/gcc/am335x/drivers/Release/libdrivers.a(rtc.o)
                0x80011e6c                RTCRun
 .text.RTCWriteProtectDisable
                0x80011eb4       0x1c ../../../../../..//binary/armv7a/gcc/am335x/drivers/Release/libdrivers.a(rtc.o)
                0x80011eb4                RTCWriteProtectDisable
 .text.RTCIntTimerEnable
                0x80011ed0       0x30 ../../../../../..//binary/armv7a/gcc/am335x/drivers/Release/libdrivers.a(rtc.o)
                0x80011ed0                RTCIntTimerEnable
 .text.RTCEnable
                0x80011f00       0x5c ../../../../../..//binary/armv7a/gcc/am335x/drivers/Release/libdrivers.a(rtc.o)
                0x80011f00                RTCEnable
 .text.RTCTimeSet
                0x80011f5c       0x70 ../../../../../..//binary/armv7a/gcc/am335x/drivers/Release/libdrivers.a(rtc.o)
                0x80011f5c                RTCTimeSet
 .text.RTCTimeGet
                0x80011fcc       0x30 ../../../../../..//binary/armv7a/gcc/am335x/drivers/Release/libdrivers.a(rtc.o)
                0x80011fcc                RTCTimeGet
 .text.RTCCalendarSet
                0x80011ffc       0x34 ../../../../../..//binary/armv7a/gcc/am335x/drivers/Release/libdrivers.a(rtc.o)
                0x80011ffc                RTCCalendarSet
 .text.RTCCalendarGet
                0x80012030       0x34 ../../../../../..//binary/armv7a/gcc/am335x/drivers/Release/libdrivers.a(rtc.o)
                0x80012030                RTCCalendarGet
 .text.RTC32KClkSourceSelect
                0x80012064       0x30 ../../../../../..//binary/armv7a/gcc/am335x/drivers/Release/libdrivers.a(rtc.o)
                0x80012064                RTC32KClkSourceSelect
 .text.RTC32KClkClockControl
                0x80012094       0x20 ../../../../../..//binary/armv7a/gcc/am335x/drivers/Release/libdrivers.a(rtc.o)
                0x80012094                RTC32KClkClockControl
 .text.UARTOperatingModeSelect
                0x800120b4       0x2c ../../../../../..//binary/armv7a/gcc/am335x/drivers/Release/libdrivers.a(uart_irda_cir.o)
                0x800120b4                UARTOperatingModeSelect
 .text.UARTDivisorValCompute
                0x800120e0       0x68 ../../../../../..//binary/armv7a/gcc/am335x/drivers/Release/libdrivers.a(uart_irda_cir.o)
                0x800120e0                UARTDivisorValCompute
 .text.UARTDivisorLatchDisable
                0x80012148       0x10 ../../../../../..//binary/armv7a/gcc/am335x/drivers/Release/libdrivers.a(uart_irda_cir.o)
                0x80012148                UARTDivisorLatchDisable
 .text.UARTRegConfigModeEnable
                0x80012158       0x44 ../../../../../..//binary/armv7a/gcc/am335x/drivers/Release/libdrivers.a(uart_irda_cir.o)
                0x80012158                UARTRegConfigModeEnable
 .text.UARTDivisorLatchWrite
                0x8001219c      0x13c ../../../../../..//binary/armv7a/gcc/am335x/drivers/Release/libdrivers.a(uart_irda_cir.o)
                0x8001219c                UARTDivisorLatchWrite
 .text.UARTBreakCtl
                0x800122d8       0x20 ../../../../../..//binary/armv7a/gcc/am335x/drivers/Release/libdrivers.a(uart_irda_cir.o)
                0x800122d8                UARTBreakCtl
 .text.UARTLineCharacConfig
                0x800122f8       0x3c ../../../../../..//binary/armv7a/gcc/am335x/drivers/Release/libdrivers.a(uart_irda_cir.o)
                0x800122f8                UARTLineCharacConfig
 .text.UARTFIFORegisterWrite
                0x80012334       0x88 ../../../../../..//binary/armv7a/gcc/am335x/drivers/Release/libdrivers.a(uart_irda_cir.o)
                0x80012334                UARTFIFORegisterWrite
 .text.UARTSubConfigTCRTLRModeEn
                0x800123bc       0x74 ../../../../../..//binary/armv7a/gcc/am335x/drivers/Release/libdrivers.a(uart_irda_cir.o)
                0x800123bc                UARTSubConfigTCRTLRModeEn
 .text.UARTTCRTLRBitValRestore
                0x80012430       0x78 ../../../../../..//binary/armv7a/gcc/am335x/drivers/Release/libdrivers.a(uart_irda_cir.o)
                0x80012430                UARTTCRTLRBitValRestore
 .text.UARTFIFOConfig
                0x800124a8      0x224 ../../../../../..//binary/armv7a/gcc/am335x/drivers/Release/libdrivers.a(uart_irda_cir.o)
                0x800124a8                UARTFIFOConfig
 .text.UARTIntEnable
                0x800126cc       0x84 ../../../../../..//binary/armv7a/gcc/am335x/drivers/Release/libdrivers.a(uart_irda_cir.o)
                0x800126cc                UARTIntEnable
 .text.UARTIntDisable
                0x80012750       0x74 ../../../../../..//binary/armv7a/gcc/am335x/drivers/Release/libdrivers.a(uart_irda_cir.o)
                0x80012750                UARTIntDisable
 .text.UARTCharsAvail
                0x800127c4       0x20 ../../../../../..//binary/armv7a/gcc/am335x/drivers/Release/libdrivers.a(uart_irda_cir.o)
                0x800127c4                UARTCharsAvail
 .text.UARTCharPutNonBlocking
                0x800127e4       0x2c ../../../../../..//binary/armv7a/gcc/am335x/drivers/Release/libdrivers.a(uart_irda_cir.o)
                0x800127e4                UARTCharPutNonBlocking
 .text.UARTCharGetNonBlocking
                0x80012810       0x30 ../../../../../..//binary/armv7a/gcc/am335x/drivers/Release/libdrivers.a(uart_irda_cir.o)
                0x80012810                UARTCharGetNonBlocking
 .text.UARTCharGet
                0x80012840       0x30 ../../../../../..//binary/armv7a/gcc/am335x/drivers/Release/libdrivers.a(uart_irda_cir.o)
                0x80012840                UARTCharGet
 .text.UARTCharPut
                0x80012870       0x30 ../../../../../..//binary/armv7a/gcc/am335x/drivers/Release/libdrivers.a(uart_irda_cir.o)
                0x80012870                UARTCharPut
 .text.UARTModuleReset
                0x800128a0       0x20 ../../../../../..//binary/armv7a/gcc/am335x/drivers/Release/libdrivers.a(uart_irda_cir.o)
                0x800128a0                UARTModuleReset
 .text.UARTIdleModeConfigure
                0x800128c0       0x20 ../../../../../..//binary/armv7a/gcc/am335x/drivers/Release/libdrivers.a(uart_irda_cir.o)
                0x800128c0                UARTIdleModeConfigure
 .text.UARTWakeUpControl
                0x800128e0       0x20 ../../../../../..//binary/armv7a/gcc/am335x/drivers/Release/libdrivers.a(uart_irda_cir.o)
                0x800128e0                UARTWakeUpControl
 .text.ASCIIToDigit
                0x80012900       0x84 ../../../../../..//binary/armv7a/gcc/utils/Release/libutils.a(ascii.o)
                0x80012900                ASCIIToDigit
 .text.DigitToASCII
                0x80012984       0x38 ../../../../../..//binary/armv7a/gcc/utils/Release/libutils.a(ascii.o)
                0x80012984                DigitToASCII
 .text.TimeToStr
                0x800129bc       0x98 ../../../../../..//binary/armv7a/gcc/utils/Release/libutils.a(ascii.o)
                0x800129bc                TimeToStr
 .text.DateToStr
                0x80012a54       0x98 ../../../../../..//binary/armv7a/gcc/utils/Release/libutils.a(ascii.o)
                0x80012a54                DateToStr
 .text.BoardVersionGet
                0x80012aec        0xc ../../../../../..//binary/armv7a/gcc/utils/Release/libutils.a(board.o)
                0x80012aec                BoardVersionGet
 .text.BoardNameGet
                0x80012af8        0xc ../../../../../..//binary/armv7a/gcc/utils/Release/libutils.a(board.o)
                0x80012af8                BoardNameGet
 .text.BoardInfoInit
                0x80012b04       0xb4 ../../../../../..//binary/armv7a/gcc/utils/Release/libutils.a(board.o)
                0x80012b04                BoardInfoInit
 .text.CmdLineProcess
                0x80012bb8       0xd0 ../../../../../..//binary/armv7a/gcc/utils/Release/libutils.a(cmdline.o)
                0x80012bb8                CmdLineProcess
 .text.ConsoleUtilsInit
                0x80012c88       0x14 ../../../../../..//binary/armv7a/gcc/utils/Release/libutils.a(consoleUtils.o)
                0x80012c88                ConsoleUtilsInit
 .text.ConsoleUtilsSetType
                0x80012c9c       0x38 ../../../../../..//binary/armv7a/gcc/utils/Release/libutils.a(consoleUtils.o)
                0x80012c9c                ConsoleUtilsSetType
 .text.ConsoleUtilsPrintf
                0x80012cd4       0x64 ../../../../../..//binary/armv7a/gcc/utils/Release/libutils.a(consoleUtils.o)
                0x80012cd4                ConsoleUtilsPrintf
 .text.ConsoleUtilsScanf
                0x80012d38       0x68 ../../../../../..//binary/armv7a/gcc/utils/Release/libutils.a(consoleUtils.o)
                0x80012d38                ConsoleUtilsScanf
 .text.DelayTimerSetup
                0x80012da0       0x14 ../../../../../..//binary/armv7a/gcc/utils/Release/libutils.a(delay.o)
                0x80012da0                DelayTimerSetup
 .text.delay    0x80012db4       0x14 ../../../../../..//binary/armv7a/gcc/utils/Release/libutils.a(delay.o)
                0x80012db4                delay
 .text.UARTStdioInit
                0x80012dc8       0x14 ../../../../../..//binary/armv7a/gcc/utils/Release/libutils.a(uartStdio.o)
                0x80012dc8                UARTStdioInit
 .text.UARTPuts
                0x80012ddc       0x78 ../../../../../..//binary/armv7a/gcc/utils/Release/libutils.a(uartStdio.o)
                0x80012ddc                UARTPuts
 .text.UARTGetc
                0x80012e54       0x14 ../../../../../..//binary/armv7a/gcc/utils/Release/libutils.a(uartStdio.o)
                0x80012e54                UARTGetc
 .text.UARTwrite
                0x80012e68       0x58 ../../../../../..//binary/armv7a/gcc/utils/Release/libutils.a(uartStdio.o)
                0x80012e68                UARTwrite
 .text.UARTScanf
                0x80012ec0      0x718 ../../../../../..//binary/armv7a/gcc/utils/Release/libutils.a(uartStdio.o)
                0x80012ec0                UARTScanf
 .text.UARTPrintf
                0x800135d8      0x4bc ../../../../../..//binary/armv7a/gcc/utils/Release/libutils.a(uartStdio.o)
                0x800135d8                UARTPrintf
 .text.BoardInfoCheck
                0x80013a94       0xd4 ../../../../../..//binary/armv7a/gcc/am335x/beaglebone/platform/Release/libplatform.a(board.o)
                0x80013a94                BoardInfoCheck
 .text.CPSWPinMuxSetup
                0x80013b68       0x60 ../../../../../..//binary/armv7a/gcc/am335x/beaglebone/platform/Release/libplatform.a(cpsw.o)
                0x80013b68                CPSWPinMuxSetup
 .text.CPSWClkEnable
                0x80013bc8       0x44 ../../../../../..//binary/armv7a/gcc/am335x/beaglebone/platform/Release/libplatform.a(cpsw.o)
                0x80013bc8                CPSWClkEnable
 .text.EVMPortMIIModeSelect
                0x80013c0c       0x14 ../../../../../..//binary/armv7a/gcc/am335x/beaglebone/platform/Release/libplatform.a(cpsw.o)
                0x80013c0c                EVMPortMIIModeSelect
 .text.EVMMACAddrGet
                0x80013c20       0x5c ../../../../../..//binary/armv7a/gcc/am335x/beaglebone/platform/Release/libplatform.a(cpsw.o)
                0x80013c20                EVMMACAddrGet
 .text.ControlRegContextSave
                0x80013c7c       0x48 ../../../../../..//binary/armv7a/gcc/am335x/beaglebone/platform/Release/libplatform.a(ctlregcontext.o)
                0x80013c7c                ControlRegContextSave
 .text.ControlRegContextRestore
                0x80013cc4       0x40 ../../../../../..//binary/armv7a/gcc/am335x/beaglebone/platform/Release/libplatform.a(ctlregcontext.o)
                0x80013cc4                ControlRegContextRestore
 .text.IOPadContextSave
                0x80013d04       0x28 ../../../../../..//binary/armv7a/gcc/am335x/beaglebone/platform/Release/libplatform.a(ctlregcontext.o)
                0x80013d04                IOPadContextSave
 .text.IOPadContextRestore
                0x80013d2c       0x28 ../../../../../..//binary/armv7a/gcc/am335x/beaglebone/platform/Release/libplatform.a(ctlregcontext.o)
                0x80013d2c                IOPadContextRestore
 .text.IOPadConfigure
                0x80013d54       0x1c ../../../../../..//binary/armv7a/gcc/am335x/beaglebone/platform/Release/libplatform.a(ctlregcontext.o)
                0x80013d54                IOPadConfigure
 .text.IOPadSel
                0x80013d70       0x20 ../../../../../..//binary/armv7a/gcc/am335x/beaglebone/platform/Release/libplatform.a(ctlregcontext.o)
                0x80013d70                IOPadSel
 .text.IOPadSelConfigure
                0x80013d90       0x30 ../../../../../..//binary/armv7a/gcc/am335x/beaglebone/platform/Release/libplatform.a(ctlregcontext.o)
                0x80013d90                IOPadSelConfigure
 .text.DMTimer3ModuleClkConfig
                0x80013dc0      0x1a8 ../../../../../..//binary/armv7a/gcc/am335x/beaglebone/platform/Release/libplatform.a(dmtimer.o)
                0x80013dc0                DMTimer3ModuleClkConfig
 .text.DMTimer2ModuleClkConfig
                0x80013f68      0x1a8 ../../../../../..//binary/armv7a/gcc/am335x/beaglebone/platform/Release/libplatform.a(dmtimer.o)
                0x80013f68                DMTimer2ModuleClkConfig
 .text.DMTimer4ModuleClkConfig
                0x80014110      0x1b4 ../../../../../..//binary/armv7a/gcc/am335x/beaglebone/platform/Release/libplatform.a(dmtimer.o)
                0x80014110                DMTimer4ModuleClkConfig
 .text.DMTimer6ModuleClkConfig
                0x800142c4       0x80 ../../../../../..//binary/armv7a/gcc/am335x/beaglebone/platform/Release/libplatform.a(dmtimer.o)
                0x800142c4                DMTimer6ModuleClkConfig
 .text.DMTimer7ModuleClkConfig
                0x80014344      0x1a8 ../../../../../..//binary/armv7a/gcc/am335x/beaglebone/platform/Release/libplatform.a(dmtimer.o)
                0x80014344                DMTimer7ModuleClkConfig
 .text.DMTimer1msModuleClkConfig
                0x800144ec       0x84 ../../../../../..//binary/armv7a/gcc/am335x/beaglebone/platform/Release/libplatform.a(dmtimer.o)
                0x800144ec                DMTimer1msModuleClkConfig
 .text.EDMAVersionGet
                0x80014570        0x8 ../../../../../..//binary/armv7a/gcc/am335x/beaglebone/platform/Release/libplatform.a(edma.o)
                0x80014570                EDMAVersionGet
 .text.EDMAModuleClkConfig
                0x80014578      0x158 ../../../../../..//binary/armv7a/gcc/am335x/beaglebone/platform/Release/libplatform.a(edma.o)
                0x80014578                EDMAModuleClkConfig
 .text.EEPROMI2CSetUp
                0x800146d0       0xe0 ../../../../../..//binary/armv7a/gcc/am335x/beaglebone/platform/Release/libplatform.a(eeprom.o)
                0x800146d0                EEPROMI2CSetUp
 .text.EEPROMI2CRead
                0x800147b0      0x1d4 ../../../../../..//binary/armv7a/gcc/am335x/beaglebone/platform/Release/libplatform.a(eeprom.o)
                0x800147b0                EEPROMI2CRead
 .text.BoardInfoRead
                0x80014984       0x34 ../../../../../..//binary/armv7a/gcc/am335x/beaglebone/platform/Release/libplatform.a(eeprom.o)
                0x80014984                BoardInfoRead
 .text.GPIO1Pin23PinMuxSetup
                0x800149b8       0x14 ../../../../../..//binary/armv7a/gcc/am335x/beaglebone/platform/Release/libplatform.a(gpio.o)
                0x800149b8                GPIO1Pin23PinMuxSetup
 .text.GPIO0ModuleClkConfig
                0x800149cc       0xdc ../../../../../..//binary/armv7a/gcc/am335x/beaglebone/platform/Release/libplatform.a(gpio.o)
                0x800149cc                GPIO0ModuleClkConfig
 .text.GPIO1ModuleClkConfig
                0x80014aa8       0x78 ../../../../../..//binary/armv7a/gcc/am335x/beaglebone/platform/Release/libplatform.a(gpio.o)
                0x80014aa8                GPIO1ModuleClkConfig
 .text.GpioPinMuxSetup
                0x80014b20       0x10 ../../../../../..//binary/armv7a/gcc/am335x/beaglebone/platform/Release/libplatform.a(gpio.o)
                0x80014b20                GpioPinMuxSetup
 .text.HSMMCSDPinMuxSetup
                0x80014b30       0x30 ../../../../../..//binary/armv7a/gcc/am335x/beaglebone/platform/Release/libplatform.a(hs_mmcsd.o)
                0x80014b30                HSMMCSDPinMuxSetup
 .text.HSMMCSDModuleClkConfig
                0x80014b60       0x2c ../../../../../..//binary/armv7a/gcc/am335x/beaglebone/platform/Release/libplatform.a(hs_mmcsd.o)
                0x80014b60                HSMMCSDModuleClkConfig
 .text.I2CPinMuxSetup
                0x80014b8c       0x3c ../../../../../..//binary/armv7a/gcc/am335x/beaglebone/platform/Release/libplatform.a(hsi2c.o)
                0x80014b8c                I2CPinMuxSetup
 .text.I2C0ModuleClkConfig
                0x80014bc8      0x25c ../../../../../..//binary/armv7a/gcc/am335x/beaglebone/platform/Release/libplatform.a(hsi2c.o)
                0x80014bc8                I2C0ModuleClkConfig
 .text.RtcVersionGet
                0x80014e24        0x8 ../../../../../..//binary/armv7a/gcc/am335x/beaglebone/platform/Release/libplatform.a(rtc.o)
                0x80014e24                RtcVersionGet
 .text.RTCModuleClkConfig
                0x80014e2c      0x298 ../../../../../..//binary/armv7a/gcc/am335x/beaglebone/platform/Release/libplatform.a(rtc.o)
                0x80014e2c                RTCModuleClkConfig
 .text.DMTimerIsr
                0x800150c4       0x44 ../../../../../..//binary/armv7a/gcc/am335x/beaglebone/platform/Release/libplatform.a(sysdelay.o)
 .text.SysDelayTimerSetup
                0x80015108       0x84 ../../../../../..//binary/armv7a/gcc/am335x/beaglebone/platform/Release/libplatform.a(sysdelay.o)
                0x80015108                SysDelayTimerSetup
 .text.Sysdelay
                0x8001518c       0x88 ../../../../../..//binary/armv7a/gcc/am335x/beaglebone/platform/Release/libplatform.a(sysdelay.o)
                0x8001518c                Sysdelay
 .text.UARTConsoleInit
                0x80015214       0xf0 ../../../../../..//binary/armv7a/gcc/am335x/beaglebone/platform/Release/libplatform.a(uartConsole.o)
                0x80015214                UARTConsoleInit
 .text.UARTConsolePutc
                0x80015304       0x20 ../../../../../..//binary/armv7a/gcc/am335x/beaglebone/platform/Release/libplatform.a(uartConsole.o)
                0x80015304                UARTConsolePutc
 .text.UARTConsoleGetc
                0x80015324       0x20 ../../../../../..//binary/armv7a/gcc/am335x/beaglebone/platform/Release/libplatform.a(uartConsole.o)
                0x80015324                UARTConsoleGetc
 .text.UARTPinMuxSetup
                0x80015344       0x24 ../../../../../..//binary/armv7a/gcc/am335x/beaglebone/platform/Release/libplatform.a(uart.o)
                0x80015344                UARTPinMuxSetup
 .text.UART0ModuleClkConfig
                0x80015368      0x25c ../../../../../..//binary/armv7a/gcc/am335x/beaglebone/platform/Release/libplatform.a(uart.o)
                0x80015368                UART0ModuleClkConfig
 .text.HSMMCSDCardPresent
                0x800155c4       0x18 ../../../../../..//binary/armv7a/gcc/mmcsdlib/Release/libmmcsd.a(hs_mmcsdlib.o)
                0x800155c4                HSMMCSDCardPresent
 .text.HSMMCSDIntEnable
                0x800155dc       0x20 ../../../../../..//binary/armv7a/gcc/mmcsdlib/Release/libmmcsd.a(hs_mmcsdlib.o)
                0x800155dc                HSMMCSDIntEnable
 .text.HSMMCSDControllerInit
                0x800155fc      0x124 ../../../../../..//binary/armv7a/gcc/mmcsdlib/Release/libmmcsd.a(hs_mmcsdlib.o)
                0x800155fc                HSMMCSDControllerInit
 .text.HSMMCSDCmdSend
                0x80015720      0x12c ../../../../../..//binary/armv7a/gcc/mmcsdlib/Release/libmmcsd.a(hs_mmcsdlib.o)
                0x80015720                HSMMCSDCmdSend
 .text.HSMMCSDBusWidthConfig
                0x8001584c       0x20 ../../../../../..//binary/armv7a/gcc/mmcsdlib/Release/libmmcsd.a(hs_mmcsdlib.o)
                0x8001584c                HSMMCSDBusWidthConfig
 .text.HSMMCSDBusFreqConfig
                0x8001586c       0x20 ../../../../../..//binary/armv7a/gcc/mmcsdlib/Release/libmmcsd.a(hs_mmcsdlib.o)
                0x8001586c                HSMMCSDBusFreqConfig
 .text.MMCSDAppCmdSend
                0x8001588c       0x58 ../../../../../..//binary/armv7a/gcc/mmcsdlib/Release/libmmcsd.a(mmcsd_proto.o)
                0x8001588c                MMCSDAppCmdSend
 .text.MMCSDBusWidthSet
                0x800158e4       0x98 ../../../../../..//binary/armv7a/gcc/mmcsdlib/Release/libmmcsd.a(mmcsd_proto.o)
                0x800158e4                MMCSDBusWidthSet
 .text.MMCSDTranSpeedSet
                0x8001597c       0xf0 ../../../../../..//binary/armv7a/gcc/mmcsdlib/Release/libmmcsd.a(mmcsd_proto.o)
                0x8001597c                MMCSDTranSpeedSet
 .text.MMCSDCardTypeCheck
                0x80015a6c       0x34 ../../../../../..//binary/armv7a/gcc/mmcsdlib/Release/libmmcsd.a(mmcsd_proto.o)
                0x80015a6c                MMCSDCardTypeCheck
 .text.MMCSDCtrlInit
                0x80015aa0       0x10 ../../../../../..//binary/armv7a/gcc/mmcsdlib/Release/libmmcsd.a(mmcsd_proto.o)
                0x80015aa0                MMCSDCtrlInit
 .text.MMCSDIntEnable
                0x80015ab0       0x10 ../../../../../..//binary/armv7a/gcc/mmcsdlib/Release/libmmcsd.a(mmcsd_proto.o)
                0x80015ab0                MMCSDIntEnable
 .text.MMCSDCardInit
                0x80015ac0      0x41c ../../../../../..//binary/armv7a/gcc/mmcsdlib/Release/libmmcsd.a(mmcsd_proto.o)
                0x80015ac0                MMCSDCardInit
 .text.MMCSDWriteCmdSend
                0x80015edc      0x110 ../../../../../..//binary/armv7a/gcc/mmcsdlib/Release/libmmcsd.a(mmcsd_proto.o)
                0x80015edc                MMCSDWriteCmdSend
 .text.MMCSDReadCmdSend
                0x80015fec      0x108 ../../../../../..//binary/armv7a/gcc/mmcsdlib/Release/libmmcsd.a(mmcsd_proto.o)
                0x80015fec                MMCSDReadCmdSend
 .text.CacheDisable
                0x800160f4       0x68 ../../../../../..//binary/armv7a/gcc/am335x/system_config/Release/libsystem_config.a(cache.o)
                0x800160f4                CacheDisable
 .text.CacheEnable
                0x8001615c       0x84 ../../../../../..//binary/armv7a/gcc/am335x/system_config/Release/libsystem_config.a(cache.o)
                0x8001615c                CacheEnable
 .text.CacheDataCleanBuff
                0x800161e0       0x14 ../../../../../..//binary/armv7a/gcc/am335x/system_config/Release/libsystem_config.a(cache.o)
                0x800161e0                CacheDataCleanBuff
 .text.CacheDataInvalidateBuff
                0x800161f4       0x14 ../../../../../..//binary/armv7a/gcc/am335x/system_config/Release/libsystem_config.a(cache.o)
                0x800161f4                CacheDataInvalidateBuff
 .text.setLPBypassMode.part.0
                0x80016208       0x44 ../../../../../..//binary/armv7a/gcc/am335x/system_config/Release/libsystem_config.a(clock.o)
 .text.setLPBypassMode
                0x8001624c       0x68 ../../../../../..//binary/armv7a/gcc/am335x/system_config/Release/libsystem_config.a(clock.o)
                0x8001624c                setLPBypassMode
 .text.configADPLL
                0x800162b4      0x10c ../../../../../..//binary/armv7a/gcc/am335x/system_config/Release/libsystem_config.a(clock.o)
                0x800162b4                configADPLL
 .text.enableClock
                0x800163c0      0x134 ../../../../../..//binary/armv7a/gcc/am335x/system_config/Release/libsystem_config.a(clock.o)
 .text.enableModuleClock
                0x800164f4       0xe4 ../../../../../..//binary/armv7a/gcc/am335x/system_config/Release/libsystem_config.a(clock.o)
                0x800164f4                enableModuleClock
 .text.disableModuleClock
                0x800165d8      0x19c ../../../../../..//binary/armv7a/gcc/am335x/system_config/Release/libsystem_config.a(clock.o)
                0x800165d8                disableModuleClock
 .text.disableSelModuleClock
                0x80016774       0x74 ../../../../../..//binary/armv7a/gcc/am335x/system_config/Release/libsystem_config.a(clock.o)
                0x80016774                disableSelModuleClock
 .text.enableSelModuleClock
                0x800167e8       0x54 ../../../../../..//binary/armv7a/gcc/am335x/system_config/Release/libsystem_config.a(clock.o)
                0x800167e8                enableSelModuleClock
 .text          0x8001683c      0x488 ../../../../../..//binary/armv7a/gcc/am335x/system_config/Release/libsystem_config.a(cp15.o)
                0x8001683c                CP15ICacheDisable
                0x80016858                CP15DCacheDisable
                0x80016874                CP15ICacheEnable
                0x80016884                CP15DCacheEnable
                0x80016894                CP15DCacheFlush
                0x80016928                CP15DCacheClean
                0x800169bc                CP15DCacheCleanFlush
                0x80016a50                CP15ICacheFlush
                0x80016a60                CP15DCacheCleanBuff
                0x80016ab4                CP15DCacheCleanFlushBuff
                0x80016b08                CP15DCacheFlushBuff
                0x80016b6c                CP15ICacheFlushBuff
                0x80016bc0                CP15Ttb0Set
                0x80016bcc                CP15TlbInvalidate
                0x80016bd8                CP15MMUDisable
                0x80016bf0                CP15MMUEnable
                0x80016c04                CP15VectorBaseAddrSet
                0x80016c10                CP15BranchPredictorInvalidate
                0x80016c1c                CP15BranchPredictionEnable
                0x80016c2c                CP15BranchPredictionDisable
                0x80016c3c                CP15DomainAccessClientSet
                0x80016c4c                CP15ControlFeatureDisable
                0x80016c60                CP15ControlFeatureEnable
                0x80016c74                CP15TtbCtlTtb0Config
                0x80016c84                CP15AuxControlFeatureEnable
                0x80016c98                CP15AuxControlFeatureDisable
                0x80016cac                CP15MainIdPrimPartNumGet
 .text.DeviceVersionGet
                0x80016cc4       0x14 ../../../../../..//binary/armv7a/gcc/am335x/system_config/Release/libsystem_config.a(device.o)
                0x80016cc4                DeviceVersionGet
 .text.IntDefaultHandler
                0x80016cd8        0x4 ../../../../../..//binary/armv7a/gcc/am335x/system_config/Release/libsystem_config.a(interrupt.o)
 .text.IntRegister
                0x80016cdc       0x10 ../../../../../..//binary/armv7a/gcc/am335x/system_config/Release/libsystem_config.a(interrupt.o)
                0x80016cdc                IntRegister
 .text.IntAINTCInit
                0x80016cec       0x54 ../../../../../..//binary/armv7a/gcc/am335x/system_config/Release/libsystem_config.a(interrupt.o)
                0x80016cec                IntAINTCInit
 .text.IntPrioritySet
                0x80016d40       0x24 ../../../../../..//binary/armv7a/gcc/am335x/system_config/Release/libsystem_config.a(interrupt.o)
                0x80016d40                IntPrioritySet
 .text.IntSystemEnable
                0x80016d64       0x24 ../../../../../..//binary/armv7a/gcc/am335x/system_config/Release/libsystem_config.a(interrupt.o)
                0x80016d64                IntSystemEnable
 .text.IntMasterIRQEnable
                0x80016d88       0x14 ../../../../../..//binary/armv7a/gcc/am335x/system_config/Release/libsystem_config.a(interrupt.o)
                0x80016d88                IntMasterIRQEnable
 .text.IntMasterIRQDisable
                0x80016d9c       0x14 ../../../../../..//binary/armv7a/gcc/am335x/system_config/Release/libsystem_config.a(interrupt.o)
                0x80016d9c                IntMasterIRQDisable
 .text.IntMasterStatusGet
                0x80016db0       0x14 ../../../../../..//binary/armv7a/gcc/am335x/system_config/Release/libsystem_config.a(interrupt.o)
                0x80016db0                IntMasterStatusGet
 .text.MMUInit  0x80016dc4       0x54 ../../../../../..//binary/armv7a/gcc/am335x/system_config/Release/libsystem_config.a(mmu.o)
                0x80016dc4                MMUInit
 .text.MMUMemRegionMap
                0x80016e18       0x74 ../../../../../..//binary/armv7a/gcc/am335x/system_config/Release/libsystem_config.a(mmu.o)
                0x80016e18                MMUMemRegionMap
 .text.MMUEnable
                0x80016e8c       0x20 ../../../../../..//binary/armv7a/gcc/am335x/system_config/Release/libsystem_config.a(mmu.o)
                0x80016e8c                MMUEnable
 .text.start_boot
                0x80016eac       0x60 ../../../../../..//binary/armv7a/gcc/am335x/system_config/Release/libsystem_config.a(startup.o)
                0x80016eac                start_boot
 .text.CPUIntStatus
                0x80016f0c        0xc ../../../../../..//binary/armv7a/gcc/am335x/system_config/Release/libsystem_config.a(cpu.o)
                0x80016f0c                CPUIntStatus
 .text.CPUirqd  0x80016f18       0x14 ../../../../../..//binary/armv7a/gcc/am335x/system_config/Release/libsystem_config.a(cpu.o)
                0x80016f18                CPUirqd
 .text.CPUirqe  0x80016f2c       0x14 ../../../../../..//binary/armv7a/gcc/am335x/system_config/Release/libsystem_config.a(cpu.o)
                0x80016f2c                CPUirqe
 .text          0x80016f40       0xf0 ../../../../../..//binary/armv7a/gcc/am335x/system_config/Release/libsystem_config.a(exceptionhandler.o)
                0x80016f40                SVC_Handler
                0x80016f68                IRQHandler
                0x80017014                FIQHandler
                0x80017018                UndefInstHandler
                0x80017018                AbortHandler
 .text.memcmp   0x80017030       0xb4 /home/abby/opt/gcc-arm-none-eabi-4_7-2012q4//arm-none-eabi/lib//libc.a(lib_a-memcmp.o)
                0x80017030                memcmp
 .text.memcpy   0x800170e4       0xf4 /home/abby/opt/gcc-arm-none-eabi-4_7-2012q4//arm-none-eabi/lib//libc.a(lib_a-memcpy.o)
                0x800170e4                memcpy
 .text.memset   0x800171d8       0xf8 /home/abby/opt/gcc-arm-none-eabi-4_7-2012q4//arm-none-eabi/lib//libc.a(lib_a-memset.o)
                0x800171d8                memset
 .text.stpcpy   0x800172d0       0x84 /home/abby/opt/gcc-arm-none-eabi-4_7-2012q4//arm-none-eabi/lib//libc.a(lib_a-stpcpy.o)
                0x800172d0                stpcpy
 .text.strcat   0x80017354       0xa0 /home/abby/opt/gcc-arm-none-eabi-4_7-2012q4//arm-none-eabi/lib//libc.a(lib_a-strcat.o)
                0x80017354                strcat
 .text.strchr   0x800173f4      0x1dc /home/abby/opt/gcc-arm-none-eabi-4_7-2012q4//arm-none-eabi/lib//libc.a(lib_a-strchr.o)
                0x800173f4                strchr
 .text.strcmp   0x800175d0       0x94 /home/abby/opt/gcc-arm-none-eabi-4_7-2012q4//arm-none-eabi/lib//libc.a(lib_a-strcmp.o)
                0x800175d0                strcmp
 .text.strcmp_unaligned
                0x80017664      0x19c /home/abby/opt/gcc-arm-none-eabi-4_7-2012q4//arm-none-eabi/lib//libc.a(lib_a-strcmp.o)
 .text.strcpy   0x80017800       0xf0 /home/abby/opt/gcc-arm-none-eabi-4_7-2012q4//arm-none-eabi/lib//libc.a(lib_a-strcpy.o)
                0x80017800                strcpy
 .text.strlen   0x800178f0       0x60 /home/abby/opt/gcc-arm-none-eabi-4_7-2012q4//arm-none-eabi/lib//libc.a(lib_a-strlen.o)
                0x800178f0                strlen
 .text.strncmp  0x80017950      0x140 /home/abby/opt/gcc-arm-none-eabi-4_7-2012q4//arm-none-eabi/lib//libc.a(lib_a-strncmp.o)
                0x80017950                strncmp
 .text.strncpy  0x80017a90       0xc8 /home/abby/opt/gcc-arm-none-eabi-4_7-2012q4//arm-none-eabi/lib//libc.a(lib_a-strncpy.o)
                0x80017a90                strncpy
 .text          0x80017b58      0x114 /home/abby/opt/gcc-arm-none-eabi-4_7-2012q4//lib/gcc/arm-none-eabi/4.7.3//libgcc.a(_udivsi3.o)
                0x80017b58                __udivsi3
                0x80017b58                __aeabi_uidiv
                0x80017c4c                __aeabi_uidivmod
 .text          0x80017c6c      0x148 /home/abby/opt/gcc-arm-none-eabi-4_7-2012q4//lib/gcc/arm-none-eabi/4.7.3//libgcc.a(_divsi3.o)
                0x80017c6c                __aeabi_idiv
                0x80017c6c                __divsi3
                0x80017d94                __aeabi_idivmod
 .text          0x80017db4        0x4 /home/abby/opt/gcc-arm-none-eabi-4_7-2012q4//lib/gcc/arm-none-eabi/4.7.3//libgcc.a(_dvmd_tls.o)
                0x80017db4                __aeabi_ldiv0
                0x80017db4                __aeabi_idiv0
 *(.rodata*)
 .rodata.str1.4
                0x80017db8       0x11 Release/cm3wkup_proxy.o
                                 0x14 (size before relaxing)
 *fill*         0x80017dc9        0x3 00
 .rodata.cm3image
                0x80017dcc     0x2df4 Release/cm3wkup_proxy.o
                0x80017dcc                cm3image
 .rodata.str1.4
                0x8001abc0       0x75 Release/demoDvfs.o
                                 0x7c (size before relaxing)
 *fill*         0x8001ac35        0x3 00
 .rodata.g_psConfigCGIURIs
                0x8001ac38        0x8 Release/demoEnet.o
 .rodata.str1.4
                0x8001ac40      0x170 Release/demoEnet.o
 .rodata        0x8001adb0       0x54 Release/demoMain.o
 .rodata.pageNavSpecMMCSD
                0x8001ae04       0x20 Release/demoMain.o
 .rodata.pageNavSpecRtc
                0x8001ae24       0x20 Release/demoMain.o
 .rodata.pageNavSpecTimer
                0x8001ae44       0x18 Release/demoMain.o
 .rodata.str1.4
                0x8001ae5c      0x319 Release/demoMain.o
                                0x324 (size before relaxing)
 *fill*         0x8001b175        0x3 00
 .rodata.pageNavSpecGPIO
                0x8001b178       0x18 Release/demoMain.o
 .rodata.pageNavSpecMenu
                0x8001b190       0x30 Release/demoMain.o
 .rodata.pageNavSpecPM
                0x8001b1c0       0x40 Release/demoMain.o
 .rodata.pageNavSpecWeb
                0x8001b200       0x20 Release/demoMain.o
 .rodata.str1.4
                0x8001b220       0xd8 Release/demoPwrMgmnt.o
                                 0xdc (size before relaxing)
 .rodata.str1.4
                0x8001b2f8      0x190 Release/demoRtc.o
                                0x194 (size before relaxing)
 .rodata.str1.4
                0x8001b488      0x3f4 Release/demoSdFs.o
                                0x410 (size before relaxing)
 .rodata.str1.4
                0x8001b87c       0x16 Release/fat_mmcsd.o
                                 0x18 (size before relaxing)
 *fill*         0x8001b892        0x2 00
 .rodata.str1.4
                0x8001b894        0xa Release/ff.o
                                  0xc (size before relaxing)
 *fill*         0x8001b89e        0x2 00
 .rodata.file_board_js
                0x8001b8a0       0x14 Release/httpd_io.o
                0x8001b8a0                file_board_js
 .rodata.data_jquery_1_6_4_min_js
                0x8001b8b4    0x166a0 Release/httpd_io.o
 .rodata.data_style_css
                0x80031f54     0x1108 Release/httpd_io.o
 .rodata.file_jquery_1_6_4_min_js
                0x8003305c       0x14 Release/httpd_io.o
                0x8003305c                file_jquery_1_6_4_min_js
 .rodata.data_button_dim_sel_png
                0x80033070      0x1c4 Release/httpd_io.o
 .rodata.data_next_png
                0x80033234      0x4b8 Release/httpd_io.o
 .rodata.file_button_dim_png
                0x800336ec       0x14 Release/httpd_io.o
                0x800336ec                file_button_dim_png
 .rodata.data_index_html
                0x80033700      0x6e0 Release/httpd_io.o
 .rodata.file_button_dim_sel_png
                0x80033de0       0x14 Release/httpd_io.o
                0x80033de0                file_button_dim_sel_png
 .rodata.data_board_js
                0x80033df4      0xdb4 Release/httpd_io.o
 .rodata.data_button_sel_png
                0x80034ba8      0x1c0 Release/httpd_io.o
 .rodata.file_next_png
                0x80034d68       0x14 Release/httpd_io.o
                0x80034d68                file_next_png
 .rodata.data_splash_png
                0x80034d7c      0x2fc Release/httpd_io.o
 .rodata.file_style_css
                0x80035078       0x14 Release/httpd_io.o
                0x80035078                file_style_css
 .rodata.file_index_html
                0x8003508c       0x14 Release/httpd_io.o
                0x8003508c                file_index_html
 .rodata.file_button_sel_png
                0x800350a0       0x14 Release/httpd_io.o
                0x800350a0                file_button_sel_png
 .rodata.g_psDefaultFilenames
                0x800350b4       0x28 Release/httpd_io.o
                0x800350b4                g_psDefaultFilenames
 .rodata.file_splash_png
                0x800350dc       0x14 Release/httpd_io.o
                0x800350dc                file_splash_png
 .rodata.file_canvas_png
                0x800350f0       0x14 Release/httpd_io.o
                0x800350f0                file_canvas_png
 .rodata.data_ti_script_js
                0x80035104     0x2084 Release/httpd_io.o
 .rodata.str1.4
                0x80037188       0x73 Release/httpd_io.o
                                 0x7c (size before relaxing)
 *fill*         0x800371fb        0x1 00
 .rodata.data_prev_png
                0x800371fc      0x49c Release/httpd_io.o
 .rodata.data_button_png
                0x80037698      0x1a4 Release/httpd_io.o
 .rodata.file_tip_png
                0x8003783c       0x14 Release/httpd_io.o
                0x8003783c                file_tip_png
 .rodata.file_ti_script_js
                0x80037850       0x14 Release/httpd_io.o
                0x80037850                file_ti_script_js
 .rodata.data_gradient_header_png
                0x80037864      0x2d0 Release/httpd_io.o
 .rodata.file_button_png
                0x80037b34       0x14 Release/httpd_io.o
                0x80037b34                file_button_png
 .rodata.data_up_png
                0x80037b48      0x458 Release/httpd_io.o
 .rodata.file_gradient_header_png
                0x80037fa0       0x14 Release/httpd_io.o
                0x80037fa0                file_gradient_header_png
 .rodata.data_tip_png
                0x80037fb4      0x154 Release/httpd_io.o
 .rodata.file_up_png
                0x80038108       0x14 Release/httpd_io.o
                0x80038108                file_up_png
 .rodata.file_prev_png
                0x8003811c       0x14 Release/httpd_io.o
                0x8003811c                file_prev_png
 .rodata.data_theme_css
                0x80038130      0xdc4 Release/httpd_io.o
 .rodata.file_theme_css
                0x80038ef4       0x14 Release/httpd_io.o
                0x80038ef4                file_theme_css
 .rodata.data_canvas_png
                0x80038f08      0x368 Release/httpd_io.o
 .rodata.data_hdr_ti_logo_gif
                0x80039270     0x11f4 Release/httpd_io.o
 .rodata.file_hdr_ti_logo_gif
                0x8003a464       0x14 Release/httpd_io.o
                0x8003a464                file_hdr_ti_logo_gif
 .rodata.data_button_dim_png
                0x8003a478      0x1a8 Release/httpd_io.o
 .rodata.memp_num
                0x8003a620       0x10 Release/lwiplib.o
 .rodata.ip_addr_broadcast
                0x8003a630        0x4 Release/lwiplib.o
                0x8003a630                ip_addr_broadcast
 .rodata.ethbroadcast
                0x8003a634        0x8 Release/lwiplib.o
                0x8003a634                ethbroadcast
 .rodata.memp_sizes
                0x8003a63c       0x10 Release/lwiplib.o
 .rodata.str1.4
                0x8003a64c      0x50e Release/lwiplib.o
                                0x510 (size before relaxing)
 *fill*         0x8003ab5a        0x2 00
 .rodata.ethzero
                0x8003ab5c        0x8 Release/lwiplib.o
                0x8003ab5c                ethzero
 .rodata.memp_bases
                0x8003ab64       0x1c Release/lwiplib.o
 .rodata.tcp_pcb_lists
                0x8003ab80       0x10 Release/lwiplib.o
                0x8003ab80                tcp_pcb_lists
 .rodata.ip_addr_any
                0x8003ab90        0x4 Release/lwiplib.o
                0x8003ab90                ip_addr_any
 .rodata.str1.4
                0x8003ab94       0x50 ../../../../../..//binary/armv7a/gcc/utils/Release/libutils.a(consoleUtils.o)
 .rodata.str1.4
                0x8003abe4       0x5c ../../../../../..//binary/armv7a/gcc/utils/Release/libutils.a(uartStdio.o)
                                 0x60 (size before relaxing)
 .rodata.str1.4
                0x8003ac40       0x2d ../../../../../..//binary/armv7a/gcc/am335x/beaglebone/platform/Release/libplatform.a(board.o)
                                 0x30 (size before relaxing)
 *fill*         0x8003ac6d        0x3 00
 .rodata.str1.4
                0x8003ac70       0x60 ../../../../../..//binary/armv7a/gcc/mmcsdlib/Release/libmmcsd.a(hs_mmcsdlib.o)
 .rodata.vecTbl
                0x8003acd0       0x38 ../../../../../..//binary/armv7a/gcc/am335x/system_config/Release/libsystem_config.a(startup.o)

.glue_7         0x8003ad08        0x0
 .glue_7        0x00000000        0x0 linker stubs

.glue_7t        0x8003ad08        0x0
 .glue_7t       0x00000000        0x0 linker stubs

.vfp11_veneer   0x8003ad08        0x0
 .vfp11_veneer  0x00000000        0x0 linker stubs

.v4_bx          0x8003ad08        0x0
 .v4_bx         0x00000000        0x0 linker stubs

.iplt           0x8003ad08        0x0
 .iplt          0x00000000        0x0 Release/am335x_clock_data.o

.rel.dyn        0x8003ad08        0x0
 .rel.iplt      0x00000000        0x0 Release/am335x_clock_data.o

.data           0x8003ad08     0x4bfc
                0x8003ad08                . = ALIGN (0x4)
 *(.data*)
 .data.adcFclkClock
                0x8003ad08       0x58 Release/am335x_clock_data.o
                0x8003ad08                adcFclkClock
 .data.dpllCore
                0x8003ad60       0x80 Release/am335x_clock_data.o
                0x8003ad60                dpllCore
 .data.mcaspGclkClock
                0x8003ade0       0x58 Release/am335x_clock_data.o
                0x8003ade0                mcaspGclkClock
 .data.uart0ModClock
                0x8003ae38       0x50 Release/am335x_clock_data.o
                0x8003ae38                uart0ModClock
 .data.dpllMpuClock
                0x8003ae88       0x58 Release/am335x_clock_data.o
                0x8003ae88                dpllMpuClock
 .data.dpllMpuM2ClkDivider
                0x8003aee0       0x3c Release/am335x_clock_data.o
                0x8003aee0                dpllMpuM2ClkDivider
 .data.l4RtcGclkIclkClock
                0x8003af1c       0x58 Release/am335x_clock_data.o
                0x8003af1c                l4RtcGclkIclkClock
 .data.gpio1IclkClock
                0x8003af74       0x58 Release/am335x_clock_data.o
                0x8003af74                gpio1IclkClock
 .data.l4WkupAonClkDomain
                0x8003afcc      0x154 Release/am335x_clock_data.o
                0x8003afcc                l4WkupAonClkDomain
 .data.cpswCptsFclkClock
                0x8003b120       0x58 Release/am335x_clock_data.o
                0x8003b120                cpswCptsFclkClock
 .data.wkupClkDomain
                0x8003b178      0x154 Release/am335x_clock_data.o
                0x8003b178                wkupClkDomain
 .data.dpllPerM2ClkDivider
                0x8003b2cc       0x3c Release/am335x_clock_data.o
                0x8003b2cc                dpllPerM2ClkDivider
 .data.i2c0IclkClock
                0x8003b308       0x58 Release/am335x_clock_data.o
                0x8003b308                i2c0IclkClock
 .data.tptc2ModClock
                0x8003b360       0x50 Release/am335x_clock_data.o
                0x8003b360                tptc2ModClock
 .data.l4WkupAonGclkClock
                0x8003b3b0       0x58 Release/am335x_clock_data.o
                0x8003b3b0                l4WkupAonGclkClock
 .data.ocmcramIclkClock
                0x8003b408       0x58 Release/am335x_clock_data.o
                0x8003b408                ocmcramIclkClock
 .data.rtcClkDomain
                0x8003b460      0x154 Release/am335x_clock_data.o
                0x8003b460                rtcClkDomain
 .data.lcdcL3IclkClock
                0x8003b5b4       0x58 Release/am335x_clock_data.o
                0x8003b5b4                lcdcL3IclkClock
 .data.dpllCoreM4ClkDivider
                0x8003b60c       0x3c Release/am335x_clock_data.o
                0x8003b60c                dpllCoreM4ClkDivider
 .data.lcdcL4IclkClock
                0x8003b648       0x58 Release/am335x_clock_data.o
                0x8003b648                lcdcL4IclkClock
 .data.lcdL4sGclkClock
                0x8003b6a0       0x58 Release/am335x_clock_data.o
                0x8003b6a0                lcdL4sGclkClock
 .data.dpllDdrClock
                0x8003b6f8       0x58 Release/am335x_clock_data.o
                0x8003b6f8                dpllDdrClock
 .data.usbPllclkClock
                0x8003b750       0x58 Release/am335x_clock_data.o
                0x8003b750                usbPllclkClock
 .data.wkupM3ModClock
                0x8003b7a8       0x50 Release/am335x_clock_data.o
                0x8003b7a8                wkupM3ModClock
 .data.timer3IclkClock
                0x8003b7f8       0x58 Release/am335x_clock_data.o
                0x8003b7f8                timer3IclkClock
 .data.spiGclkClock
                0x8003b850       0x58 Release/am335x_clock_data.o
                0x8003b850                spiGclkClock
 .data.lcdcModClock
                0x8003b8a8       0x50 Release/am335x_clock_data.o
                0x8003b8a8                lcdcModClock
 .data.adcTscModClock
                0x8003b8f8       0x50 Release/am335x_clock_data.o
                0x8003b8f8                adcTscModClock
 .data.lcdcMuxClock
                0x8003b948       0x58 Release/am335x_clock_data.o
                0x8003b948                lcdcMuxClock
 .data.l4fwClkDomain
                0x8003b9a0      0x154 Release/am335x_clock_data.o
                0x8003b9a0                l4fwClkDomain
 .data.mcasp1ModClock
                0x8003baf4       0x50 Release/am335x_clock_data.o
                0x8003baf4                mcasp1ModClock
 .data.i2c1FclkClock
                0x8003bb44       0x58 Release/am335x_clock_data.o
                0x8003bb44                i2c1FclkClock
 .data.timer7IclkClock
                0x8003bb9c       0x58 Release/am335x_clock_data.o
                0x8003bb9c                timer7IclkClock
 .data.ocmcramModClock
                0x8003bbf4       0x50 Release/am335x_clock_data.o
                0x8003bbf4                ocmcramModClock
 .data.timer3ModClock
                0x8003bc44       0x50 Release/am335x_clock_data.o
                0x8003bc44                timer3ModClock
 .data.l4fwGclkClock
                0x8003bc94       0x58 Release/am335x_clock_data.o
                0x8003bc94                l4fwGclkClock
 .data.tpccModClock
                0x8003bcec       0x50 Release/am335x_clock_data.o
                0x8003bcec                tpccModClock
 .data.gpmcIclkClock
                0x8003bd3c       0x58 Release/am335x_clock_data.o
                0x8003bd3c                gpmcIclkClock
 .data.rtcModClock
                0x8003bd94       0x50 Release/am335x_clock_data.o
                0x8003bd94                rtcModClock
 .data.adcTscIclkClock
                0x8003bde4       0x58 Release/am335x_clock_data.o
                0x8003bde4                adcTscIclkClock
 .data.gpio1ModClock
                0x8003be3c       0x50 Release/am335x_clock_data.o
                0x8003be3c                gpio1ModClock
 .data.mpuModClock
                0x8003be8c       0x50 Release/am335x_clock_data.o
                0x8003be8c                mpuModClock
 .data.i2c0ModClock
                0x8003bedc       0x50 Release/am335x_clock_data.o
                0x8003bedc                i2c0ModClock
 .data.mcasp1IclkClock
                0x8003bf2c       0x58 Release/am335x_clock_data.o
                0x8003bf2c                mcasp1IclkClock
 .data.mpuPllM2Clock
                0x8003bf84       0x58 Release/am335x_clock_data.o
                0x8003bf84                mpuPllM2Clock
 .data.tpccIclkClock
                0x8003bfdc       0x58 Release/am335x_clock_data.o
                0x8003bfdc                tpccIclkClock
 .data.tptc0IclkClock
                0x8003c034       0x58 Release/am335x_clock_data.o
                0x8003c034                tptc0IclkClock
 .data.tptc1IclkClock
                0x8003c08c       0x58 Release/am335x_clock_data.o
                0x8003c08c                tptc1IclkClock
 .data.dpllCoreClock
                0x8003c0e4       0x58 Release/am335x_clock_data.o
                0x8003c0e4                dpllCoreClock
 .data.tptc2IclkClock
                0x8003c13c       0x58 Release/am335x_clock_data.o
                0x8003c13c                tptc2IclkClock
 .data.timer2IclkClock
                0x8003c194       0x58 Release/am335x_clock_data.o
                0x8003c194                timer2IclkClock
 .data.mpuIclkClock
                0x8003c1ec       0x58 Release/am335x_clock_data.o
                0x8003c1ec                mpuIclkClock
 .data.clk32KhzTimerClock
                0x8003c244       0x58 Release/am335x_clock_data.o
                0x8003c244                clk32KhzTimerClock
 .data.timer4IclkClock
                0x8003c29c       0x58 Release/am335x_clock_data.o
                0x8003c29c                timer4IclkClock
 .data.mailbox0ModClock
                0x8003c2f4       0x50 Release/am335x_clock_data.o
                0x8003c2f4                mailbox0ModClock
 .data.wdt1ModClock
                0x8003c344       0x50 Release/am335x_clock_data.o
                0x8003c344                wdt1ModClock
 .data.wdt1GclkClock
                0x8003c394       0x58 Release/am335x_clock_data.o
                0x8003c394                wdt1GclkClock
 .data.spi0IclkClock
                0x8003c3ec       0x58 Release/am335x_clock_data.o
                0x8003c3ec                spi0IclkClock
 .data.ddrPllM2Clock
                0x8003c444       0x58 Release/am335x_clock_data.o
                0x8003c444                ddrPllM2Clock
 .data.timer6ModClock
                0x8003c49c       0x50 Release/am335x_clock_data.o
                0x8003c49c                timer6ModClock
 .data.gpio0OptClock
                0x8003c4ec       0x58 Release/am335x_clock_data.o
                0x8003c4ec                gpio0OptClock
 .data.l4hsClkDomain
                0x8003c544      0x154 Release/am335x_clock_data.o
                0x8003c544                l4hsClkDomain
 .data.gpio0IclkClock
                0x8003c698       0x58 Release/am335x_clock_data.o
                0x8003c698                gpio0IclkClock
 .data.l3GclkClock
                0x8003c6f0       0x58 Release/am335x_clock_data.o
                0x8003c6f0                l3GclkClock
 .data.timer2ClkClock
                0x8003c748       0x58 Release/am335x_clock_data.o
                0x8003c748                timer2ClkClock
 .data.timer3ClkClock
                0x8003c7a0       0x58 Release/am335x_clock_data.o
                0x8003c7a0                timer3ClkClock
 .data.timer7ClkClock
                0x8003c7f8       0x58 Release/am335x_clock_data.o
                0x8003c7f8                timer7ClkClock
 .data.gpmcModClock
                0x8003c850       0x50 Release/am335x_clock_data.o
                0x8003c850                gpmcModClock
 .data.i2c1ModClock
                0x8003c8a0       0x50 Release/am335x_clock_data.o
                0x8003c8a0                i2c1ModClock
 .data.l3l4IcEnableClock
                0x8003c8f0       0x58 Release/am335x_clock_data.o
                0x8003c8f0                l3l4IcEnableClock
 .data.gpio3ModClock
                0x8003c948       0x50 Release/am335x_clock_data.o
                0x8003c948                gpio3ModClock
 .data.timer1IclkClock
                0x8003c998       0x58 Release/am335x_clock_data.o
                0x8003c998                timer1IclkClock
 .data.l4WkupModClock
                0x8003c9f0       0x50 Release/am335x_clock_data.o
                0x8003c9f0                l4WkupModClock
 .data.cpsw125MhzClkDomain
                0x8003ca40      0x154 Release/am335x_clock_data.o
                0x8003ca40                cpsw125MhzClkDomain
 .data.l4lsClkDomain
                0x8003cb94      0x154 Release/am335x_clock_data.o
                0x8003cb94                l4lsClkDomain
 .data.rtcIclkClock
                0x8003cce8       0x58 Release/am335x_clock_data.o
                0x8003cce8                rtcIclkClock
 .data.perPllClkdcoldoClock
                0x8003cd40       0x58 Release/am335x_clock_data.o
                0x8003cd40                perPllClkdcoldoClock
 .data.usb0IclkClock
                0x8003cd98       0x58 Release/am335x_clock_data.o
                0x8003cd98                usb0IclkClock
 .data.cpsw125MhzGclkClock
                0x8003cdf0       0x58 Release/am335x_clock_data.o
                0x8003cdf0                cpsw125MhzGclkClock
 .data.l4lsGclkClock
                0x8003ce48       0x58 Release/am335x_clock_data.o
                0x8003ce48                l4lsGclkClock
 .data.timer7ModClock
                0x8003cea0       0x50 Release/am335x_clock_data.o
                0x8003cea0                timer7ModClock
 .data.clk32KhzClock
                0x8003cef0       0x58 Release/am335x_clock_data.o
                0x8003cef0                clk32KhzClock
 .data.dpllMpu  0x8003cf48       0x80 Release/am335x_clock_data.o
                0x8003cf48                dpllMpu
 .data.gpio1OptClock
                0x8003cfc8       0x58 Release/am335x_clock_data.o
                0x8003cfc8                gpio1OptClock
 .data.dpllPer  0x8003d020       0x80 Release/am335x_clock_data.o
                0x8003d020                dpllPer
 .data.l4fwIclkClock
                0x8003d0a0       0x58 Release/am335x_clock_data.o
                0x8003d0a0                l4fwIclkClock
 .data.l3sClkDomain
                0x8003d0f8      0x154 Release/am335x_clock_data.o
                0x8003d0f8                l3sClkDomain
 .data.mailbox0IclkClock
                0x8003d24c       0x58 Release/am335x_clock_data.o
                0x8003d24c                mailbox0IclkClock
 .data.wdt1FclkClock
                0x8003d2a4       0x58 Release/am335x_clock_data.o
                0x8003d2a4                wdt1FclkClock
 .data.lcdcFclkClock
                0x8003d2fc       0x58 Release/am335x_clock_data.o
                0x8003d2fc                lcdcFclkClock
 .data.cpgmac0ModClock
                0x8003d354       0x50 Release/am335x_clock_data.o
                0x8003d354                cpgmac0ModClock
 .data.spi0ModClock
                0x8003d3a4       0x50 Release/am335x_clock_data.o
                0x8003d3a4                spi0ModClock
 .data.i2cGclkClock
                0x8003d3f4       0x58 Release/am335x_clock_data.o
                0x8003d3f4                i2cGclkClock
 .data.l3sGclkClock
                0x8003d44c       0x58 Release/am335x_clock_data.o
                0x8003d44c                l3sGclkClock
 .data.sysclk1Clock
                0x8003d4a4       0x58 Release/am335x_clock_data.o
                0x8003d4a4                sysclk1Clock
 .data.l4fwModClock
                0x8003d4fc       0x50 Release/am335x_clock_data.o
                0x8003d4fc                l4fwModClock
 .data.timer6FclkClock
                0x8003d54c       0x58 Release/am335x_clock_data.o
                0x8003d54c                timer6FclkClock
 .data.timer7FclkClock
                0x8003d5a4       0x58 Release/am335x_clock_data.o
                0x8003d5a4                timer7FclkClock
 .data.ModuleClockList
                0x8003d5fc       0x8c Release/am335x_clock_data.o
                0x8003d5fc                ModuleClockList
 .data.timer4ModClock
                0x8003d688       0x50 Release/am335x_clock_data.o
                0x8003d688                timer4ModClock
 .data.cpswMuxClock
                0x8003d6d8       0x58 Release/am335x_clock_data.o
                0x8003d6d8                cpswMuxClock
 .data.cpswCptsRftGclkClock
                0x8003d730       0x58 Release/am335x_clock_data.o
                0x8003d730                cpswCptsRftGclkClock
 .data.gpio3IclkClock
                0x8003d788       0x58 Release/am335x_clock_data.o
                0x8003d788                gpio3IclkClock
 .data.core100MClock
                0x8003d7e0       0x58 Release/am335x_clock_data.o
                0x8003d7e0                core100MClock
 .data.usbModClock
                0x8003d838       0x50 Release/am335x_clock_data.o
                0x8003d838                usbModClock
 .data.cpsw50MhzFclkClock
                0x8003d888       0x58 Release/am335x_clock_data.o
                0x8003d888                cpsw50MhzFclkClock
 .data.i2c1IclkClock
                0x8003d8e0       0x58 Release/am335x_clock_data.o
                0x8003d8e0                i2c1IclkClock
 .data.uartGclkClock
                0x8003d938       0x58 Release/am335x_clock_data.o
                0x8003d938                uartGclkClock
 .data.corePllM4Clock
                0x8003d990       0x58 Release/am335x_clock_data.o
                0x8003d990                corePllM4Clock
 .data.epwmss0ModClock
                0x8003d9e8       0x50 Release/am335x_clock_data.o
                0x8003d9e8                epwmss0ModClock
 .data.lcdcClkDomain
                0x8003da38      0x154 Release/am335x_clock_data.o
                0x8003da38                lcdcClkDomain
 .data.gpio1GclkClock
                0x8003db8c       0x58 Release/am335x_clock_data.o
                0x8003db8c                gpio1GclkClock
 .data.emifIclkClock
                0x8003dbe4       0x58 Release/am335x_clock_data.o
                0x8003dbe4                emifIclkClock
 .data.l4WkupGclkClock
                0x8003dc3c       0x58 Release/am335x_clock_data.o
                0x8003dc3c                l4WkupGclkClock
 .data.rtc32kGclkClock
                0x8003dc94       0x58 Release/am335x_clock_data.o
                0x8003dc94                rtc32kGclkClock
 .data.l3IclkClock
                0x8003dcec       0x58 Release/am335x_clock_data.o
                0x8003dcec                l3IclkClock
 .data.timer4ClkClock
                0x8003dd44       0x58 Release/am335x_clock_data.o
                0x8003dd44                timer4ClkClock
 .data.cpsw250MhzGclkClock
                0x8003dd9c       0x58 Release/am335x_clock_data.o
                0x8003dd9c                cpsw250MhzGclkClock
 .data.sysclk2Clock
                0x8003ddf4       0x58 Release/am335x_clock_data.o
                0x8003ddf4                sysclk2Clock
 .data.lcdcGclkClock
                0x8003de4c       0x58 Release/am335x_clock_data.o
                0x8003de4c                lcdcGclkClock
 .data.uart0IclkClock
                0x8003dea4       0x58 Release/am335x_clock_data.o
                0x8003dea4                uart0IclkClock
 .data.gpio0GclkClock
                0x8003defc       0x58 Release/am335x_clock_data.o
                0x8003defc                gpio0GclkClock
 .data.timer6GclkClock
                0x8003df54       0x58 Release/am335x_clock_data.o
                0x8003df54                timer6GclkClock
 .data.timer7GclkClock
                0x8003dfac       0x58 Release/am335x_clock_data.o
                0x8003dfac                timer7GclkClock
 .data.dpllDdrM2ClkDivider
                0x8003e004       0x3c Release/am335x_clock_data.o
                0x8003e004                dpllDdrM2ClkDivider
 .data.timer2ModClock
                0x8003e040       0x50 Release/am335x_clock_data.o
                0x8003e040                timer2ModClock
 .data.lcdL3GclkClock
                0x8003e090       0x58 Release/am335x_clock_data.o
                0x8003e090                lcdL3GclkClock
 .data.lcdcL4ClkEnableClock
                0x8003e0e8       0x58 Release/am335x_clock_data.o
                0x8003e0e8                lcdcL4ClkEnableClock
 .data.emifModClock
                0x8003e140       0x50 Release/am335x_clock_data.o
                0x8003e140                emifModClock
 .data.i2c0FclkClock
                0x8003e190       0x58 Release/am335x_clock_data.o
                0x8003e190                i2c0FclkClock
 .data.corePllM5Clock
                0x8003e1e8       0x58 Release/am335x_clock_data.o
                0x8003e1e8                corePllM5Clock
 .data.cpsw50MhzGclkClock
                0x8003e240       0x58 Release/am335x_clock_data.o
                0x8003e240                cpsw50MhzGclkClock
 .data.gpio3GclkClock
                0x8003e298       0x58 Release/am335x_clock_data.o
                0x8003e298                gpio3GclkClock
 .data.uart0GclkClock
                0x8003e2f0       0x58 Release/am335x_clock_data.o
                0x8003e2f0                uart0GclkClock
 .data.cpsw125MhzIclkClock
                0x8003e348       0x58 Release/am335x_clock_data.o
                0x8003e348                cpsw125MhzIclkClock
 .data.l4lsIclkClock
                0x8003e3a0       0x58 Release/am335x_clock_data.o
                0x8003e3a0                l4lsIclkClock
 .data.cpsw250MhzFclkClock
                0x8003e3f8       0x58 Release/am335x_clock_data.o
                0x8003e3f8                cpsw250MhzFclkClock
 .data.gpio3OptClock
                0x8003e450       0x58 Release/am335x_clock_data.o
                0x8003e450                gpio3OptClock
 .data.tptc0ModClock
                0x8003e4a8       0x50 Release/am335x_clock_data.o
                0x8003e4a8                tptc0ModClock
 .data.emifFclkClock
                0x8003e4f8       0x58 Release/am335x_clock_data.o
                0x8003e4f8                emifFclkClock
 .data.perL3ClkDomain
                0x8003e550      0x154 Release/am335x_clock_data.o
                0x8003e550                perL3ClkDomain
 .data.dpllPerClock
                0x8003e6a4       0x58 Release/am335x_clock_data.o
                0x8003e6a4                dpllPerClock
 .data.mcasp1FclkClock
                0x8003e6fc       0x58 Release/am335x_clock_data.o
                0x8003e6fc                mcasp1FclkClock
 .data.timer4FclkClock
                0x8003e754       0x58 Release/am335x_clock_data.o
                0x8003e754                timer4FclkClock
 .data.dpllCoreM5ClkDivider
                0x8003e7ac       0x3c Release/am335x_clock_data.o
                0x8003e7ac                dpllCoreM5ClkDivider
 .data.timer1FclkClock
                0x8003e7e8       0x58 Release/am335x_clock_data.o
                0x8003e7e8                timer1FclkClock
 .data.timer2FclkClock
                0x8003e840       0x58 Release/am335x_clock_data.o
                0x8003e840                timer2FclkClock
 .data.timer3FclkClock
                0x8003e898       0x58 Release/am335x_clock_data.o
                0x8003e898                timer3FclkClock
 .data.dpllDDR  0x8003e8f0       0x80 Release/am335x_clock_data.o
                0x8003e8f0                dpllDDR
 .data.uart0FclkClock
                0x8003e970       0x58 Release/am335x_clock_data.o
                0x8003e970                uart0FclkClock
 .data.cpsw5MhzFclkClock
                0x8003e9c8       0x58 Release/am335x_clock_data.o
                0x8003e9c8                cpsw5MhzFclkClock
 .data.i2c0GclkClock
                0x8003ea20       0x58 Release/am335x_clock_data.o
                0x8003ea20                i2c0GclkClock
 .data.spi0FclkClock
                0x8003ea78       0x58 Release/am335x_clock_data.o
                0x8003ea78                spi0FclkClock
 .data.dpllPerClkdcoldoDivider
                0x8003ead0       0x3c Release/am335x_clock_data.o
                0x8003ead0                dpllPerClkdcoldoDivider
 .data.cpswCptsRftMuxClock
                0x8003eb0c       0x58 Release/am335x_clock_data.o
                0x8003eb0c                cpswCptsRftMuxClock
 .data.wkupM3IclkClock
                0x8003eb64       0x58 Release/am335x_clock_data.o
                0x8003eb64                wkupM3IclkClock
 .data.l3ModClock
                0x8003ebbc       0x50 Release/am335x_clock_data.o
                0x8003ebbc                l3ModClock
 .data.clk32768Clock
                0x8003ec0c       0x58 Release/am335x_clock_data.o
                0x8003ec0c                clk32768Clock
 .data.clk192MhzClock
                0x8003ec64       0x58 Release/am335x_clock_data.o
                0x8003ec64                clk192MhzClock
 .data.epwmss0IclkClock
                0x8003ecbc       0x58 Release/am335x_clock_data.o
                0x8003ecbc                epwmss0IclkClock
 .data.tptc1ModClock
                0x8003ed14       0x50 Release/am335x_clock_data.o
                0x8003ed14                tptc1ModClock
 .data.emifGclkClock
                0x8003ed64       0x58 Release/am335x_clock_data.o
                0x8003ed64                emifGclkClock
 .data.wdt1ClkClock
                0x8003edbc       0x58 Release/am335x_clock_data.o
                0x8003edbc                wdt1ClkClock
 .data.l4WkupIclkClock
                0x8003ee14       0x58 Release/am335x_clock_data.o
                0x8003ee14                l4WkupIclkClock
 .data.mpuClkDomain
                0x8003ee6c      0x154 Release/am335x_clock_data.o
                0x8003ee6c                mpuClkDomain
 .data.timer6ClkClock
                0x8003efc0       0x58 Release/am335x_clock_data.o
                0x8003efc0                timer6ClkClock
 .data.wdt1IclkClock
                0x8003f018       0x58 Release/am335x_clock_data.o
                0x8003f018                wdt1IclkClock
 .data.gpio0ModClock
                0x8003f070       0x50 Release/am335x_clock_data.o
                0x8003f070                gpio0ModClock
 .data.timer1ModClock
                0x8003f0c0       0x50 Release/am335x_clock_data.o
                0x8003f0c0                timer1ModClock
 .data.l4lsModClock
                0x8003f110       0x50 Release/am335x_clock_data.o
                0x8003f110                l4lsModClock
 .data.timer1GclkClock
                0x8003f160       0x58 Release/am335x_clock_data.o
                0x8003f160                timer1GclkClock
 .data.timer2GclkClock
                0x8003f1b8       0x58 Release/am335x_clock_data.o
                0x8003f1b8                timer2GclkClock
 .data.timer3GclkClock
                0x8003f210       0x58 Release/am335x_clock_data.o
                0x8003f210                timer3GclkClock
 .data.rtcFclkClock
                0x8003f268       0x58 Release/am335x_clock_data.o
                0x8003f268                rtcFclkClock
 .data.timer4GclkClock
                0x8003f2c0       0x58 Release/am335x_clock_data.o
                0x8003f2c0                timer4GclkClock
 .data.timer6IclkClock
                0x8003f318       0x58 Release/am335x_clock_data.o
                0x8003f318                timer6IclkClock
 .data.sysClkInClock
                0x8003f370       0x58 Release/am335x_clock_data.o
                0x8003f370                sysClkInClock
 .data.cpsw5MhzGclkClock
                0x8003f3c8       0x58 Release/am335x_clock_data.o
                0x8003f3c8                cpsw5MhzGclkClock
 .data.standbyData
                0x8003f420       0x10 Release/cm3wkup_proxy.o
                0x8003f420                standbyData
 .data.dsDataM3reset
                0x8003f430       0x10 Release/cm3wkup_proxy.o
                0x8003f430                dsDataM3reset
 .data.ds0Data  0x8003f440       0x10 Release/cm3wkup_proxy.o
                0x8003f440                ds0Data
 .data.ds1Data  0x8003f450       0x10 Release/cm3wkup_proxy.o
                0x8003f450                ds1Data
 .data.oppStrMap
                0x8003f460       0x28 Release/demoDvfs.o
                0x8003f460                oppStrMap
 .data.voltStrMap
                0x8003f488       0x20 Release/demoDvfs.o
                0x8003f488                voltStrMap
 .data.oppTable
                0x8003f4a8       0x20 Release/demoDvfs.o
                0x8003f4a8                oppTable
 .data.freqStrMap
                0x8003f4c8       0x28 Release/demoDvfs.o
                0x8003f4c8                freqStrMap
 .data.flag     0x8003f4f0        0xc Release/demoI2c.o
                0x8003f4f0                flag
 .data.contextInfo
                0x8003f4fc       0x38 Release/demoMain.o
                0x8003f4fc                contextInfo
 .data.pmModuleList
                0x8003f534       0x80 Release/demoPwrMgmnt.o
                0x8003f534                pmModuleList
 .data.wakeSource
                0x8003f5b4        0x4 Release/demoPwrMgmnt.o
                0x8003f5b4                wakeSource
 .data.sleepModeStrMap
                0x8003f5b8       0x28 Release/demoPwrMgmnt.o
                0x8003f5b8                sleepModeStrMap
 .data.g_sCmdTable
                0x8003f5e0       0x78 Release/demoSdFs.o
                0x8003f5e0                g_sCmdTable
 .data.g_cCwdBuf
                0x8003f658      0x200 Release/demoSdFs.o
 .data.g_sFresultStrings
                0x8003f858       0x70 Release/demoSdFs.o
                0x8003f858                g_sFresultStrings
 .data.timerCount
                0x8003f8c8       0x28 Release/demoTimer.o
                0x8003f8c8                timerCount
 .data.xid.6296
                0x8003f8f0        0x4 Release/lwiplib.o
 .data.port.6880
                0x8003f8f4        0x2 Release/lwiplib.o
 *fill*         0x8003f8f6        0x2 00
 .data.iss.7016
                0x8003f8f8        0x4 Release/lwiplib.o
 .data.boardId  0x8003f8fc        0x4 ../../../../../..//binary/armv7a/gcc/utils/Release/libutils.a(board.o)
                0x8003f8fc                boardId
 .data.flagIsr  0x8003f900        0x4 ../../../../../..//binary/armv7a/gcc/am335x/beaglebone/platform/Release/libplatform.a(sysdelay.o)
                0x8003f904                iram_start = (ADDR (.data) + SIZEOF (.data))

.igot.plt       0x8003f904        0x0
 .igot.plt      0x00000000        0x0 Release/am335x_clock_data.o

.reloc_iram     0x40300000      0x648 load address 0x8003f904
                0x40300000                . = ALIGN (0x4)
                0x40300000                relocstart = .
 *(IRAM_CODE)
 IRAM_CODE      0x40300000      0x52c Release/slpWkup_gcc.o
                0x40300000                saveRestoreContext
                0x40300214                romRestoreLocation
 *fill*         0x4030052c        0x4 00
 IRAM_CODE.stub
                0x40300530        0x8 linker stubs
 *(IRAM_DATA)
 IRAM_DATA      0x40300538      0x110 Release/slpWkup_gcc.o
                0x40300648                relocend = .
                0x40300648                . = ALIGN (0x4)

.bss            0x80040000    0x897e4
                0x80040000                . = ALIGN (0x4)
                0x80040000                _bss_start = .
 *(.bss*)
 .bss.isM3IntReceived
                0x80040000        0x4 Release/cm3wkup_proxy.o
                0x80040000                isM3IntReceived
 .bss.enetInitFlag
                0x80040004        0x4 Release/demoEnet.o
                0x80040004                enetInitFlag
 .bss.ledState  0x80040008        0x1 Release/demoLedIf.o
 *fill*         0x80040009        0x3 00
 .bss.clickIdx  0x8004000c        0x4 Release/demoMain.o
                0x8004000c                clickIdx
 .bss.pageIndex
                0x80040010        0x4 Release/demoMain.o
                0x80040010                pageIndex
 .bss.prevAction
                0x80040014        0x4 Release/demoMain.o
                0x80040014                prevAction
 *fill*         0x80040018     0x3fe8 00
 .bss.pageTable
                0x80044000     0x4000 Release/demoMain.o
 .bss.deviceVersion
                0x80048000        0x4 Release/demoMain.o
                0x80048000                deviceVersion
 .bss.pmFlag    0x80048004        0x4 Release/demoPwrMgmnt.o
                0x80048004                pmFlag
 .bss.rtcSecUpdate
                0x80048008        0x4 Release/demoRtc.o
                0x80048008                rtcSecUpdate
 .bss.rtcSetFlag
                0x8004800c        0x4 Release/demoRtc.o
                0x8004800c                rtcSetFlag
 .bss.sdCardAccessFlag
                0x80048010        0x4 Release/demoSdFs.o
                0x80048010                sdCardAccessFlag
 *fill*         0x80048014       0x6c 00
 .bss.g_cTmpBuf
                0x80048080      0x200 Release/demoSdFs.o
 .bss.sdCardState
                0x80048280        0x4 Release/demoSdFs.o
 .bss.g_sFileInfo
                0x80048284       0x18 Release/demoSdFs.o
 *fill*         0x8004829c       0x64 00
 .bss.g_sFileObject
                0x80048300      0x280 Release/demoSdFs.o
 .bss.g_sDirObject
                0x80048580       0x14 Release/demoSdFs.o
 .bss.g_cCmdBuf
                0x80048594      0x200 Release/demoSdFs.o
 *fill*         0x80048794       0x6c 00
 .bss.g_sFatFs  0x80048800      0x280 Release/demoSdFs.o
 .bss.g_sPState
                0x80048a80        0x4 Release/demoSdFs.o
                0x80048a80                g_sPState
 .bss.g_sCState
                0x80048a84        0x4 Release/demoSdFs.o
                0x80048a84                g_sCState
 .bss.dataTimeout
                0x80048a88        0x4 Release/demoSdRw.o
                0x80048a88                dataTimeout
 .bss.callbackOccured
                0x80048a8c        0x4 Release/demoSdRw.o
                0x80048a8c                callbackOccured
 .bss.cmdTimeout
                0x80048a90        0x4 Release/demoSdRw.o
                0x80048a90                cmdTimeout
 .bss.cmdCompFlag
                0x80048a94        0x4 Release/demoSdRw.o
                0x80048a94                cmdCompFlag
 .bss.xferCompFlag
                0x80048a98        0x4 Release/demoSdRw.o
                0x80048a98                xferCompFlag
 .bss.errFlag   0x80048a9c        0x4 Release/demoSdRw.o
                0x80048a9c                errFlag
 .bss.cb_Fxn    0x80048aa0      0x100 Release/demoSdRw.o
 .bss.tmr4Flag  0x80048ba0        0x4 Release/demoTimer.o
                0x80048ba0                tmr4Flag
 .bss.tmrFlag   0x80048ba4        0x4 Release/demoTimer.o
                0x80048ba4                tmrFlag
 .bss.index.5339
                0x80048ba8        0x4 Release/demoTimer.o
 .bss.tmrClick  0x80048bac        0x4 Release/demoTimer.o
                0x80048bac                tmrClick
 .bss.fsid      0x80048bb0        0x2 Release/ff.o
 *fill*         0x80048bb2        0x2 00
 .bss.FatFs     0x80048bb4        0x8 Release/ff.o
 .bss.g_iNumCGIs
                0x80048bbc        0x4 Release/httpd_io.o
                0x80048bbc                g_iNumCGIs
 .bss.g_pCGIs   0x80048bc0        0x4 Release/httpd_io.o
                0x80048bc0                g_pCGIs
 .bss.flags     0x80048bc4        0x1 Release/lwiplib.o
 .bss.netifnum.6499
                0x80048bc5        0x1 Release/lwiplib.o
 *fill*         0x80048bc6        0x2 00
 .bss.memp_tab  0x80048bc8       0x1c Release/lwiplib.o
 .bss.inst_init_flag.8448
                0x80048be4        0x4 Release/lwiplib.o
 .bss.seqno     0x80048be8        0x4 Release/lwiplib.o
 .bss.ram       0x80048bec        0x4 Release/lwiplib.o
 .bss.ip_id     0x80048bf0        0x2 Release/lwiplib.o
 *fill*         0x80048bf2        0x2 00
 .bss.recv_data
                0x80048bf4        0x4 Release/lwiplib.o
 .bss.tcplen    0x80048bf8        0x2 Release/lwiplib.o
 *fill*         0x80048bfa        0x2 00
 .bss.iphdr     0x80048bfc        0x4 Release/lwiplib.o
 .bss.lfree     0x80048c00        0x4 Release/lwiplib.o
 .bss.cpsw_inst_data
                0x80048c04       0x5c Release/lwiplib.o
 .bss.recv_flags
                0x80048c60        0x1 Release/lwiplib.o
 .bss.etharp_cached_entry
                0x80048c61        0x1 Release/lwiplib.o
 *fill*         0x80048c62        0x2 00
 .bss.arp_table
                0x80048c64       0xa0 Release/lwiplib.o
 .bss.inseg     0x80048d04       0x10 Release/lwiplib.o
 .bss.cpswPortIf
                0x80048d14       0x20 Release/lwiplib.o
 .bss.lwipInitFlag.8565
                0x80048d34        0x4 Release/lwiplib.o
 .bss.ram_end   0x80048d38        0x4 Release/lwiplib.o
 .bss.raw_pcbs  0x80048d3c        0x4 Release/lwiplib.o
 .bss.ackno     0x80048d40        0x4 Release/lwiplib.o
 .bss.cpswNetIF
                0x80048d44       0x68 Release/lwiplib.o
 .bss.tcphdr    0x80048dac        0x4 Release/lwiplib.o
 .bss.argv.4396
                0x80048db0       0x24 ../../../../../..//binary/armv7a/gcc/utils/Release/libutils.a(cmdline.o)
 .bss.ConsoleType
                0x80048dd4        0x1 ../../../../../..//binary/armv7a/gcc/utils/Release/libutils.a(consoleUtils.o)
 *fill*         0x80048dd5       0x2b 00
 .bss.dataBuffer
                0x80048e00       0x80 ../../../../../..//binary/armv7a/gcc/mmcsdlib/Release/libmmcsd.a(mmcsd_proto.o)
 *(COMMON)
 COMMON         0x80048e80        0xc Release/demoDvfs.o
                0x80048e80                mpuVdd1
                0x80048e84                mpuFreq
                0x80048e88                mpuOpp
 COMMON         0x80048e8c     0xb088 Release/demoEnet.o
                0x80048e8c                mdioContext
                0x80048e90                cpswContext
                0x80053f10                ipAddr
 COMMON         0x80053f14       0x36 Release/demoI2c.o
                0x80053f14                dataToSlave
                0x80053f20                rCount
                0x80053f2c                numOfBytes
                0x80053f38                tCount
                0x80053f44                dataFromSlave
 *fill*         0x80053f4a        0x2 00
 COMMON         0x80053f4c     0x48b0 Release/demoPwrMgmnt.o
                0x80053f4c                ctrlContext
                0x800545ec                pmStdbySrcIOPin
                0x80054638                edmaContext
                0x80058778                dmtimerContext
                0x800587c8                i2cContext
                0x800587d8                gpioContext
                0x800587e4                mmcsdContext
 COMMON         0x800587fc       0x98 Release/demoSdRw.o
                0x800587fc                sdCard
                0x80058844                ctrlInfo
 COMMON         0x80058894       0x18 Release/fat_mmcsd.o
                0x80058894                fat_devices
 COMMON         0x800588ac       0xf0 Release/httpd_io.o
                0x800588ac                fs_memory
 *fill*         0x8005899c       0x24 00
 COMMON         0x800589c0    0x70c0c Release/lwiplib.o
                0x800589c0                current_iphdr_src
                0x800589c4                netif_list
                0x800589c8                cpdma_tx_bd
                0x800589dc                cpswportif
                0x800589ec                rxch
                0x800589fc                tcp_active_pcbs
                0x80058a00                udp_pcbs
                0x80058a04                current_netif
                0x80058a08                tcp_ticks
                0x80058a0c                tcp_listen_pcbs
                0x80058a10                memp_memory_RAW_PCB_base
                0x80058a80                memp_memory_TCP_SEG_base
                0x80058b80                current_iphdr_dest
                0x80058bc0                memp_memory_PBUF_POOL_base
                0x800a77c0                free_head
                0x800a77c4                tcp_tmp_pcb
                0x800a77c8                tcp_input_pcb
                0x800a77cc                current_header
                0x800a77d0                dhcp_rx_options_given
                0x800a77dc                memp_memory_PBUF_base
                0x800a7ddc                tcp_bound_pcbs
                0x800a7de0                memp_memory_TCP_PCB_LISTEN_base
                0x800a7ee0                txch
                0x800a7ef0                cpswinst
                0x800a7f4c                memp_memory_UDP_PCB_base
                0x800a7fcc                cpdma_rx_bd
                0x800a7fe0                tcp_tw_pcbs
                0x800a7fe4                lwip_stats
                0x800a80f4                netif_default
                0x800a80f8                dhcp_rx_options_val
                0x800a8120                memp_memory_TCP_PCB_base
                0x800a95a0                ram_heap
                0x800c95bc                cpswport
 COMMON         0x800c95cc        0x4 ../../../../../..//binary/armv7a/gcc/am335x/drivers/Release/libdrivers.a(edma.o)
                0x800c95cc                regionId
 COMMON         0x800c95d0       0x11 ../../../../../..//binary/armv7a/gcc/utils/Release/libutils.a(board.o)
                0x800c95d0                boardName
                0x800c95d8                boardData
                0x800c95dc                boardVersion
 *fill*         0x800c95e1        0x3 00
 COMMON         0x800c95e4      0x200 ../../../../../..//binary/armv7a/gcc/am335x/system_config/Release/libsystem_config.a(interrupt.o)
                0x800c95e4                fnRAMVectors
                0x800c97e4                _bss_end = .

.heap           0x800c97e4      0x800
                0x800c97e4                . = ALIGN (0x4)
                0x800c97e4                __end__ = .
                0x800c97e4                end = __end__
                0x800c97e4                __HeapBase = __end__
 *(.heap*)
                0x800c9fe4                . = (. + 0x800)
 *fill*         0x800c97e4      0x800 00
                0x800c9fe4                __HeapLimit = .

.stack          0x800c9fe4  0x7fffff8
                0x800c9fe4                . = ALIGN (0x4)
                0x800c9fe4                __StackLimit = .
 *(.stack*)
                0x880c9fdc                . = (. + 0x7fffff8)
 *fill*         0x800c9fe4  0x7fffff8 00
                0x880c9fdc                __StackTop = .
                0x880c9fdc                _stack = __StackTop
OUTPUT(Release/demo.out elf32-littlearm)

.debug_info     0x00000000    0x27f66
 .debug_info    0x00000000     0x1425 Release/am335x_clock_data.o
 .debug_info    0x00001425      0x614 Release/cm3wkup_proxy.o
 .debug_info    0x00001a39      0x2ec Release/demoDvfs.o
 .debug_info    0x00001d25      0x965 Release/demoEnet.o
 .debug_info    0x0000268a      0x347 Release/demoGpio.o
 .debug_info    0x000029d1      0x62e Release/demoI2c.o
 .debug_info    0x00002fff      0x11d Release/demoLedIf.o
 .debug_info    0x0000311c     0x121d Release/demoMain.o
 .debug_info    0x00004339     0x15b8 Release/demoPwrMgmnt.o
 .debug_info    0x000058f1      0x38e Release/demoRtc.o
 .debug_info    0x00005c7f     0x11b9 Release/demoSdFs.o
 .debug_info    0x00006e38      0xb55 Release/demoSdRw.o
 .debug_info    0x0000798d      0x4e4 Release/demoTimer.o
 .debug_info    0x00007e71       0xe7 Release/demoUart.o
 .debug_info    0x00007f58      0x79c Release/fat_mmcsd.o
 .debug_info    0x000086f4     0x210b Release/ff.o
 .debug_info    0x0000a7ff     0x1eec Release/httpd_io.o
 .debug_info    0x0000c6eb     0xb6f3 Release/lwiplib.o
 .debug_info    0x00017dde      0x30d Release/pmic.o
 .debug_info    0x000180eb       0x9a Release/slpWkup_gcc.o
 .debug_info    0x00018185     0x138f ../../../../../..//binary/armv7a/gcc/am335x/drivers/Release/libdrivers.a(cpsw.o)
 .debug_info    0x00019514      0x76e ../../../../../..//binary/armv7a/gcc/am335x/drivers/Release/libdrivers.a(dmtimer.o)
 .debug_info    0x00019c82     0x12c6 ../../../../../..//binary/armv7a/gcc/am335x/drivers/Release/libdrivers.a(edma.o)
 .debug_info    0x0001af48      0x78f ../../../../../..//binary/armv7a/gcc/am335x/drivers/Release/libdrivers.a(gpio_v2.o)
 .debug_info    0x0001b6d7     0x1506 ../../../../../..//binary/armv7a/gcc/am335x/drivers/Release/libdrivers.a(gpmc.o)
 .debug_info    0x0001cbdd      0x980 ../../../../../..//binary/armv7a/gcc/am335x/drivers/Release/libdrivers.a(hs_mmcsd.o)
 .debug_info    0x0001d55d      0xa41 ../../../../../..//binary/armv7a/gcc/am335x/drivers/Release/libdrivers.a(hsi2c.o)
 .debug_info    0x0001df9e      0x407 ../../../../../..//binary/armv7a/gcc/am335x/drivers/Release/libdrivers.a(mailbox.o)
 .debug_info    0x0001e3a5      0x23e ../../../../../..//binary/armv7a/gcc/am335x/drivers/Release/libdrivers.a(mdio.o)
 .debug_info    0x0001e5e3      0x6e2 ../../../../../..//binary/armv7a/gcc/am335x/drivers/Release/libdrivers.a(phy.o)
 .debug_info    0x0001ecc5     0x1385 ../../../../../..//binary/armv7a/gcc/am335x/drivers/Release/libdrivers.a(rtc.o)
 .debug_info    0x0002004a     0x1fcd ../../../../../..//binary/armv7a/gcc/am335x/drivers/Release/libdrivers.a(uart_irda_cir.o)
 .debug_info    0x00022017      0x38a ../../../../../..//binary/armv7a/gcc/utils/Release/libutils.a(ascii.o)
 .debug_info    0x000223a1      0x1e2 ../../../../../..//binary/armv7a/gcc/utils/Release/libutils.a(board.o)
 .debug_info    0x00022583      0x1c7 ../../../../../..//binary/armv7a/gcc/utils/Release/libutils.a(cmdline.o)
 .debug_info    0x0002274a      0x384 ../../../../../..//binary/armv7a/gcc/utils/Release/libutils.a(consoleUtils.o)
 .debug_info    0x00022ace       0xfe ../../../../../..//binary/armv7a/gcc/utils/Release/libutils.a(delay.o)
 .debug_info    0x00022bcc      0xfce ../../../../../..//binary/armv7a/gcc/utils/Release/libutils.a(uartStdio.o)
 .debug_info    0x00023b9a      0x153 ../../../../../..//binary/armv7a/gcc/am335x/beaglebone/platform/Release/libplatform.a(board.o)
 .debug_info    0x00023ced       0xb8 ../../../../../..//binary/armv7a/gcc/am335x/beaglebone/platform/Release/libplatform.a(cpsw.o)
 .debug_info    0x00023da5      0x293 ../../../../../..//binary/armv7a/gcc/am335x/beaglebone/platform/Release/libplatform.a(ctlregcontext.o)
 .debug_info    0x00024038       0xcc ../../../../../..//binary/armv7a/gcc/am335x/beaglebone/platform/Release/libplatform.a(dmtimer.o)
 .debug_info    0x00024104       0xdc ../../../../../..//binary/armv7a/gcc/am335x/beaglebone/platform/Release/libplatform.a(edma.o)
 .debug_info    0x000241e0      0x279 ../../../../../..//binary/armv7a/gcc/am335x/beaglebone/platform/Release/libplatform.a(eeprom.o)
 .debug_info    0x00024459       0xd7 ../../../../../..//binary/armv7a/gcc/am335x/beaglebone/platform/Release/libplatform.a(gpio.o)
 .debug_info    0x00024530       0x62 ../../../../../..//binary/armv7a/gcc/am335x/beaglebone/platform/Release/libplatform.a(hs_mmcsd.o)
 .debug_info    0x00024592       0x90 ../../../../../..//binary/armv7a/gcc/am335x/beaglebone/platform/Release/libplatform.a(hsi2c.o)
 .debug_info    0x00024622       0x6d ../../../../../..//binary/armv7a/gcc/am335x/beaglebone/platform/Release/libplatform.a(rtc.o)
 .debug_info    0x0002468f      0x252 ../../../../../..//binary/armv7a/gcc/am335x/beaglebone/platform/Release/libplatform.a(sysdelay.o)
 .debug_info    0x000248e1      0x270 ../../../../../..//binary/armv7a/gcc/am335x/beaglebone/platform/Release/libplatform.a(uartConsole.o)
 .debug_info    0x00024b51       0x7b ../../../../../..//binary/armv7a/gcc/am335x/beaglebone/platform/Release/libplatform.a(uart.o)
 .debug_info    0x00024bcc      0x6ce ../../../../../..//binary/armv7a/gcc/mmcsdlib/Release/libmmcsd.a(hs_mmcsdlib.o)
 .debug_info    0x0002529a     0x1066 ../../../../../..//binary/armv7a/gcc/mmcsdlib/Release/libmmcsd.a(mmcsd_proto.o)
 .debug_info    0x00026300      0x277 ../../../../../..//binary/armv7a/gcc/am335x/system_config/Release/libsystem_config.a(cache.o)
 .debug_info    0x00026577      0xf23 ../../../../../..//binary/armv7a/gcc/am335x/system_config/Release/libsystem_config.a(clock.o)
 .debug_info    0x0002749a       0x8d ../../../../../..//binary/armv7a/gcc/am335x/system_config/Release/libsystem_config.a(cp15.o)
 .debug_info    0x00027527       0x7e ../../../../../..//binary/armv7a/gcc/am335x/system_config/Release/libsystem_config.a(device.o)
 .debug_info    0x000275a5       0x8d ../../../../../..//binary/armv7a/gcc/am335x/system_config/Release/libsystem_config.a(init.o)
 .debug_info    0x00027632      0x4e5 ../../../../../..//binary/armv7a/gcc/am335x/system_config/Release/libsystem_config.a(interrupt.o)
 .debug_info    0x00027b17      0x1aa ../../../../../..//binary/armv7a/gcc/am335x/system_config/Release/libsystem_config.a(mmu.o)
 .debug_info    0x00027cc1      0x116 ../../../../../..//binary/armv7a/gcc/am335x/system_config/Release/libsystem_config.a(startup.o)
 .debug_info    0x00027dd7       0xef ../../../../../..//binary/armv7a/gcc/am335x/system_config/Release/libsystem_config.a(cpu.o)
 .debug_info    0x00027ec6       0xa0 ../../../../../..//binary/armv7a/gcc/am335x/system_config/Release/libsystem_config.a(exceptionhandler.o)

.debug_abbrev   0x00000000     0x5b31
 .debug_abbrev  0x00000000       0xca Release/am335x_clock_data.o
 .debug_abbrev  0x000000ca      0x1ef Release/cm3wkup_proxy.o
 .debug_abbrev  0x000002b9      0x1a0 Release/demoDvfs.o
 .debug_abbrev  0x00000459      0x211 Release/demoEnet.o
 .debug_abbrev  0x0000066a       0xcb Release/demoGpio.o
 .debug_abbrev  0x00000735      0x115 Release/demoI2c.o
 .debug_abbrev  0x0000084a       0x6a Release/demoLedIf.o
 .debug_abbrev  0x000008b4      0x2b6 Release/demoMain.o
 .debug_abbrev  0x00000b6a      0x2ed Release/demoPwrMgmnt.o
 .debug_abbrev  0x00000e57       0xf2 Release/demoRtc.o
 .debug_abbrev  0x00000f49      0x2e3 Release/demoSdFs.o
 .debug_abbrev  0x0000122c      0x313 Release/demoSdRw.o
 .debug_abbrev  0x0000153f      0x134 Release/demoTimer.o
 .debug_abbrev  0x00001673       0x73 Release/demoUart.o
 .debug_abbrev  0x000016e6      0x1a7 Release/fat_mmcsd.o
 .debug_abbrev  0x0000188d      0x3b7 Release/ff.o
 .debug_abbrev  0x00001c44      0x484 Release/httpd_io.o
 .debug_abbrev  0x000020c8      0x76e Release/lwiplib.o
 .debug_abbrev  0x00002836       0xc3 Release/pmic.o
 .debug_abbrev  0x000028f9       0x14 Release/slpWkup_gcc.o
 .debug_abbrev  0x0000290d      0x207 ../../../../../..//binary/armv7a/gcc/am335x/drivers/Release/libdrivers.a(cpsw.o)
 .debug_abbrev  0x00002b14      0x18e ../../../../../..//binary/armv7a/gcc/am335x/drivers/Release/libdrivers.a(dmtimer.o)
 .debug_abbrev  0x00002ca2      0x306 ../../../../../..//binary/armv7a/gcc/am335x/drivers/Release/libdrivers.a(edma.o)
 .debug_abbrev  0x00002fa8      0x142 ../../../../../..//binary/armv7a/gcc/am335x/drivers/Release/libdrivers.a(gpio_v2.o)
 .debug_abbrev  0x000030ea      0x13d ../../../../../..//binary/armv7a/gcc/am335x/drivers/Release/libdrivers.a(gpmc.o)
 .debug_abbrev  0x00003227      0x2d7 ../../../../../..//binary/armv7a/gcc/am335x/drivers/Release/libdrivers.a(hs_mmcsd.o)
 .debug_abbrev  0x000034fe      0x177 ../../../../../..//binary/armv7a/gcc/am335x/drivers/Release/libdrivers.a(hsi2c.o)
 .debug_abbrev  0x00003675      0x10a ../../../../../..//binary/armv7a/gcc/am335x/drivers/Release/libdrivers.a(mailbox.o)
 .debug_abbrev  0x0000377f      0x116 ../../../../../..//binary/armv7a/gcc/am335x/drivers/Release/libdrivers.a(mdio.o)
 .debug_abbrev  0x00003895      0x124 ../../../../../..//binary/armv7a/gcc/am335x/drivers/Release/libdrivers.a(phy.o)
 .debug_abbrev  0x000039b9      0x145 ../../../../../..//binary/armv7a/gcc/am335x/drivers/Release/libdrivers.a(rtc.o)
 .debug_abbrev  0x00003afe      0x2cd ../../../../../..//binary/armv7a/gcc/am335x/drivers/Release/libdrivers.a(uart_irda_cir.o)
 .debug_abbrev  0x00003dcb      0x171 ../../../../../..//binary/armv7a/gcc/utils/Release/libutils.a(ascii.o)
 .debug_abbrev  0x00003f3c       0xec ../../../../../..//binary/armv7a/gcc/utils/Release/libutils.a(board.o)
 .debug_abbrev  0x00004028      0x108 ../../../../../..//binary/armv7a/gcc/utils/Release/libutils.a(cmdline.o)
 .debug_abbrev  0x00004130      0x1ab ../../../../../..//binary/armv7a/gcc/utils/Release/libutils.a(consoleUtils.o)
 .debug_abbrev  0x000042db       0x9a ../../../../../..//binary/armv7a/gcc/utils/Release/libutils.a(delay.o)
 .debug_abbrev  0x00004375      0x309 ../../../../../..//binary/armv7a/gcc/utils/Release/libutils.a(uartStdio.o)
 .debug_abbrev  0x0000467e       0x8c ../../../../../..//binary/armv7a/gcc/am335x/beaglebone/platform/Release/libplatform.a(board.o)
 .debug_abbrev  0x0000470a       0x6b ../../../../../..//binary/armv7a/gcc/am335x/beaglebone/platform/Release/libplatform.a(cpsw.o)
 .debug_abbrev  0x00004775      0x129 ../../../../../..//binary/armv7a/gcc/am335x/beaglebone/platform/Release/libplatform.a(ctlregcontext.o)
 .debug_abbrev  0x0000489e       0x7a ../../../../../..//binary/armv7a/gcc/am335x/beaglebone/platform/Release/libplatform.a(dmtimer.o)
 .debug_abbrev  0x00004918       0x9c ../../../../../..//binary/armv7a/gcc/am335x/beaglebone/platform/Release/libplatform.a(edma.o)
 .debug_abbrev  0x000049b4       0xfd ../../../../../..//binary/armv7a/gcc/am335x/beaglebone/platform/Release/libplatform.a(eeprom.o)
 .debug_abbrev  0x00004ab1       0x89 ../../../../../..//binary/armv7a/gcc/am335x/beaglebone/platform/Release/libplatform.a(gpio.o)
 .debug_abbrev  0x00004b3a       0x39 ../../../../../..//binary/armv7a/gcc/am335x/beaglebone/platform/Release/libplatform.a(hs_mmcsd.o)
 .debug_abbrev  0x00004b73       0x62 ../../../../../..//binary/armv7a/gcc/am335x/beaglebone/platform/Release/libplatform.a(hsi2c.o)
 .debug_abbrev  0x00004bd5       0x53 ../../../../../..//binary/armv7a/gcc/am335x/beaglebone/platform/Release/libplatform.a(rtc.o)
 .debug_abbrev  0x00004c28       0xca ../../../../../..//binary/armv7a/gcc/am335x/beaglebone/platform/Release/libplatform.a(sysdelay.o)
 .debug_abbrev  0x00004cf2      0x10e ../../../../../..//binary/armv7a/gcc/am335x/beaglebone/platform/Release/libplatform.a(uartConsole.o)
 .debug_abbrev  0x00004e00       0x62 ../../../../../..//binary/armv7a/gcc/am335x/beaglebone/platform/Release/libplatform.a(uart.o)
 .debug_abbrev  0x00004e62      0x167 ../../../../../..//binary/armv7a/gcc/mmcsdlib/Release/libmmcsd.a(hs_mmcsdlib.o)
 .debug_abbrev  0x00004fc9      0x2e2 ../../../../../..//binary/armv7a/gcc/mmcsdlib/Release/libmmcsd.a(mmcsd_proto.o)
 .debug_abbrev  0x000052ab       0x8b ../../../../../..//binary/armv7a/gcc/am335x/system_config/Release/libsystem_config.a(cache.o)
 .debug_abbrev  0x00005336      0x314 ../../../../../..//binary/armv7a/gcc/am335x/system_config/Release/libsystem_config.a(clock.o)
 .debug_abbrev  0x0000564a       0x14 ../../../../../..//binary/armv7a/gcc/am335x/system_config/Release/libsystem_config.a(cp15.o)
 .debug_abbrev  0x0000565e       0x66 ../../../../../..//binary/armv7a/gcc/am335x/system_config/Release/libsystem_config.a(device.o)
 .debug_abbrev  0x000056c4       0x14 ../../../../../..//binary/armv7a/gcc/am335x/system_config/Release/libsystem_config.a(init.o)
 .debug_abbrev  0x000056d8      0x20b ../../../../../..//binary/armv7a/gcc/am335x/system_config/Release/libsystem_config.a(interrupt.o)
 .debug_abbrev  0x000058e3       0xee ../../../../../..//binary/armv7a/gcc/am335x/system_config/Release/libsystem_config.a(mmu.o)
 .debug_abbrev  0x000059d1       0xe8 ../../../../../..//binary/armv7a/gcc/am335x/system_config/Release/libsystem_config.a(startup.o)
 .debug_abbrev  0x00005ab9       0x64 ../../../../../..//binary/armv7a/gcc/am335x/system_config/Release/libsystem_config.a(cpu.o)
 .debug_abbrev  0x00005b1d       0x14 ../../../../../..//binary/armv7a/gcc/am335x/system_config/Release/libsystem_config.a(exceptionhandler.o)

.debug_aranges  0x00000000     0x2710
 .debug_aranges
                0x00000000       0x18 Release/am335x_clock_data.o
 .debug_aranges
                0x00000018       0x88 Release/cm3wkup_proxy.o
 .debug_aranges
                0x000000a0       0x48 Release/demoDvfs.o
 .debug_aranges
                0x000000e8       0x78 Release/demoEnet.o
 .debug_aranges
                0x00000160       0x30 Release/demoGpio.o
 .debug_aranges
                0x00000190       0x50 Release/demoI2c.o
 .debug_aranges
                0x000001e0       0x38 Release/demoLedIf.o
 .debug_aranges
                0x00000218       0xb8 Release/demoMain.o
 .debug_aranges
                0x000002d0       0x48 Release/demoPwrMgmnt.o
 .debug_aranges
                0x00000318       0x48 Release/demoRtc.o
 .debug_aranges
                0x00000360       0x68 Release/demoSdFs.o
 .debug_aranges
                0x000003c8       0x70 Release/demoSdRw.o
 .debug_aranges
                0x00000438       0xc0 Release/demoTimer.o
 .debug_aranges
                0x000004f8       0x28 Release/demoUart.o
 .debug_aranges
                0x00000520       0x48 Release/fat_mmcsd.o
 .debug_aranges
                0x00000568       0xf8 Release/ff.o
 .debug_aranges
                0x00000660       0x98 Release/httpd_io.o
 .debug_aranges
                0x000006f8      0x5b8 Release/lwiplib.o
 .debug_aranges
                0x00000cb0       0x38 Release/pmic.o
 .debug_aranges
                0x00000ce8       0x20 Release/slpWkup_gcc.o
 .debug_aranges
                0x00000d08      0x270 ../../../../../..//binary/armv7a/gcc/am335x/drivers/Release/libdrivers.a(cpsw.o)
 .debug_aranges
                0x00000f78       0xe8 ../../../../../..//binary/armv7a/gcc/am335x/drivers/Release/libdrivers.a(dmtimer.o)
 .debug_aranges
                0x00001060      0x168 ../../../../../..//binary/armv7a/gcc/am335x/drivers/Release/libdrivers.a(edma.o)
 .debug_aranges
                0x000011c8      0x100 ../../../../../..//binary/armv7a/gcc/am335x/drivers/Release/libdrivers.a(gpio_v2.o)
 .debug_aranges
                0x000012c8      0x2b0 ../../../../../..//binary/armv7a/gcc/am335x/drivers/Release/libdrivers.a(gpmc.o)
 .debug_aranges
                0x00001578       0xf8 ../../../../../..//binary/armv7a/gcc/am335x/drivers/Release/libdrivers.a(hs_mmcsd.o)
 .debug_aranges
                0x00001670      0x180 ../../../../../..//binary/armv7a/gcc/am335x/drivers/Release/libdrivers.a(hsi2c.o)
 .debug_aranges
                0x000017f0       0x88 ../../../../../..//binary/armv7a/gcc/am335x/drivers/Release/libdrivers.a(mailbox.o)
 .debug_aranges
                0x00001878       0x50 ../../../../../..//binary/armv7a/gcc/am335x/drivers/Release/libdrivers.a(mdio.o)
 .debug_aranges
                0x000018c8       0x70 ../../../../../..//binary/armv7a/gcc/am335x/drivers/Release/libdrivers.a(phy.o)
 .debug_aranges
                0x00001938      0x2d8 ../../../../../..//binary/armv7a/gcc/am335x/drivers/Release/libdrivers.a(rtc.o)
 .debug_aranges
                0x00001c10      0x268 ../../../../../..//binary/armv7a/gcc/am335x/drivers/Release/libdrivers.a(uart_irda_cir.o)
 .debug_aranges
                0x00001e78       0x48 ../../../../../..//binary/armv7a/gcc/utils/Release/libutils.a(ascii.o)
 .debug_aranges
                0x00001ec0       0x38 ../../../../../..//binary/armv7a/gcc/utils/Release/libutils.a(board.o)
 .debug_aranges
                0x00001ef8       0x20 ../../../../../..//binary/armv7a/gcc/utils/Release/libutils.a(cmdline.o)
 .debug_aranges
                0x00001f18       0x58 ../../../../../..//binary/armv7a/gcc/utils/Release/libutils.a(consoleUtils.o)
 .debug_aranges
                0x00001f70       0x40 ../../../../../..//binary/armv7a/gcc/utils/Release/libutils.a(delay.o)
 .debug_aranges
                0x00001fb0       0x80 ../../../../../..//binary/armv7a/gcc/utils/Release/libutils.a(uartStdio.o)
 .debug_aranges
                0x00002030       0x20 ../../../../../..//binary/armv7a/gcc/am335x/beaglebone/platform/Release/libplatform.a(board.o)
 .debug_aranges
                0x00002050       0x38 ../../../../../..//binary/armv7a/gcc/am335x/beaglebone/platform/Release/libplatform.a(cpsw.o)
 .debug_aranges
                0x00002088       0x50 ../../../../../..//binary/armv7a/gcc/am335x/beaglebone/platform/Release/libplatform.a(ctlregcontext.o)
 .debug_aranges
                0x000020d8       0x48 ../../../../../..//binary/armv7a/gcc/am335x/beaglebone/platform/Release/libplatform.a(dmtimer.o)
 .debug_aranges
                0x00002120       0x30 ../../../../../..//binary/armv7a/gcc/am335x/beaglebone/platform/Release/libplatform.a(edma.o)
 .debug_aranges
                0x00002150       0x30 ../../../../../..//binary/armv7a/gcc/am335x/beaglebone/platform/Release/libplatform.a(eeprom.o)
 .debug_aranges
                0x00002180       0x40 ../../../../../..//binary/armv7a/gcc/am335x/beaglebone/platform/Release/libplatform.a(gpio.o)
 .debug_aranges
                0x000021c0       0x28 ../../../../../..//binary/armv7a/gcc/am335x/beaglebone/platform/Release/libplatform.a(hs_mmcsd.o)
 .debug_aranges
                0x000021e8       0x30 ../../../../../..//binary/armv7a/gcc/am335x/beaglebone/platform/Release/libplatform.a(hsi2c.o)
 .debug_aranges
                0x00002218       0x28 ../../../../../..//binary/armv7a/gcc/am335x/beaglebone/platform/Release/libplatform.a(rtc.o)
 .debug_aranges
                0x00002240       0x48 ../../../../../..//binary/armv7a/gcc/am335x/beaglebone/platform/Release/libplatform.a(sysdelay.o)
 .debug_aranges
                0x00002288       0x30 ../../../../../..//binary/armv7a/gcc/am335x/beaglebone/platform/Release/libplatform.a(uartConsole.o)
 .debug_aranges
                0x000022b8       0x28 ../../../../../..//binary/armv7a/gcc/am335x/beaglebone/platform/Release/libplatform.a(uart.o)
 .debug_aranges
                0x000022e0       0x48 ../../../../../..//binary/armv7a/gcc/mmcsdlib/Release/libmmcsd.a(hs_mmcsdlib.o)
 .debug_aranges
                0x00002328       0x80 ../../../../../..//binary/armv7a/gcc/mmcsdlib/Release/libmmcsd.a(mmcsd_proto.o)
 .debug_aranges
                0x000023a8       0x68 ../../../../../..//binary/armv7a/gcc/am335x/system_config/Release/libsystem_config.a(cache.o)
 .debug_aranges
                0x00002410       0xc0 ../../../../../..//binary/armv7a/gcc/am335x/system_config/Release/libsystem_config.a(clock.o)
 .debug_aranges
                0x000024d0       0x20 ../../../../../..//binary/armv7a/gcc/am335x/system_config/Release/libsystem_config.a(cp15.o)
 .debug_aranges
                0x000024f0       0x28 ../../../../../..//binary/armv7a/gcc/am335x/system_config/Release/libsystem_config.a(device.o)
 .debug_aranges
                0x00002518       0x20 ../../../../../..//binary/armv7a/gcc/am335x/system_config/Release/libsystem_config.a(init.o)
 .debug_aranges
                0x00002538      0x110 ../../../../../..//binary/armv7a/gcc/am335x/system_config/Release/libsystem_config.a(interrupt.o)
 .debug_aranges
                0x00002648       0x30 ../../../../../..//binary/armv7a/gcc/am335x/system_config/Release/libsystem_config.a(mmu.o)
 .debug_aranges
                0x00002678       0x20 ../../../../../..//binary/armv7a/gcc/am335x/system_config/Release/libsystem_config.a(startup.o)
 .debug_aranges
                0x00002698       0x58 ../../../../../..//binary/armv7a/gcc/am335x/system_config/Release/libsystem_config.a(cpu.o)
 .debug_aranges
                0x000026f0       0x20 ../../../../../..//binary/armv7a/gcc/am335x/system_config/Release/libsystem_config.a(exceptionhandler.o)

.debug_line     0x00000000     0xd0e3
 .debug_line    0x00000000       0xc0 Release/am335x_clock_data.o
 .debug_line    0x000000c0      0x1cd Release/cm3wkup_proxy.o
 .debug_line    0x0000028d      0x14a Release/demoDvfs.o
 .debug_line    0x000003d7      0x2d1 Release/demoEnet.o
 .debug_line    0x000006a8       0xc4 Release/demoGpio.o
 .debug_line    0x0000076c      0x151 Release/demoI2c.o
 .debug_line    0x000008bd       0xa3 Release/demoLedIf.o
 .debug_line    0x00000960      0x4a2 Release/demoMain.o
 .debug_line    0x00000e02      0x375 Release/demoPwrMgmnt.o
 .debug_line    0x00001177      0x151 Release/demoRtc.o
 .debug_line    0x000012c8      0x35f Release/demoSdFs.o
 .debug_line    0x00001627      0x385 Release/demoSdRw.o
 .debug_line    0x000019ac      0x1ee Release/demoTimer.o
 .debug_line    0x00001b9a       0x7c Release/demoUart.o
 .debug_line    0x00001c16      0x16d Release/fat_mmcsd.o
 .debug_line    0x00001d83      0x9ac Release/ff.o
 .debug_line    0x0000272f      0x55c Release/httpd_io.o
 .debug_line    0x00002c8b     0x3daa Release/lwiplib.o
 .debug_line    0x00006a35       0xde Release/pmic.o
 .debug_line    0x00006b13      0x17f Release/slpWkup_gcc.o
 .debug_line    0x00006c92      0x6cc ../../../../../..//binary/armv7a/gcc/am335x/drivers/Release/libdrivers.a(cpsw.o)
 .debug_line    0x0000735e      0x37a ../../../../../..//binary/armv7a/gcc/am335x/drivers/Release/libdrivers.a(dmtimer.o)
 .debug_line    0x000076d8      0x5ec ../../../../../..//binary/armv7a/gcc/am335x/drivers/Release/libdrivers.a(edma.o)
 .debug_line    0x00007cc4      0x2df ../../../../../..//binary/armv7a/gcc/am335x/drivers/Release/libdrivers.a(gpio_v2.o)
 .debug_line    0x00007fa3      0x756 ../../../../../..//binary/armv7a/gcc/am335x/drivers/Release/libdrivers.a(gpmc.o)
 .debug_line    0x000086f9      0x340 ../../../../../..//binary/armv7a/gcc/am335x/drivers/Release/libdrivers.a(hs_mmcsd.o)
 .debug_line    0x00008a39      0x3d8 ../../../../../..//binary/armv7a/gcc/am335x/drivers/Release/libdrivers.a(hsi2c.o)
 .debug_line    0x00008e11      0x165 ../../../../../..//binary/armv7a/gcc/am335x/drivers/Release/libdrivers.a(mailbox.o)
 .debug_line    0x00008f76      0x101 ../../../../../..//binary/armv7a/gcc/am335x/drivers/Release/libdrivers.a(mdio.o)
 .debug_line    0x00009077      0x193 ../../../../../..//binary/armv7a/gcc/am335x/drivers/Release/libdrivers.a(phy.o)
 .debug_line    0x0000920a      0x7bb ../../../../../..//binary/armv7a/gcc/am335x/drivers/Release/libdrivers.a(rtc.o)
 .debug_line    0x000099c5      0x999 ../../../../../..//binary/armv7a/gcc/am335x/drivers/Release/libdrivers.a(uart_irda_cir.o)
 .debug_line    0x0000a35e      0x16a ../../../../../..//binary/armv7a/gcc/utils/Release/libutils.a(ascii.o)
 .debug_line    0x0000a4c8       0xd2 ../../../../../..//binary/armv7a/gcc/utils/Release/libutils.a(board.o)
 .debug_line    0x0000a59a       0xa0 ../../../../../..//binary/armv7a/gcc/utils/Release/libutils.a(cmdline.o)
 .debug_line    0x0000a63a      0x1aa ../../../../../..//binary/armv7a/gcc/utils/Release/libutils.a(consoleUtils.o)
 .debug_line    0x0000a7e4       0x90 ../../../../../..//binary/armv7a/gcc/utils/Release/libutils.a(delay.o)
 .debug_line    0x0000a874      0x857 ../../../../../..//binary/armv7a/gcc/utils/Release/libutils.a(uartStdio.o)
 .debug_line    0x0000b0cb       0x78 ../../../../../..//binary/armv7a/gcc/am335x/beaglebone/platform/Release/libplatform.a(board.o)
 .debug_line    0x0000b143       0xc2 ../../../../../..//binary/armv7a/gcc/am335x/beaglebone/platform/Release/libplatform.a(cpsw.o)
 .debug_line    0x0000b205      0x154 ../../../../../..//binary/armv7a/gcc/am335x/beaglebone/platform/Release/libplatform.a(ctlregcontext.o)
 .debug_line    0x0000b359      0x21e ../../../../../..//binary/armv7a/gcc/am335x/beaglebone/platform/Release/libplatform.a(dmtimer.o)
 .debug_line    0x0000b577       0xf8 ../../../../../..//binary/armv7a/gcc/am335x/beaglebone/platform/Release/libplatform.a(edma.o)
 .debug_line    0x0000b66f       0xe5 ../../../../../..//binary/armv7a/gcc/am335x/beaglebone/platform/Release/libplatform.a(eeprom.o)
 .debug_line    0x0000b754       0xfa ../../../../../..//binary/armv7a/gcc/am335x/beaglebone/platform/Release/libplatform.a(gpio.o)
 .debug_line    0x0000b84e       0x81 ../../../../../..//binary/armv7a/gcc/am335x/beaglebone/platform/Release/libplatform.a(hs_mmcsd.o)
 .debug_line    0x0000b8cf      0x171 ../../../../../..//binary/armv7a/gcc/am335x/beaglebone/platform/Release/libplatform.a(hsi2c.o)
 .debug_line    0x0000ba40      0x122 ../../../../../..//binary/armv7a/gcc/am335x/beaglebone/platform/Release/libplatform.a(rtc.o)
 .debug_line    0x0000bb62       0xe7 ../../../../../..//binary/armv7a/gcc/am335x/beaglebone/platform/Release/libplatform.a(sysdelay.o)
 .debug_line    0x0000bc49       0xb2 ../../../../../..//binary/armv7a/gcc/am335x/beaglebone/platform/Release/libplatform.a(uartConsole.o)
 .debug_line    0x0000bcfb      0x114 ../../../../../..//binary/armv7a/gcc/am335x/beaglebone/platform/Release/libplatform.a(uart.o)
 .debug_line    0x0000be0f      0x133 ../../../../../..//binary/armv7a/gcc/mmcsdlib/Release/libmmcsd.a(hs_mmcsdlib.o)
 .debug_line    0x0000bf42      0x459 ../../../../../..//binary/armv7a/gcc/mmcsdlib/Release/libmmcsd.a(mmcsd_proto.o)
 .debug_line    0x0000c39b      0x111 ../../../../../..//binary/armv7a/gcc/am335x/system_config/Release/libsystem_config.a(cache.o)
 .debug_line    0x0000c4ac      0x3ec ../../../../../..//binary/armv7a/gcc/am335x/system_config/Release/libsystem_config.a(clock.o)
 .debug_line    0x0000c898      0x18a ../../../../../..//binary/armv7a/gcc/am335x/system_config/Release/libsystem_config.a(cp15.o)
 .debug_line    0x0000ca22       0x77 ../../../../../..//binary/armv7a/gcc/am335x/system_config/Release/libsystem_config.a(device.o)
 .debug_line    0x0000ca99       0x93 ../../../../../..//binary/armv7a/gcc/am335x/system_config/Release/libsystem_config.a(init.o)
 .debug_line    0x0000cb2c      0x2ae ../../../../../..//binary/armv7a/gcc/am335x/system_config/Release/libsystem_config.a(interrupt.o)
 .debug_line    0x0000cdda      0x104 ../../../../../..//binary/armv7a/gcc/am335x/system_config/Release/libsystem_config.a(mmu.o)
 .debug_line    0x0000cede       0x76 ../../../../../..//binary/armv7a/gcc/am335x/system_config/Release/libsystem_config.a(startup.o)
 .debug_line    0x0000cf54       0xd6 ../../../../../..//binary/armv7a/gcc/am335x/system_config/Release/libsystem_config.a(cpu.o)
 .debug_line    0x0000d02a       0xb9 ../../../../../..//binary/armv7a/gcc/am335x/system_config/Release/libsystem_config.a(exceptionhandler.o)

.debug_str      0x00000000     0x9db4
 .debug_str     0x00000000     0x10fd Release/am335x_clock_data.o
                               0x1147 (size before relaxing)
 .debug_str     0x000010fd      0x316 Release/cm3wkup_proxy.o
                                0x3e6 (size before relaxing)
 .debug_str     0x00001413      0x13e Release/demoDvfs.o
                                0x1e7 (size before relaxing)
 .debug_str     0x00001551      0x3aa Release/demoEnet.o
                                0x4bc (size before relaxing)
 .debug_str     0x000018fb      0x168 Release/demoGpio.o
                                0x21e (size before relaxing)
 .debug_str     0x00001a63       0xc7 Release/demoI2c.o
                                0x199 (size before relaxing)
 .debug_str     0x00001b2a       0x64 Release/demoLedIf.o
                                0x108 (size before relaxing)
 .debug_str     0x00001b8e      0x3b3 Release/demoMain.o
                                0x698 (size before relaxing)
 .debug_str     0x00001f41      0x429 Release/demoPwrMgmnt.o
                                0x984 (size before relaxing)
 .debug_str     0x0000236a       0x99 Release/demoRtc.o
                                0x15a (size before relaxing)
 .debug_str     0x00002403      0x510 Release/demoSdFs.o
                                0x6b9 (size before relaxing)
 .debug_str     0x00002913      0x1ea Release/demoSdRw.o
                                0x4ee (size before relaxing)
 .debug_str     0x00002afd      0x160 Release/demoTimer.o
                                0x236 (size before relaxing)
 .debug_str     0x00002c5d       0x5a Release/demoUart.o
                                 0xfe (size before relaxing)
 .debug_str     0x00002cb7       0xd5 Release/fat_mmcsd.o
                                0x3df (size before relaxing)
 .debug_str     0x00002d8c      0x26a Release/ff.o
                                0x600 (size before relaxing)
 .debug_str     0x00002ff6      0x7a2 Release/httpd_io.o
                                0xa12 (size before relaxing)
 .debug_str     0x00003798     0x1bdb Release/lwiplib.o
                               0x228b (size before relaxing)
 .debug_str     0x00005373       0xd1 Release/pmic.o
                                0x1a2 (size before relaxing)
 .debug_str     0x00005444      0x795 ../../../../../..//binary/armv7a/gcc/am335x/drivers/Release/libdrivers.a(cpsw.o)
                                0x97a (size before relaxing)
 .debug_str     0x00005bd9      0x26f ../../../../../..//binary/armv7a/gcc/am335x/drivers/Release/libdrivers.a(dmtimer.o)
                                0x354 (size before relaxing)
 .debug_str     0x00005e48      0x3e4 ../../../../../..//binary/armv7a/gcc/am335x/drivers/Release/libdrivers.a(edma.o)
                                0x65e (size before relaxing)
 .debug_str     0x0000622c      0x2de ../../../../../..//binary/armv7a/gcc/am335x/drivers/Release/libdrivers.a(gpio_v2.o)
                                0x3ad (size before relaxing)
 .debug_str     0x0000650a      0x91d ../../../../../..//binary/armv7a/gcc/am335x/drivers/Release/libdrivers.a(gpmc.o)
                                0x9e4 (size before relaxing)
 .debug_str     0x00006e27      0x2a4 ../../../../../..//binary/armv7a/gcc/am335x/drivers/Release/libdrivers.a(hs_mmcsd.o)
                                0x3c0 (size before relaxing)
 .debug_str     0x000070cb      0x3d7 ../../../../../..//binary/armv7a/gcc/am335x/drivers/Release/libdrivers.a(hsi2c.o)
                                0x4e9 (size before relaxing)
 .debug_str     0x000074a2      0x163 ../../../../../..//binary/armv7a/gcc/am335x/drivers/Release/libdrivers.a(mailbox.o)
                                0x1fe (size before relaxing)
 .debug_str     0x00007605       0xd0 ../../../../../..//binary/armv7a/gcc/am335x/drivers/Release/libdrivers.a(mdio.o)
                                0x1b2 (size before relaxing)
 .debug_str     0x000076d5      0x100 ../../../../../..//binary/armv7a/gcc/am335x/drivers/Release/libdrivers.a(phy.o)
                                0x1f7 (size before relaxing)
 .debug_str     0x000077d5      0x795 ../../../../../..//binary/armv7a/gcc/am335x/drivers/Release/libdrivers.a(rtc.o)
                                0x851 (size before relaxing)
 .debug_str     0x00007f6a      0x875 ../../../../../..//binary/armv7a/gcc/am335x/drivers/Release/libdrivers.a(uart_irda_cir.o)
                                0x94d (size before relaxing)
 .debug_str     0x000087df       0xf1 ../../../../../..//binary/armv7a/gcc/utils/Release/libutils.a(ascii.o)
                                0x174 (size before relaxing)
 .debug_str     0x000088d0       0xae ../../../../../..//binary/armv7a/gcc/utils/Release/libutils.a(board.o)
                                0x14e (size before relaxing)
 .debug_str     0x0000897e       0x50 ../../../../../..//binary/armv7a/gcc/utils/Release/libutils.a(cmdline.o)
                                0x194 (size before relaxing)
 .debug_str     0x000089ce      0x10f ../../../../../..//binary/armv7a/gcc/utils/Release/libutils.a(consoleUtils.o)
                                0x26d (size before relaxing)
 .debug_str     0x00008add       0x2d ../../../../../..//binary/armv7a/gcc/utils/Release/libutils.a(delay.o)
                                 0xe3 (size before relaxing)
 .debug_str     0x00008b0a      0x180 ../../../../../..//binary/armv7a/gcc/utils/Release/libutils.a(uartStdio.o)
                                0x28a (size before relaxing)
 .debug_str     0x00008c8a       0x82 ../../../../../..//binary/armv7a/gcc/am335x/beaglebone/platform/Release/libplatform.a(board.o)
                                0x165 (size before relaxing)
 .debug_str     0x00008d0c       0x7f ../../../../../..//binary/armv7a/gcc/am335x/beaglebone/platform/Release/libplatform.a(cpsw.o)
                                0x127 (size before relaxing)
 .debug_str     0x00008d8b       0xd2 ../../../../../..//binary/armv7a/gcc/am335x/beaglebone/platform/Release/libplatform.a(ctlregcontext.o)
                                0x1d7 (size before relaxing)
 .debug_str     0x00008e5d       0xcd ../../../../../..//binary/armv7a/gcc/am335x/beaglebone/platform/Release/libplatform.a(dmtimer.o)
                                0x16c (size before relaxing)
 .debug_str     0x00008f2a       0x77 ../../../../../..//binary/armv7a/gcc/am335x/beaglebone/platform/Release/libplatform.a(edma.o)
                                0x134 (size before relaxing)
 .debug_str     0x00008fa1       0x70 ../../../../../..//binary/armv7a/gcc/am335x/beaglebone/platform/Release/libplatform.a(eeprom.o)
                                0x14a (size before relaxing)
 .debug_str     0x00009011       0xad ../../../../../..//binary/armv7a/gcc/am335x/beaglebone/platform/Release/libplatform.a(gpio.o)
                                0x155 (size before relaxing)
 .debug_str     0x000090be       0x5c ../../../../../..//binary/armv7a/gcc/am335x/beaglebone/platform/Release/libplatform.a(hs_mmcsd.o)
                                 0xfb (size before relaxing)
 .debug_str     0x0000911a       0x6f ../../../../../..//binary/armv7a/gcc/am335x/beaglebone/platform/Release/libplatform.a(hsi2c.o)
                                0x117 (size before relaxing)
 .debug_str     0x00009189       0x4e ../../../../../..//binary/armv7a/gcc/am335x/beaglebone/platform/Release/libplatform.a(rtc.o)
                                 0xf6 (size before relaxing)
 .debug_str     0x000091d7       0x97 ../../../../../..//binary/armv7a/gcc/am335x/beaglebone/platform/Release/libplatform.a(sysdelay.o)
                                0x148 (size before relaxing)
 .debug_str     0x0000926e       0xb3 ../../../../../..//binary/armv7a/gcc/am335x/beaglebone/platform/Release/libplatform.a(uartConsole.o)
                                0x181 (size before relaxing)
 .debug_str     0x00009321       0x5f ../../../../../..//binary/armv7a/gcc/am335x/beaglebone/platform/Release/libplatform.a(uart.o)
                                0x107 (size before relaxing)
 .debug_str     0x00009380       0xec ../../../../../..//binary/armv7a/gcc/mmcsdlib/Release/libmmcsd.a(hs_mmcsdlib.o)
                                0x338 (size before relaxing)
 .debug_str     0x0000946c       0xe0 ../../../../../..//binary/armv7a/gcc/mmcsdlib/Release/libmmcsd.a(mmcsd_proto.o)
                                0x39f (size before relaxing)
 .debug_str     0x0000954c      0x14f ../../../../../..//binary/armv7a/gcc/am335x/system_config/Release/libsystem_config.a(cache.o)
                                0x1af (size before relaxing)
 .debug_str     0x0000969b      0x2d0 ../../../../../..//binary/armv7a/gcc/am335x/system_config/Release/libsystem_config.a(clock.o)
                                0x8a2 (size before relaxing)
 .debug_str     0x0000996b       0x5a ../../../../../..//binary/armv7a/gcc/am335x/system_config/Release/libsystem_config.a(device.o)
                                0x101 (size before relaxing)
 .debug_str     0x000099c5      0x281 ../../../../../..//binary/armv7a/gcc/am335x/system_config/Release/libsystem_config.a(interrupt.o)
                                0x363 (size before relaxing)
 .debug_str     0x00009c46       0x69 ../../../../../..//binary/armv7a/gcc/am335x/system_config/Release/libsystem_config.a(mmu.o)
                                0x146 (size before relaxing)
 .debug_str     0x00009caf       0x6b ../../../../../..//binary/armv7a/gcc/am335x/system_config/Release/libsystem_config.a(startup.o)
                                0x118 (size before relaxing)
 .debug_str     0x00009d1a       0x9a ../../../../../..//binary/armv7a/gcc/am335x/system_config/Release/libsystem_config.a(cpu.o)
                                0x12a (size before relaxing)

.comment        0x00000000       0x70
 .comment       0x00000000       0x70 Release/am335x_clock_data.o
                                 0x71 (size before relaxing)
 .comment       0x00000000       0x71 Release/cm3wkup_proxy.o
 .comment       0x00000000       0x71 Release/demoDvfs.o
 .comment       0x00000000       0x71 Release/demoEnet.o
 .comment       0x00000000       0x71 Release/demoGpio.o
 .comment       0x00000000       0x71 Release/demoI2c.o
 .comment       0x00000000       0x71 Release/demoLedIf.o
 .comment       0x00000000       0x71 Release/demoMain.o
 .comment       0x00000000       0x71 Release/demoPwrMgmnt.o
 .comment       0x00000000       0x71 Release/demoRtc.o
 .comment       0x00000000       0x71 Release/demoSdFs.o
 .comment       0x00000000       0x71 Release/demoSdRw.o
 .comment       0x00000000       0x71 Release/demoTimer.o
 .comment       0x00000000       0x71 Release/demoUart.o
 .comment       0x00000000       0x71 Release/fat_mmcsd.o
 .comment       0x00000000       0x71 Release/ff.o
 .comment       0x00000000       0x71 Release/httpd_io.o
 .comment       0x00000000       0x71 Release/lwiplib.o
 .comment       0x00000000       0x71 Release/pmic.o
 .comment       0x00000000       0x71 ../../../../../..//binary/armv7a/gcc/am335x/drivers/Release/libdrivers.a(cpsw.o)
 .comment       0x00000000       0x71 ../../../../../..//binary/armv7a/gcc/am335x/drivers/Release/libdrivers.a(dmtimer.o)
 .comment       0x00000000       0x71 ../../../../../..//binary/armv7a/gcc/am335x/drivers/Release/libdrivers.a(edma.o)
 .comment       0x00000000       0x71 ../../../../../..//binary/armv7a/gcc/am335x/drivers/Release/libdrivers.a(gpio_v2.o)
 .comment       0x00000000       0x71 ../../../../../..//binary/armv7a/gcc/am335x/drivers/Release/libdrivers.a(gpmc.o)
 .comment       0x00000000       0x71 ../../../../../..//binary/armv7a/gcc/am335x/drivers/Release/libdrivers.a(hs_mmcsd.o)
 .comment       0x00000000       0x71 ../../../../../..//binary/armv7a/gcc/am335x/drivers/Release/libdrivers.a(hsi2c.o)
 .comment       0x00000000       0x71 ../../../../../..//binary/armv7a/gcc/am335x/drivers/Release/libdrivers.a(mailbox.o)
 .comment       0x00000000       0x71 ../../../../../..//binary/armv7a/gcc/am335x/drivers/Release/libdrivers.a(mdio.o)
 .comment       0x00000000       0x71 ../../../../../..//binary/armv7a/gcc/am335x/drivers/Release/libdrivers.a(phy.o)
 .comment       0x00000000       0x71 ../../../../../..//binary/armv7a/gcc/am335x/drivers/Release/libdrivers.a(rtc.o)
 .comment       0x00000000       0x71 ../../../../../..//binary/armv7a/gcc/am335x/drivers/Release/libdrivers.a(uart_irda_cir.o)
 .comment       0x00000000       0x71 ../../../../../..//binary/armv7a/gcc/utils/Release/libutils.a(ascii.o)
 .comment       0x00000000       0x71 ../../../../../..//binary/armv7a/gcc/utils/Release/libutils.a(board.o)
 .comment       0x00000000       0x71 ../../../../../..//binary/armv7a/gcc/utils/Release/libutils.a(cmdline.o)
 .comment       0x00000000       0x71 ../../../../../..//binary/armv7a/gcc/utils/Release/libutils.a(consoleUtils.o)
 .comment       0x00000000       0x71 ../../../../../..//binary/armv7a/gcc/utils/Release/libutils.a(delay.o)
 .comment       0x00000000       0x71 ../../../../../..//binary/armv7a/gcc/utils/Release/libutils.a(uartStdio.o)
 .comment       0x00000000       0x71 ../../../../../..//binary/armv7a/gcc/am335x/beaglebone/platform/Release/libplatform.a(board.o)
 .comment       0x00000000       0x71 ../../../../../..//binary/armv7a/gcc/am335x/beaglebone/platform/Release/libplatform.a(cpsw.o)
 .comment       0x00000000       0x71 ../../../../../..//binary/armv7a/gcc/am335x/beaglebone/platform/Release/libplatform.a(ctlregcontext.o)
 .comment       0x00000000       0x71 ../../../../../..//binary/armv7a/gcc/am335x/beaglebone/platform/Release/libplatform.a(dmtimer.o)
 .comment       0x00000000       0x71 ../../../../../..//binary/armv7a/gcc/am335x/beaglebone/platform/Release/libplatform.a(edma.o)
 .comment       0x00000000       0x71 ../../../../../..//binary/armv7a/gcc/am335x/beaglebone/platform/Release/libplatform.a(eeprom.o)
 .comment       0x00000000       0x71 ../../../../../..//binary/armv7a/gcc/am335x/beaglebone/platform/Release/libplatform.a(gpio.o)
 .comment       0x00000000       0x71 ../../../../../..//binary/armv7a/gcc/am335x/beaglebone/platform/Release/libplatform.a(hs_mmcsd.o)
 .comment       0x00000000       0x71 ../../../../../..//binary/armv7a/gcc/am335x/beaglebone/platform/Release/libplatform.a(hsi2c.o)
 .comment       0x00000000       0x71 ../../../../../..//binary/armv7a/gcc/am335x/beaglebone/platform/Release/libplatform.a(rtc.o)
 .comment       0x00000000       0x71 ../../../../../..//binary/armv7a/gcc/am335x/beaglebone/platform/Release/libplatform.a(sysdelay.o)
 .comment       0x00000000       0x71 ../../../../../..//binary/armv7a/gcc/am335x/beaglebone/platform/Release/libplatform.a(uartConsole.o)
 .comment       0x00000000       0x71 ../../../../../..//binary/armv7a/gcc/am335x/beaglebone/platform/Release/libplatform.a(uart.o)
 .comment       0x00000000       0x71 ../../../../../..//binary/armv7a/gcc/mmcsdlib/Release/libmmcsd.a(hs_mmcsdlib.o)
 .comment       0x00000000       0x71 ../../../../../..//binary/armv7a/gcc/mmcsdlib/Release/libmmcsd.a(mmcsd_proto.o)
 .comment       0x00000000       0x71 ../../../../../..//binary/armv7a/gcc/am335x/system_config/Release/libsystem_config.a(cache.o)
 .comment       0x00000000       0x71 ../../../../../..//binary/armv7a/gcc/am335x/system_config/Release/libsystem_config.a(clock.o)
 .comment       0x00000000       0x71 ../../../../../..//binary/armv7a/gcc/am335x/system_config/Release/libsystem_config.a(device.o)
 .comment       0x00000000       0x71 ../../../../../..//binary/armv7a/gcc/am335x/system_config/Release/libsystem_config.a(interrupt.o)
 .comment       0x00000000       0x71 ../../../../../..//binary/armv7a/gcc/am335x/system_config/Release/libsystem_config.a(mmu.o)
 .comment       0x00000000       0x71 ../../../../../..//binary/armv7a/gcc/am335x/system_config/Release/libsystem_config.a(startup.o)
 .comment       0x00000000       0x71 ../../../../../..//binary/armv7a/gcc/am335x/system_config/Release/libsystem_config.a(cpu.o)

.ARM.attributes
                0x00000000       0x3b
 .ARM.attributes
                0x00000000       0x3d Release/am335x_clock_data.o
 .ARM.attributes
                0x0000003d       0x3d Release/cm3wkup_proxy.o
 .ARM.attributes
                0x0000007a       0x3d Release/demoDvfs.o
 .ARM.attributes
                0x000000b7       0x3d Release/demoEnet.o
 .ARM.attributes
                0x000000f4       0x3d Release/demoGpio.o
 .ARM.attributes
                0x00000131       0x3d Release/demoI2c.o
 .ARM.attributes
                0x0000016e       0x3d Release/demoLedIf.o
 .ARM.attributes
                0x000001ab       0x3d Release/demoMain.o
 .ARM.attributes
                0x000001e8       0x3d Release/demoPwrMgmnt.o
 .ARM.attributes
                0x00000225       0x3d Release/demoRtc.o
 .ARM.attributes
                0x00000262       0x3d Release/demoSdFs.o
 .ARM.attributes
                0x0000029f       0x3d Release/demoSdRw.o
 .ARM.attributes
                0x000002dc       0x3d Release/demoTimer.o
 .ARM.attributes
                0x00000319       0x3d Release/demoUart.o
 .ARM.attributes
                0x00000356       0x3d Release/fat_mmcsd.o
 .ARM.attributes
                0x00000393       0x3d Release/ff.o
 .ARM.attributes
                0x000003d0       0x3d Release/httpd_io.o
 .ARM.attributes
                0x0000040d       0x3d Release/lwiplib.o
 .ARM.attributes
                0x0000044a       0x3d Release/pmic.o
 .ARM.attributes
                0x00000487       0x23 Release/slpWkup_gcc.o
 .ARM.attributes
                0x000004aa       0x37 ../../../../../..//binary/armv7a/gcc/am335x/drivers/Release/libdrivers.a(cpsw.o)
 .ARM.attributes
                0x000004e1       0x37 ../../../../../..//binary/armv7a/gcc/am335x/drivers/Release/libdrivers.a(dmtimer.o)
 .ARM.attributes
                0x00000518       0x37 ../../../../../..//binary/armv7a/gcc/am335x/drivers/Release/libdrivers.a(edma.o)
 .ARM.attributes
                0x0000054f       0x37 ../../../../../..//binary/armv7a/gcc/am335x/drivers/Release/libdrivers.a(gpio_v2.o)
 .ARM.attributes
                0x00000586       0x37 ../../../../../..//binary/armv7a/gcc/am335x/drivers/Release/libdrivers.a(gpmc.o)
 .ARM.attributes
                0x000005bd       0x37 ../../../../../..//binary/armv7a/gcc/am335x/drivers/Release/libdrivers.a(hs_mmcsd.o)
 .ARM.attributes
                0x000005f4       0x37 ../../../../../..//binary/armv7a/gcc/am335x/drivers/Release/libdrivers.a(hsi2c.o)
 .ARM.attributes
                0x0000062b       0x37 ../../../../../..//binary/armv7a/gcc/am335x/drivers/Release/libdrivers.a(mailbox.o)
 .ARM.attributes
                0x00000662       0x37 ../../../../../..//binary/armv7a/gcc/am335x/drivers/Release/libdrivers.a(mdio.o)
 .ARM.attributes
                0x00000699       0x37 ../../../../../..//binary/armv7a/gcc/am335x/drivers/Release/libdrivers.a(phy.o)
 .ARM.attributes
                0x000006d0       0x37 ../../../../../..//binary/armv7a/gcc/am335x/drivers/Release/libdrivers.a(rtc.o)
 .ARM.attributes
                0x00000707       0x37 ../../../../../..//binary/armv7a/gcc/am335x/drivers/Release/libdrivers.a(uart_irda_cir.o)
 .ARM.attributes
                0x0000073e       0x37 ../../../../../..//binary/armv7a/gcc/utils/Release/libutils.a(ascii.o)
 .ARM.attributes
                0x00000775       0x37 ../../../../../..//binary/armv7a/gcc/utils/Release/libutils.a(board.o)
 .ARM.attributes
                0x000007ac       0x37 ../../../../../..//binary/armv7a/gcc/utils/Release/libutils.a(cmdline.o)
 .ARM.attributes
                0x000007e3       0x37 ../../../../../..//binary/armv7a/gcc/utils/Release/libutils.a(consoleUtils.o)
 .ARM.attributes
                0x0000081a       0x37 ../../../../../..//binary/armv7a/gcc/utils/Release/libutils.a(delay.o)
 .ARM.attributes
                0x00000851       0x37 ../../../../../..//binary/armv7a/gcc/utils/Release/libutils.a(uartStdio.o)
 .ARM.attributes
                0x00000888       0x37 ../../../../../..//binary/armv7a/gcc/am335x/beaglebone/platform/Release/libplatform.a(board.o)
 .ARM.attributes
                0x000008bf       0x37 ../../../../../..//binary/armv7a/gcc/am335x/beaglebone/platform/Release/libplatform.a(cpsw.o)
 .ARM.attributes
                0x000008f6       0x37 ../../../../../..//binary/armv7a/gcc/am335x/beaglebone/platform/Release/libplatform.a(ctlregcontext.o)
 .ARM.attributes
                0x0000092d       0x37 ../../../../../..//binary/armv7a/gcc/am335x/beaglebone/platform/Release/libplatform.a(dmtimer.o)
 .ARM.attributes
                0x00000964       0x37 ../../../../../..//binary/armv7a/gcc/am335x/beaglebone/platform/Release/libplatform.a(edma.o)
 .ARM.attributes
                0x0000099b       0x37 ../../../../../..//binary/armv7a/gcc/am335x/beaglebone/platform/Release/libplatform.a(eeprom.o)
 .ARM.attributes
                0x000009d2       0x37 ../../../../../..//binary/armv7a/gcc/am335x/beaglebone/platform/Release/libplatform.a(gpio.o)
 .ARM.attributes
                0x00000a09       0x37 ../../../../../..//binary/armv7a/gcc/am335x/beaglebone/platform/Release/libplatform.a(hs_mmcsd.o)
 .ARM.attributes
                0x00000a40       0x37 ../../../../../..//binary/armv7a/gcc/am335x/beaglebone/platform/Release/libplatform.a(hsi2c.o)
 .ARM.attributes
                0x00000a77       0x37 ../../../../../..//binary/armv7a/gcc/am335x/beaglebone/platform/Release/libplatform.a(rtc.o)
 .ARM.attributes
                0x00000aae       0x37 ../../../../../..//binary/armv7a/gcc/am335x/beaglebone/platform/Release/libplatform.a(sysdelay.o)
 .ARM.attributes
                0x00000ae5       0x37 ../../../../../..//binary/armv7a/gcc/am335x/beaglebone/platform/Release/libplatform.a(uartConsole.o)
 .ARM.attributes
                0x00000b1c       0x37 ../../../../../..//binary/armv7a/gcc/am335x/beaglebone/platform/Release/libplatform.a(uart.o)
 .ARM.attributes
                0x00000b53       0x37 ../../../../../..//binary/armv7a/gcc/mmcsdlib/Release/libmmcsd.a(hs_mmcsdlib.o)
 .ARM.attributes
                0x00000b8a       0x37 ../../../../../..//binary/armv7a/gcc/mmcsdlib/Release/libmmcsd.a(mmcsd_proto.o)
 .ARM.attributes
                0x00000bc1       0x3d ../../../../../..//binary/armv7a/gcc/am335x/system_config/Release/libsystem_config.a(cache.o)
 .ARM.attributes
                0x00000bfe       0x3d ../../../../../..//binary/armv7a/gcc/am335x/system_config/Release/libsystem_config.a(clock.o)
 .ARM.attributes
                0x00000c3b       0x23 ../../../../../..//binary/armv7a/gcc/am335x/system_config/Release/libsystem_config.a(cp15.o)
 .ARM.attributes
                0x00000c5e       0x3d ../../../../../..//binary/armv7a/gcc/am335x/system_config/Release/libsystem_config.a(device.o)
 .ARM.attributes
                0x00000c9b       0x23 ../../../../../..//binary/armv7a/gcc/am335x/system_config/Release/libsystem_config.a(init.o)
 .ARM.attributes
                0x00000cbe       0x3d ../../../../../..//binary/armv7a/gcc/am335x/system_config/Release/libsystem_config.a(interrupt.o)
 .ARM.attributes
                0x00000cfb       0x3d ../../../../../..//binary/armv7a/gcc/am335x/system_config/Release/libsystem_config.a(mmu.o)
 .ARM.attributes
                0x00000d38       0x3d ../../../../../..//binary/armv7a/gcc/am335x/system_config/Release/libsystem_config.a(startup.o)
 .ARM.attributes
                0x00000d75       0x3d ../../../../../..//binary/armv7a/gcc/am335x/system_config/Release/libsystem_config.a(cpu.o)
 .ARM.attributes
                0x00000db2       0x23 ../../../../../..//binary/armv7a/gcc/am335x/system_config/Release/libsystem_config.a(exceptionhandler.o)
 .ARM.attributes
                0x00000dd5       0x30 /home/abby/opt/gcc-arm-none-eabi-4_7-2012q4//arm-none-eabi/lib//libc.a(lib_a-memcmp.o)
 .ARM.attributes
                0x00000e05       0x30 /home/abby/opt/gcc-arm-none-eabi-4_7-2012q4//arm-none-eabi/lib//libc.a(lib_a-memcpy.o)
 .ARM.attributes
                0x00000e35       0x30 /home/abby/opt/gcc-arm-none-eabi-4_7-2012q4//arm-none-eabi/lib//libc.a(lib_a-memset.o)
 .ARM.attributes
                0x00000e65       0x30 /home/abby/opt/gcc-arm-none-eabi-4_7-2012q4//arm-none-eabi/lib//libc.a(lib_a-stpcpy.o)
 .ARM.attributes
                0x00000e95       0x30 /home/abby/opt/gcc-arm-none-eabi-4_7-2012q4//arm-none-eabi/lib//libc.a(lib_a-strcat.o)
 .ARM.attributes
                0x00000ec5       0x30 /home/abby/opt/gcc-arm-none-eabi-4_7-2012q4//arm-none-eabi/lib//libc.a(lib_a-strchr.o)
 .ARM.attributes
                0x00000ef5       0x30 /home/abby/opt/gcc-arm-none-eabi-4_7-2012q4//arm-none-eabi/lib//libc.a(lib_a-strcmp.o)
 .ARM.attributes
                0x00000f25       0x30 /home/abby/opt/gcc-arm-none-eabi-4_7-2012q4//arm-none-eabi/lib//libc.a(lib_a-strcpy.o)
 .ARM.attributes
                0x00000f55       0x30 /home/abby/opt/gcc-arm-none-eabi-4_7-2012q4//arm-none-eabi/lib//libc.a(lib_a-strlen.o)
 .ARM.attributes
                0x00000f85       0x30 /home/abby/opt/gcc-arm-none-eabi-4_7-2012q4//arm-none-eabi/lib//libc.a(lib_a-strncmp.o)
 .ARM.attributes
                0x00000fb5       0x30 /home/abby/opt/gcc-arm-none-eabi-4_7-2012q4//arm-none-eabi/lib//libc.a(lib_a-strncpy.o)
 .ARM.attributes
                0x00000fe5       0x18 /home/abby/opt/gcc-arm-none-eabi-4_7-2012q4//lib/gcc/arm-none-eabi/4.7.3//libgcc.a(_udivsi3.o)
 .ARM.attributes
                0x00000ffd       0x18 /home/abby/opt/gcc-arm-none-eabi-4_7-2012q4//lib/gcc/arm-none-eabi/4.7.3//libgcc.a(_divsi3.o)
 .ARM.attributes
                0x00001015       0x18 /home/abby/opt/gcc-arm-none-eabi-4_7-2012q4//lib/gcc/arm-none-eabi/4.7.3//libgcc.a(_dvmd_tls.o)

.debug_loc      0x00000000    0x1e6ef
 .debug_loc     0x00000000      0x16b Release/cm3wkup_proxy.o
 .debug_loc     0x0000016b      0x1da Release/demoDvfs.o
 .debug_loc     0x00000345      0x266 Release/demoEnet.o
 .debug_loc     0x000005ab      0x104 Release/demoGpio.o
 .debug_loc     0x000006af      0x2f0 Release/demoI2c.o
 .debug_loc     0x0000099f       0x80 Release/demoLedIf.o
 .debug_loc     0x00000a1f      0x446 Release/demoMain.o
 .debug_loc     0x00000e65      0x340 Release/demoPwrMgmnt.o
 .debug_loc     0x000011a5      0x1db Release/demoRtc.o
 .debug_loc     0x00001380      0x5ad Release/demoSdFs.o
 .debug_loc     0x0000192d      0x537 Release/demoSdRw.o
 .debug_loc     0x00001e64      0x260 Release/demoTimer.o
 .debug_loc     0x000020c4       0x40 Release/demoUart.o
 .debug_loc     0x00002104      0x2d8 Release/fat_mmcsd.o
 .debug_loc     0x000023dc     0x260b Release/ff.o
 .debug_loc     0x000049e7     0x11b7 Release/httpd_io.o
 .debug_loc     0x00005b9e     0xb833 Release/lwiplib.o
 .debug_loc     0x000113d1      0x1a5 Release/pmic.o
 .debug_loc     0x00011576      0x90a ../../../../../..//binary/armv7a/gcc/am335x/drivers/Release/libdrivers.a(cpsw.o)
 .debug_loc     0x00011e80      0x210 ../../../../../..//binary/armv7a/gcc/am335x/drivers/Release/libdrivers.a(dmtimer.o)
 .debug_loc     0x00012090     0x14b2 ../../../../../..//binary/armv7a/gcc/am335x/drivers/Release/libdrivers.a(edma.o)
 .debug_loc     0x00013542      0x4d1 ../../../../../..//binary/armv7a/gcc/am335x/drivers/Release/libdrivers.a(gpio_v2.o)
 .debug_loc     0x00013a13     0x166a ../../../../../..//binary/armv7a/gcc/am335x/drivers/Release/libdrivers.a(gpmc.o)
 .debug_loc     0x0001507d      0x7d0 ../../../../../..//binary/armv7a/gcc/am335x/drivers/Release/libdrivers.a(hs_mmcsd.o)
 .debug_loc     0x0001584d      0x58e ../../../../../..//binary/armv7a/gcc/am335x/drivers/Release/libdrivers.a(hsi2c.o)
 .debug_loc     0x00015ddb      0x378 ../../../../../..//binary/armv7a/gcc/am335x/drivers/Release/libdrivers.a(mailbox.o)
 .debug_loc     0x00016153      0x225 ../../../../../..//binary/armv7a/gcc/am335x/drivers/Release/libdrivers.a(mdio.o)
 .debug_loc     0x00016378      0x804 ../../../../../..//binary/armv7a/gcc/am335x/drivers/Release/libdrivers.a(phy.o)
 .debug_loc     0x00016b7c      0xecb ../../../../../..//binary/armv7a/gcc/am335x/drivers/Release/libdrivers.a(rtc.o)
 .debug_loc     0x00017a47     0x1e21 ../../../../../..//binary/armv7a/gcc/am335x/drivers/Release/libdrivers.a(uart_irda_cir.o)
 .debug_loc     0x00019868      0x4e2 ../../../../../..//binary/armv7a/gcc/utils/Release/libutils.a(ascii.o)
 .debug_loc     0x00019d4a       0x7b ../../../../../..//binary/armv7a/gcc/utils/Release/libutils.a(board.o)
 .debug_loc     0x00019dc5       0xef ../../../../../..//binary/armv7a/gcc/utils/Release/libutils.a(cmdline.o)
 .debug_loc     0x00019eb4      0x31b ../../../../../..//binary/armv7a/gcc/utils/Release/libutils.a(consoleUtils.o)
 .debug_loc     0x0001a1cf       0xe2 ../../../../../..//binary/armv7a/gcc/utils/Release/libutils.a(delay.o)
 .debug_loc     0x0001a2b1     0x18d9 ../../../../../..//binary/armv7a/gcc/utils/Release/libutils.a(uartStdio.o)
 .debug_loc     0x0001bb8a       0x6a ../../../../../..//binary/armv7a/gcc/am335x/beaglebone/platform/Release/libplatform.a(board.o)
 .debug_loc     0x0001bbf4      0x1bf ../../../../../..//binary/armv7a/gcc/am335x/beaglebone/platform/Release/libplatform.a(ctlregcontext.o)
 .debug_loc     0x0001bdb3       0xd5 ../../../../../..//binary/armv7a/gcc/am335x/beaglebone/platform/Release/libplatform.a(edma.o)
 .debug_loc     0x0001be88      0x13e ../../../../../..//binary/armv7a/gcc/am335x/beaglebone/platform/Release/libplatform.a(eeprom.o)
 .debug_loc     0x0001bfc6       0x35 ../../../../../..//binary/armv7a/gcc/am335x/beaglebone/platform/Release/libplatform.a(gpio.o)
 .debug_loc     0x0001bffb      0x165 ../../../../../..//binary/armv7a/gcc/am335x/beaglebone/platform/Release/libplatform.a(sysdelay.o)
 .debug_loc     0x0001c160       0xab ../../../../../..//binary/armv7a/gcc/am335x/beaglebone/platform/Release/libplatform.a(uartConsole.o)
 .debug_loc     0x0001c20b      0x3e0 ../../../../../..//binary/armv7a/gcc/mmcsdlib/Release/libmmcsd.a(hs_mmcsdlib.o)
 .debug_loc     0x0001c5eb     0x1108 ../../../../../..//binary/armv7a/gcc/mmcsdlib/Release/libmmcsd.a(mmcsd_proto.o)
 .debug_loc     0x0001d6f3      0x2b0 ../../../../../..//binary/armv7a/gcc/am335x/system_config/Release/libsystem_config.a(cache.o)
 .debug_loc     0x0001d9a3      0x9a3 ../../../../../..//binary/armv7a/gcc/am335x/system_config/Release/libsystem_config.a(clock.o)
 .debug_loc     0x0001e346       0x22 ../../../../../..//binary/armv7a/gcc/am335x/system_config/Release/libsystem_config.a(device.o)
 .debug_loc     0x0001e368      0x248 ../../../../../..//binary/armv7a/gcc/am335x/system_config/Release/libsystem_config.a(interrupt.o)
 .debug_loc     0x0001e5b0      0x10b ../../../../../..//binary/armv7a/gcc/am335x/system_config/Release/libsystem_config.a(mmu.o)
 .debug_loc     0x0001e6bb       0x34 ../../../../../..//binary/armv7a/gcc/am335x/system_config/Release/libsystem_config.a(startup.o)

.debug_ranges   0x00000000     0x4840
 .debug_ranges  0x00000000       0xb0 Release/cm3wkup_proxy.o
 .debug_ranges  0x000000b0       0x38 Release/demoDvfs.o
 .debug_ranges  0x000000e8       0x68 Release/demoEnet.o
 .debug_ranges  0x00000150       0x20 Release/demoGpio.o
 .debug_ranges  0x00000170       0x40 Release/demoI2c.o
 .debug_ranges  0x000001b0       0x28 Release/demoLedIf.o
 .debug_ranges  0x000001d8      0x160 Release/demoMain.o
 .debug_ranges  0x00000338       0xb8 Release/demoPwrMgmnt.o
 .debug_ranges  0x000003f0       0x38 Release/demoRtc.o
 .debug_ranges  0x00000428       0xe8 Release/demoSdFs.o
 .debug_ranges  0x00000510       0xb8 Release/demoSdRw.o
 .debug_ranges  0x000005c8       0xb0 Release/demoTimer.o
 .debug_ranges  0x00000678       0x18 Release/demoUart.o
 .debug_ranges  0x00000690       0x50 Release/fat_mmcsd.o
 .debug_ranges  0x000006e0      0x2e0 Release/ff.o
 .debug_ranges  0x000009c0      0x2e8 Release/httpd_io.o
 .debug_ranges  0x00000ca8     0x18e0 Release/lwiplib.o
 .debug_ranges  0x00002588       0x28 Release/pmic.o
 .debug_ranges  0x000025b0      0x308 ../../../../../..//binary/armv7a/gcc/am335x/drivers/Release/libdrivers.a(cpsw.o)
 .debug_ranges  0x000028b8       0xd8 ../../../../../..//binary/armv7a/gcc/am335x/drivers/Release/libdrivers.a(dmtimer.o)
 .debug_ranges  0x00002990      0x188 ../../../../../..//binary/armv7a/gcc/am335x/drivers/Release/libdrivers.a(edma.o)
 .debug_ranges  0x00002b18       0xf0 ../../../../../..//binary/armv7a/gcc/am335x/drivers/Release/libdrivers.a(gpio_v2.o)
 .debug_ranges  0x00002c08      0x2a0 ../../../../../..//binary/armv7a/gcc/am335x/drivers/Release/libdrivers.a(gpmc.o)
 .debug_ranges  0x00002ea8      0x160 ../../../../../..//binary/armv7a/gcc/am335x/drivers/Release/libdrivers.a(hs_mmcsd.o)
 .debug_ranges  0x00003008      0x170 ../../../../../..//binary/armv7a/gcc/am335x/drivers/Release/libdrivers.a(hsi2c.o)
 .debug_ranges  0x00003178       0x78 ../../../../../..//binary/armv7a/gcc/am335x/drivers/Release/libdrivers.a(mailbox.o)
 .debug_ranges  0x000031f0       0x40 ../../../../../..//binary/armv7a/gcc/am335x/drivers/Release/libdrivers.a(mdio.o)
 .debug_ranges  0x00003230       0x60 ../../../../../..//binary/armv7a/gcc/am335x/drivers/Release/libdrivers.a(phy.o)
 .debug_ranges  0x00003290      0x2c8 ../../../../../..//binary/armv7a/gcc/am335x/drivers/Release/libdrivers.a(rtc.o)
 .debug_ranges  0x00003558      0x5c8 ../../../../../..//binary/armv7a/gcc/am335x/drivers/Release/libdrivers.a(uart_irda_cir.o)
 .debug_ranges  0x00003b20       0x38 ../../../../../..//binary/armv7a/gcc/utils/Release/libutils.a(ascii.o)
 .debug_ranges  0x00003b58       0x28 ../../../../../..//binary/armv7a/gcc/utils/Release/libutils.a(board.o)
 .debug_ranges  0x00003b80       0x10 ../../../../../..//binary/armv7a/gcc/utils/Release/libutils.a(cmdline.o)
 .debug_ranges  0x00003b90       0x48 ../../../../../..//binary/armv7a/gcc/utils/Release/libutils.a(consoleUtils.o)
 .debug_ranges  0x00003bd8       0x30 ../../../../../..//binary/armv7a/gcc/utils/Release/libutils.a(delay.o)
 .debug_ranges  0x00003c08      0x330 ../../../../../..//binary/armv7a/gcc/utils/Release/libutils.a(uartStdio.o)
 .debug_ranges  0x00003f38       0x10 ../../../../../..//binary/armv7a/gcc/am335x/beaglebone/platform/Release/libplatform.a(board.o)
 .debug_ranges  0x00003f48       0x28 ../../../../../..//binary/armv7a/gcc/am335x/beaglebone/platform/Release/libplatform.a(cpsw.o)
 .debug_ranges  0x00003f70       0x40 ../../../../../..//binary/armv7a/gcc/am335x/beaglebone/platform/Release/libplatform.a(ctlregcontext.o)
 .debug_ranges  0x00003fb0       0x38 ../../../../../..//binary/armv7a/gcc/am335x/beaglebone/platform/Release/libplatform.a(dmtimer.o)
 .debug_ranges  0x00003fe8       0x20 ../../../../../..//binary/armv7a/gcc/am335x/beaglebone/platform/Release/libplatform.a(edma.o)
 .debug_ranges  0x00004008       0x58 ../../../../../..//binary/armv7a/gcc/am335x/beaglebone/platform/Release/libplatform.a(eeprom.o)
 .debug_ranges  0x00004060       0x30 ../../../../../..//binary/armv7a/gcc/am335x/beaglebone/platform/Release/libplatform.a(gpio.o)
 .debug_ranges  0x00004090       0x18 ../../../../../..//binary/armv7a/gcc/am335x/beaglebone/platform/Release/libplatform.a(hs_mmcsd.o)
 .debug_ranges  0x000040a8       0x20 ../../../../../..//binary/armv7a/gcc/am335x/beaglebone/platform/Release/libplatform.a(hsi2c.o)
 .debug_ranges  0x000040c8       0x18 ../../../../../..//binary/armv7a/gcc/am335x/beaglebone/platform/Release/libplatform.a(rtc.o)
 .debug_ranges  0x000040e0       0x38 ../../../../../..//binary/armv7a/gcc/am335x/beaglebone/platform/Release/libplatform.a(sysdelay.o)
 .debug_ranges  0x00004118       0x60 ../../../../../..//binary/armv7a/gcc/am335x/beaglebone/platform/Release/libplatform.a(uartConsole.o)
 .debug_ranges  0x00004178       0x18 ../../../../../..//binary/armv7a/gcc/am335x/beaglebone/platform/Release/libplatform.a(uart.o)
 .debug_ranges  0x00004190       0x38 ../../../../../..//binary/armv7a/gcc/mmcsdlib/Release/libmmcsd.a(hs_mmcsdlib.o)
 .debug_ranges  0x000041c8      0x2f0 ../../../../../..//binary/armv7a/gcc/mmcsdlib/Release/libmmcsd.a(mmcsd_proto.o)
 .debug_ranges  0x000044b8       0x58 ../../../../../..//binary/armv7a/gcc/am335x/system_config/Release/libsystem_config.a(cache.o)
 .debug_ranges  0x00004510      0x170 ../../../../../..//binary/armv7a/gcc/am335x/system_config/Release/libsystem_config.a(clock.o)
 .debug_ranges  0x00004680       0x18 ../../../../../..//binary/armv7a/gcc/am335x/system_config/Release/libsystem_config.a(device.o)
 .debug_ranges  0x00004698      0x130 ../../../../../..//binary/armv7a/gcc/am335x/system_config/Release/libsystem_config.a(interrupt.o)
 .debug_ranges  0x000047c8       0x20 ../../../../../..//binary/armv7a/gcc/am335x/system_config/Release/libsystem_config.a(mmu.o)
 .debug_ranges  0x000047e8       0x10 ../../../../../..//binary/armv7a/gcc/am335x/system_config/Release/libsystem_config.a(startup.o)
 .debug_ranges  0x000047f8       0x48 ../../../../../..//binary/armv7a/gcc/am335x/system_config/Release/libsystem_config.a(cpu.o)

.debug_frame    0x00000000     0x5e38
 .debug_frame   0x00000000      0x138 Release/cm3wkup_proxy.o
 .debug_frame   0x00000138       0x90 Release/demoDvfs.o
 .debug_frame   0x000001c8      0x154 Release/demoEnet.o
 .debug_frame   0x0000031c       0x5c Release/demoGpio.o
 .debug_frame   0x00000378       0xd4 Release/demoI2c.o
 .debug_frame   0x0000044c       0x70 Release/demoLedIf.o
 .debug_frame   0x000004bc      0x204 Release/demoMain.o
 .debug_frame   0x000006c0       0xb4 Release/demoPwrMgmnt.o
 .debug_frame   0x00000774       0xac Release/demoRtc.o
 .debug_frame   0x00000820      0x140 Release/demoSdFs.o
 .debug_frame   0x00000960      0x134 Release/demoSdRw.o
 .debug_frame   0x00000a94      0x1f8 Release/demoTimer.o
 .debug_frame   0x00000c8c       0x40 Release/demoUart.o
 .debug_frame   0x00000ccc       0x8c Release/fat_mmcsd.o
 .debug_frame   0x00000d58      0x3a0 Release/ff.o
 .debug_frame   0x000010f8      0x1bc Release/httpd_io.o
 .debug_frame   0x000012b4     0x1384 Release/lwiplib.o
 .debug_frame   0x00002638       0x80 Release/pmic.o
 .debug_frame   0x000026b8      0x4e4 ../../../../../..//binary/armv7a/gcc/am335x/drivers/Release/libdrivers.a(cpsw.o)
 .debug_frame   0x00002b9c      0x1b0 ../../../../../..//binary/armv7a/gcc/am335x/drivers/Release/libdrivers.a(dmtimer.o)
 .debug_frame   0x00002d4c      0x320 ../../../../../..//binary/armv7a/gcc/am335x/drivers/Release/libdrivers.a(edma.o)
 .debug_frame   0x0000306c      0x1e0 ../../../../../..//binary/armv7a/gcc/am335x/drivers/Release/libdrivers.a(gpio_v2.o)
 .debug_frame   0x0000324c      0x540 ../../../../../..//binary/armv7a/gcc/am335x/drivers/Release/libdrivers.a(gpmc.o)
 .debug_frame   0x0000378c      0x204 ../../../../../..//binary/armv7a/gcc/am335x/drivers/Release/libdrivers.a(hs_mmcsd.o)
 .debug_frame   0x00003990      0x2f0 ../../../../../..//binary/armv7a/gcc/am335x/drivers/Release/libdrivers.a(hsi2c.o)
 .debug_frame   0x00003c80       0xf0 ../../../../../..//binary/armv7a/gcc/am335x/drivers/Release/libdrivers.a(mailbox.o)
 .debug_frame   0x00003d70       0x98 ../../../../../..//binary/armv7a/gcc/am335x/drivers/Release/libdrivers.a(mdio.o)
 .debug_frame   0x00003e08      0x158 ../../../../../..//binary/armv7a/gcc/am335x/drivers/Release/libdrivers.a(phy.o)
 .debug_frame   0x00003f60      0x620 ../../../../../..//binary/armv7a/gcc/am335x/drivers/Release/libdrivers.a(rtc.o)
 .debug_frame   0x00004580      0x53c ../../../../../..//binary/armv7a/gcc/am335x/drivers/Release/libdrivers.a(uart_irda_cir.o)
 .debug_frame   0x00004abc       0xcc ../../../../../..//binary/armv7a/gcc/utils/Release/libutils.a(ascii.o)
 .debug_frame   0x00004b88       0x60 ../../../../../..//binary/armv7a/gcc/utils/Release/libutils.a(board.o)
 .debug_frame   0x00004be8       0x30 ../../../../../..//binary/armv7a/gcc/utils/Release/libutils.a(cmdline.o)
 .debug_frame   0x00004c18       0xec ../../../../../..//binary/armv7a/gcc/utils/Release/libutils.a(consoleUtils.o)
 .debug_frame   0x00004d04       0x88 ../../../../../..//binary/armv7a/gcc/utils/Release/libutils.a(delay.o)
 .debug_frame   0x00004d8c      0x1cc ../../../../../..//binary/armv7a/gcc/utils/Release/libutils.a(uartStdio.o)
 .debug_frame   0x00004f58       0x2c ../../../../../..//binary/armv7a/gcc/am335x/beaglebone/platform/Release/libplatform.a(board.o)
 .debug_frame   0x00004f84       0x50 ../../../../../..//binary/armv7a/gcc/am335x/beaglebone/platform/Release/libplatform.a(cpsw.o)
 .debug_frame   0x00004fd4       0x88 ../../../../../..//binary/armv7a/gcc/am335x/beaglebone/platform/Release/libplatform.a(ctlregcontext.o)
 .debug_frame   0x0000505c       0x70 ../../../../../..//binary/armv7a/gcc/am335x/beaglebone/platform/Release/libplatform.a(dmtimer.o)
 .debug_frame   0x000050cc       0x40 ../../../../../..//binary/armv7a/gcc/am335x/beaglebone/platform/Release/libplatform.a(edma.o)
 .debug_frame   0x0000510c       0x68 ../../../../../..//binary/armv7a/gcc/am335x/beaglebone/platform/Release/libplatform.a(eeprom.o)
 .debug_frame   0x00005174       0x60 ../../../../../..//binary/armv7a/gcc/am335x/beaglebone/platform/Release/libplatform.a(gpio.o)
 .debug_frame   0x000051d4       0x30 ../../../../../..//binary/armv7a/gcc/am335x/beaglebone/platform/Release/libplatform.a(hs_mmcsd.o)
 .debug_frame   0x00005204       0x40 ../../../../../..//binary/armv7a/gcc/am335x/beaglebone/platform/Release/libplatform.a(hsi2c.o)
 .debug_frame   0x00005244       0x30 ../../../../../..//binary/armv7a/gcc/am335x/beaglebone/platform/Release/libplatform.a(rtc.o)
 .debug_frame   0x00005274       0x98 ../../../../../..//binary/armv7a/gcc/am335x/beaglebone/platform/Release/libplatform.a(sysdelay.o)
 .debug_frame   0x0000530c       0x58 ../../../../../..//binary/armv7a/gcc/am335x/beaglebone/platform/Release/libplatform.a(uartConsole.o)
 .debug_frame   0x00005364       0x30 ../../../../../..//binary/armv7a/gcc/am335x/beaglebone/platform/Release/libplatform.a(uart.o)
 .debug_frame   0x00005394       0xb0 ../../../../../..//binary/armv7a/gcc/mmcsdlib/Release/libmmcsd.a(hs_mmcsdlib.o)
 .debug_frame   0x00005444      0x17c ../../../../../..//binary/armv7a/gcc/mmcsdlib/Release/libmmcsd.a(mmcsd_proto.o)
 .debug_frame   0x000055c0      0x100 ../../../../../..//binary/armv7a/gcc/am335x/system_config/Release/libsystem_config.a(cache.o)
 .debug_frame   0x000056c0      0x1f4 ../../../../../..//binary/armv7a/gcc/am335x/system_config/Release/libsystem_config.a(clock.o)
 .debug_frame   0x000058b4       0x30 ../../../../../..//binary/armv7a/gcc/am335x/system_config/Release/libsystem_config.a(device.o)
 .debug_frame   0x000058e4      0x238 ../../../../../..//binary/armv7a/gcc/am335x/system_config/Release/libsystem_config.a(interrupt.o)
 .debug_frame   0x00005b1c       0x60 ../../../../../..//binary/armv7a/gcc/am335x/system_config/Release/libsystem_config.a(mmu.o)
 .debug_frame   0x00005b7c       0x28 ../../../../../..//binary/armv7a/gcc/am335x/system_config/Release/libsystem_config.a(startup.o)
 .debug_frame   0x00005ba4       0x90 ../../../../../..//binary/armv7a/gcc/am335x/system_config/Release/libsystem_config.a(cpu.o)
 .debug_frame   0x00005c34       0x28 /home/abby/opt/gcc-arm-none-eabi-4_7-2012q4//arm-none-eabi/lib//libc.a(lib_a-memcmp.o)
 .debug_frame   0x00005c5c       0x2c /home/abby/opt/gcc-arm-none-eabi-4_7-2012q4//arm-none-eabi/lib//libc.a(lib_a-memcpy.o)
 .debug_frame   0x00005c88       0x28 /home/abby/opt/gcc-arm-none-eabi-4_7-2012q4//arm-none-eabi/lib//libc.a(lib_a-memset.o)
 .debug_frame   0x00005cb0       0x28 /home/abby/opt/gcc-arm-none-eabi-4_7-2012q4//arm-none-eabi/lib//libc.a(lib_a-stpcpy.o)
 .debug_frame   0x00005cd8       0x2c /home/abby/opt/gcc-arm-none-eabi-4_7-2012q4//arm-none-eabi/lib//libc.a(lib_a-strcat.o)
 .debug_frame   0x00005d04       0x30 /home/abby/opt/gcc-arm-none-eabi-4_7-2012q4//arm-none-eabi/lib//libc.a(lib_a-strchr.o)
 .debug_frame   0x00005d34       0x30 /home/abby/opt/gcc-arm-none-eabi-4_7-2012q4//arm-none-eabi/lib//libc.a(lib_a-strcmp.o)
 .debug_frame   0x00005d64       0x20 /home/abby/opt/gcc-arm-none-eabi-4_7-2012q4//arm-none-eabi/lib//libc.a(lib_a-strcpy.o)
 .debug_frame   0x00005d84       0x20 /home/abby/opt/gcc-arm-none-eabi-4_7-2012q4//arm-none-eabi/lib//libc.a(lib_a-strlen.o)
 .debug_frame   0x00005da4       0x28 /home/abby/opt/gcc-arm-none-eabi-4_7-2012q4//arm-none-eabi/lib//libc.a(lib_a-strncmp.o)
 .debug_frame   0x00005dcc       0x2c /home/abby/opt/gcc-arm-none-eabi-4_7-2012q4//arm-none-eabi/lib//libc.a(lib_a-strncpy.o)
 .debug_frame   0x00005df8       0x20 /home/abby/opt/gcc-arm-none-eabi-4_7-2012q4//lib/gcc/arm-none-eabi/4.7.3//libgcc.a(_udivsi3.o)
 .debug_frame   0x00005e18       0x20 /home/abby/opt/gcc-arm-none-eabi-4_7-2012q4//lib/gcc/arm-none-eabi/4.7.3//libgcc.a(_divsi3.o)
