Archive member included because of file (symbol)

../../../../../..//binary/armv7a/gcc/am335x/drivers/Release/libdrivers.a(hsi2c.o)
                              Release/hsi2cEeprom.o (I2CMasterInitExpClk)
../../../../../..//binary/armv7a/gcc/utils/Release/libutils.a(consoleUtils.o)
                              Release/hsi2cEeprom.o (ConsoleUtilsInit)
../../../../../..//binary/armv7a/gcc/utils/Release/libutils.a(uartStdio.o)
                              ../../../../../..//binary/armv7a/gcc/utils/Release/libutils.a(consoleUtils.o) (UARTStdioInit)
../../../../../..//binary/armv7a/gcc/utils/Release/libutils.a(ascii.o)
                              ../../../../../..//binary/armv7a/gcc/utils/Release/libutils.a(uartStdio.o) (ASCIIToDigit)
../../../../../..//binary/armv7a/gcc/am335x/beaglebone/platform/Release/libplatform.a(hsi2c.o)
                              Release/hsi2cEeprom.o (I2CPinMuxSetup)
../../../../../..//binary/armv7a/gcc/am335x/beaglebone/platform/Release/libplatform.a(uartConsole.o)
                              ../../../../../..//binary/armv7a/gcc/utils/Release/libutils.a(uartStdio.o) (UARTConsoleInit)
../../../../../..//binary/armv7a/gcc/am335x/beaglebone/platform/Release/libplatform.a(uart.o)
                              ../../../../../..//binary/armv7a/gcc/am335x/beaglebone/platform/Release/libplatform.a(uartConsole.o) (UARTPinMuxSetup)
../../../../../..//binary/armv7a/gcc/am335x/system_config/Release/libsystem_config.a(init.o)
                              (Entry)
../../../../../..//binary/armv7a/gcc/am335x/system_config/Release/libsystem_config.a(interrupt.o)
                              Release/hsi2cEeprom.o (IntRegister)
../../../../../..//binary/armv7a/gcc/am335x/system_config/Release/libsystem_config.a(startup.o)
                              ../../../../../..//binary/armv7a/gcc/am335x/system_config/Release/libsystem_config.a(init.o) (start_boot)
../../../../../..//binary/armv7a/gcc/am335x/system_config/Release/libsystem_config.a(cp15.o)
                              ../../../../../..//binary/armv7a/gcc/am335x/system_config/Release/libsystem_config.a(startup.o) (CP15VectorBaseAddrSet)
../../../../../..//binary/armv7a/gcc/am335x/system_config/Release/libsystem_config.a(cpu.o)
                              ../../../../../..//binary/armv7a/gcc/am335x/system_config/Release/libsystem_config.a(interrupt.o) (CPUIntStatus)
../../../../../..//binary/armv7a/gcc/am335x/system_config/Release/libsystem_config.a(exceptionhandler.o)
                              ../../../../../..//binary/armv7a/gcc/am335x/system_config/Release/libsystem_config.a(startup.o) (IRQHandler)
/home/sungjae/gcc-arm-none-eabi-4_7-2012q4//lib/gcc/arm-none-eabi/4.7.3//libgcc.a(_udivsi3.o)
                              (__aeabi_uidiv)
/home/sungjae/gcc-arm-none-eabi-4_7-2012q4//lib/gcc/arm-none-eabi/4.7.3//libgcc.a(_divsi3.o)
                              (__aeabi_idiv)
/home/sungjae/gcc-arm-none-eabi-4_7-2012q4//lib/gcc/arm-none-eabi/4.7.3//libgcc.a(_dvmd_tls.o)
                              /home/sungjae/gcc-arm-none-eabi-4_7-2012q4//lib/gcc/arm-none-eabi/4.7.3//libgcc.a(_udivsi3.o) (__aeabi_idiv0)
../../../../../..//binary/armv7a/gcc/am335x/drivers/Release/libdrivers.a(uart_irda_cir.o)
                              ../../../../../..//binary/armv7a/gcc/am335x/beaglebone/platform/Release/libplatform.a(uartConsole.o) (UARTOperatingModeSelect)

Allocating common symbols
Common symbol       size              file

dataToSlave         0x2               Release/hsi2cEeprom.o
rCount              0x4               Release/hsi2cEeprom.o
numOfBytes          0x4               Release/hsi2cEeprom.o
tCount              0x4               Release/hsi2cEeprom.o
fnRAMVectors        0x200             ../../../../../..//binary/armv7a/gcc/am335x/system_config/Release/libsystem_config.a(interrupt.o)
dataFromSlave       0x32              Release/hsi2cEeprom.o

Discarded input sections

 .text          0x00000000        0x0 Release/hsi2cEeprom.o
 .data          0x00000000        0x0 Release/hsi2cEeprom.o
 .bss           0x00000000        0x0 Release/hsi2cEeprom.o
 .text          0x00000000        0x0 ../../../../../..//binary/armv7a/gcc/am335x/drivers/Release/libdrivers.a(hsi2c.o)
 .data          0x00000000        0x0 ../../../../../..//binary/armv7a/gcc/am335x/drivers/Release/libdrivers.a(hsi2c.o)
 .bss           0x00000000        0x0 ../../../../../..//binary/armv7a/gcc/am335x/drivers/Release/libdrivers.a(hsi2c.o)
 .text.I2CMasterBusy
                0x00000000        0xc ../../../../../..//binary/armv7a/gcc/am335x/drivers/Release/libdrivers.a(hsi2c.o)
 .text.I2CMasterErr
                0x00000000       0x14 ../../../../../..//binary/armv7a/gcc/am335x/drivers/Release/libdrivers.a(hsi2c.o)
 .text.I2CMasterIntStatusEx
                0x00000000        0xc ../../../../../..//binary/armv7a/gcc/am335x/drivers/Release/libdrivers.a(hsi2c.o)
 .text.I2CMasterIntRawStatusEx
                0x00000000        0xc ../../../../../..//binary/armv7a/gcc/am335x/drivers/Release/libdrivers.a(hsi2c.o)
 .text.I2CMasterIntRawStatusClearEx
                0x00000000        0x8 ../../../../../..//binary/armv7a/gcc/am335x/drivers/Release/libdrivers.a(hsi2c.o)
 .text.I2CMasterSlaveAddrGet
                0x00000000       0x10 ../../../../../..//binary/armv7a/gcc/am335x/drivers/Release/libdrivers.a(hsi2c.o)
 .text.I2CFIFOThresholdConfig
                0x00000000       0x30 ../../../../../..//binary/armv7a/gcc/am335x/drivers/Release/libdrivers.a(hsi2c.o)
 .text.I2CFIFOClear
                0x00000000       0x18 ../../../../../..//binary/armv7a/gcc/am335x/drivers/Release/libdrivers.a(hsi2c.o)
 .text.I2CDMATxEventEnable
                0x00000000       0x18 ../../../../../..//binary/armv7a/gcc/am335x/drivers/Release/libdrivers.a(hsi2c.o)
 .text.I2CDMARxEventEnable
                0x00000000       0x18 ../../../../../..//binary/armv7a/gcc/am335x/drivers/Release/libdrivers.a(hsi2c.o)
 .text.I2CDMATxEventDisable
                0x00000000       0x18 ../../../../../..//binary/armv7a/gcc/am335x/drivers/Release/libdrivers.a(hsi2c.o)
 .text.I2CDMARxEventDisable
                0x00000000       0x18 ../../../../../..//binary/armv7a/gcc/am335x/drivers/Release/libdrivers.a(hsi2c.o)
 .text.I2CBufferStatus
                0x00000000       0x40 ../../../../../..//binary/armv7a/gcc/am335x/drivers/Release/libdrivers.a(hsi2c.o)
 .text.I2CActiveOwnAddressGet
                0x00000000       0x50 ../../../../../..//binary/armv7a/gcc/am335x/drivers/Release/libdrivers.a(hsi2c.o)
 .text.I2CClockBlockingControl
                0x00000000       0x68 ../../../../../..//binary/armv7a/gcc/am335x/drivers/Release/libdrivers.a(hsi2c.o)
 .text.I2COwnAddressSet
                0x00000000       0x30 ../../../../../..//binary/armv7a/gcc/am335x/drivers/Release/libdrivers.a(hsi2c.o)
 .text.I2CSoftReset
                0x00000000       0x10 ../../../../../..//binary/armv7a/gcc/am335x/drivers/Release/libdrivers.a(hsi2c.o)
 .text.I2CAutoIdleEnable
                0x00000000       0x10 ../../../../../..//binary/armv7a/gcc/am335x/drivers/Release/libdrivers.a(hsi2c.o)
 .text.I2CGlobalWakeUpEnable
                0x00000000       0x10 ../../../../../..//binary/armv7a/gcc/am335x/drivers/Release/libdrivers.a(hsi2c.o)
 .text.I2CGlobalWakeUpDisable
                0x00000000       0x10 ../../../../../..//binary/armv7a/gcc/am335x/drivers/Release/libdrivers.a(hsi2c.o)
 .text.I2CIdleModeSelect
                0x00000000       0x1c ../../../../../..//binary/armv7a/gcc/am335x/drivers/Release/libdrivers.a(hsi2c.o)
 .text.I2CClockActivitySelect
                0x00000000       0x1c ../../../../../..//binary/armv7a/gcc/am335x/drivers/Release/libdrivers.a(hsi2c.o)
 .text.I2CWakeUpEnable
                0x00000000       0x44 ../../../../../..//binary/armv7a/gcc/am335x/drivers/Release/libdrivers.a(hsi2c.o)
 .text.I2CWakeUpDisable
                0x00000000       0x44 ../../../../../..//binary/armv7a/gcc/am335x/drivers/Release/libdrivers.a(hsi2c.o)
 .text.I2CSystemStatusGet
                0x00000000        0xc ../../../../../..//binary/armv7a/gcc/am335x/drivers/Release/libdrivers.a(hsi2c.o)
 .text.I2CContextSave
                0x00000000       0x24 ../../../../../..//binary/armv7a/gcc/am335x/drivers/Release/libdrivers.a(hsi2c.o)
 .text.I2CContextRestore
                0x00000000       0x64 ../../../../../..//binary/armv7a/gcc/am335x/drivers/Release/libdrivers.a(hsi2c.o)
 .text          0x00000000        0x0 ../../../../../..//binary/armv7a/gcc/utils/Release/libutils.a(consoleUtils.o)
 .data          0x00000000        0x0 ../../../../../..//binary/armv7a/gcc/utils/Release/libutils.a(consoleUtils.o)
 .bss           0x00000000        0x0 ../../../../../..//binary/armv7a/gcc/utils/Release/libutils.a(consoleUtils.o)
 .text.ConsoleUtilsScanf
                0x00000000       0x68 ../../../../../..//binary/armv7a/gcc/utils/Release/libutils.a(consoleUtils.o)
 .text.ConsoleUtilsGets
                0x00000000       0x48 ../../../../../..//binary/armv7a/gcc/utils/Release/libutils.a(consoleUtils.o)
 .text.ConsoleUtilsPuts
                0x00000000       0x30 ../../../../../..//binary/armv7a/gcc/utils/Release/libutils.a(consoleUtils.o)
 .text.ConsoleUtilsGetChar
                0x00000000       0x70 ../../../../../..//binary/armv7a/gcc/utils/Release/libutils.a(consoleUtils.o)
 .text.ConsoleUtilsPutChar
                0x00000000       0x44 ../../../../../..//binary/armv7a/gcc/utils/Release/libutils.a(consoleUtils.o)
 .text          0x00000000        0x0 ../../../../../..//binary/armv7a/gcc/utils/Release/libutils.a(uartStdio.o)
 .data          0x00000000        0x0 ../../../../../..//binary/armv7a/gcc/utils/Release/libutils.a(uartStdio.o)
 .bss           0x00000000        0x0 ../../../../../..//binary/armv7a/gcc/utils/Release/libutils.a(uartStdio.o)
 .text.UARTGets
                0x00000000       0x98 ../../../../../..//binary/armv7a/gcc/utils/Release/libutils.a(uartStdio.o)
 .text.UARTPutNum
                0x00000000       0xb0 ../../../../../..//binary/armv7a/gcc/utils/Release/libutils.a(uartStdio.o)
 .text.UARTPutHexNum
                0x00000000       0xa0 ../../../../../..//binary/armv7a/gcc/utils/Release/libutils.a(uartStdio.o)
 .text.UARTGetNum
                0x00000000       0x68 ../../../../../..//binary/armv7a/gcc/utils/Release/libutils.a(uartStdio.o)
 .text.UARTGetHexNum
                0x00000000      0x164 ../../../../../..//binary/armv7a/gcc/utils/Release/libutils.a(uartStdio.o)
 .text.UARTPutc
                0x00000000       0x14 ../../../../../..//binary/armv7a/gcc/utils/Release/libutils.a(uartStdio.o)
 .text.UARTGetc
                0x00000000       0x14 ../../../../../..//binary/armv7a/gcc/utils/Release/libutils.a(uartStdio.o)
 .text.UARTprintf
                0x00000000      0x4c8 ../../../../../..//binary/armv7a/gcc/utils/Release/libutils.a(uartStdio.o)
 .text.UARTScanf
                0x00000000      0x718 ../../../../../..//binary/armv7a/gcc/utils/Release/libutils.a(uartStdio.o)
 .text          0x00000000        0x0 ../../../../../..//binary/armv7a/gcc/utils/Release/libutils.a(ascii.o)
 .data          0x00000000        0x0 ../../../../../..//binary/armv7a/gcc/utils/Release/libutils.a(ascii.o)
 .bss           0x00000000        0x0 ../../../../../..//binary/armv7a/gcc/utils/Release/libutils.a(ascii.o)
 .text.ASCIIToDigit
                0x00000000       0x84 ../../../../../..//binary/armv7a/gcc/utils/Release/libutils.a(ascii.o)
 .text.DigitToASCII
                0x00000000       0x38 ../../../../../..//binary/armv7a/gcc/utils/Release/libutils.a(ascii.o)
 .text.StrToEthrAddr
                0x00000000       0x80 ../../../../../..//binary/armv7a/gcc/utils/Release/libutils.a(ascii.o)
 .text.EthrAddrToStr
                0x00000000       0x84 ../../../../../..//binary/armv7a/gcc/utils/Release/libutils.a(ascii.o)
 .text.TimeToStr
                0x00000000       0x98 ../../../../../..//binary/armv7a/gcc/utils/Release/libutils.a(ascii.o)
 .text.DateToStr
                0x00000000       0x98 ../../../../../..//binary/armv7a/gcc/utils/Release/libutils.a(ascii.o)
 .debug_info    0x00000000      0x38a ../../../../../..//binary/armv7a/gcc/utils/Release/libutils.a(ascii.o)
 .debug_abbrev  0x00000000      0x171 ../../../../../..//binary/armv7a/gcc/utils/Release/libutils.a(ascii.o)
 .debug_loc     0x00000000      0x4e2 ../../../../../..//binary/armv7a/gcc/utils/Release/libutils.a(ascii.o)
 .debug_aranges
                0x00000000       0x48 ../../../../../..//binary/armv7a/gcc/utils/Release/libutils.a(ascii.o)
 .debug_ranges  0x00000000       0x38 ../../../../../..//binary/armv7a/gcc/utils/Release/libutils.a(ascii.o)
 .debug_line    0x00000000      0x16a ../../../../../..//binary/armv7a/gcc/utils/Release/libutils.a(ascii.o)
 .debug_str     0x00000000      0x18a ../../../../../..//binary/armv7a/gcc/utils/Release/libutils.a(ascii.o)
 .comment       0x00000000       0x71 ../../../../../..//binary/armv7a/gcc/utils/Release/libutils.a(ascii.o)
 .ARM.attributes
                0x00000000       0x37 ../../../../../..//binary/armv7a/gcc/utils/Release/libutils.a(ascii.o)
 .debug_frame   0x00000000       0xcc ../../../../../..//binary/armv7a/gcc/utils/Release/libutils.a(ascii.o)
 .text          0x00000000        0x0 ../../../../../..//binary/armv7a/gcc/am335x/beaglebone/platform/Release/libplatform.a(hsi2c.o)
 .data          0x00000000        0x0 ../../../../../..//binary/armv7a/gcc/am335x/beaglebone/platform/Release/libplatform.a(hsi2c.o)
 .bss           0x00000000        0x0 ../../../../../..//binary/armv7a/gcc/am335x/beaglebone/platform/Release/libplatform.a(hsi2c.o)
 .text.I2C1ModuleClkConfig
                0x00000000      0x1a0 ../../../../../..//binary/armv7a/gcc/am335x/beaglebone/platform/Release/libplatform.a(hsi2c.o)
 .text          0x00000000        0x0 ../../../../../..//binary/armv7a/gcc/am335x/beaglebone/platform/Release/libplatform.a(uartConsole.o)
 .data          0x00000000        0x0 ../../../../../..//binary/armv7a/gcc/am335x/beaglebone/platform/Release/libplatform.a(uartConsole.o)
 .bss           0x00000000        0x0 ../../../../../..//binary/armv7a/gcc/am335x/beaglebone/platform/Release/libplatform.a(uartConsole.o)
 .text.UARTConsoleGetc
                0x00000000       0x20 ../../../../../..//binary/armv7a/gcc/am335x/beaglebone/platform/Release/libplatform.a(uartConsole.o)
 .text          0x00000000        0x0 ../../../../../..//binary/armv7a/gcc/am335x/beaglebone/platform/Release/libplatform.a(uart.o)
 .data          0x00000000        0x0 ../../../../../..//binary/armv7a/gcc/am335x/beaglebone/platform/Release/libplatform.a(uart.o)
 .bss           0x00000000        0x0 ../../../../../..//binary/armv7a/gcc/am335x/beaglebone/platform/Release/libplatform.a(uart.o)
 .data          0x00000000        0x0 ../../../../../..//binary/armv7a/gcc/am335x/system_config/Release/libsystem_config.a(init.o)
 .bss           0x00000000        0x0 ../../../../../..//binary/armv7a/gcc/am335x/system_config/Release/libsystem_config.a(init.o)
 .text          0x00000000        0x0 ../../../../../..//binary/armv7a/gcc/am335x/system_config/Release/libsystem_config.a(interrupt.o)
 .data          0x00000000        0x0 ../../../../../..//binary/armv7a/gcc/am335x/system_config/Release/libsystem_config.a(interrupt.o)
 .bss           0x00000000        0x0 ../../../../../..//binary/armv7a/gcc/am335x/system_config/Release/libsystem_config.a(interrupt.o)
 .text.IntUnRegister
                0x00000000       0x18 ../../../../../..//binary/armv7a/gcc/am335x/system_config/Release/libsystem_config.a(interrupt.o)
 .text.IntSystemDisable
                0x00000000       0x24 ../../../../../..//binary/armv7a/gcc/am335x/system_config/Release/libsystem_config.a(interrupt.o)
 .text.IntIfClkFreeRunSet
                0x00000000       0x18 ../../../../../..//binary/armv7a/gcc/am335x/system_config/Release/libsystem_config.a(interrupt.o)
 .text.IntIfClkAutoGateSet
                0x00000000       0x18 ../../../../../..//binary/armv7a/gcc/am335x/system_config/Release/libsystem_config.a(interrupt.o)
 .text.IntActiveIrqNumGet
                0x00000000       0x14 ../../../../../..//binary/armv7a/gcc/am335x/system_config/Release/libsystem_config.a(interrupt.o)
 .text.IntSpurIrqFlagGet
                0x00000000       0x14 ../../../../../..//binary/armv7a/gcc/am335x/system_config/Release/libsystem_config.a(interrupt.o)
 .text.IntProtectionEnable
                0x00000000       0x14 ../../../../../..//binary/armv7a/gcc/am335x/system_config/Release/libsystem_config.a(interrupt.o)
 .text.IntProtectionDisable
                0x00000000       0x18 ../../../../../..//binary/armv7a/gcc/am335x/system_config/Release/libsystem_config.a(interrupt.o)
 .text.IntSyncClkFreeRunSet
                0x00000000       0x18 ../../../../../..//binary/armv7a/gcc/am335x/system_config/Release/libsystem_config.a(interrupt.o)
 .text.IntSyncClkAutoGateSet
                0x00000000       0x18 ../../../../../..//binary/armv7a/gcc/am335x/system_config/Release/libsystem_config.a(interrupt.o)
 .text.IntFuncClkFreeRunSet
                0x00000000       0x18 ../../../../../..//binary/armv7a/gcc/am335x/system_config/Release/libsystem_config.a(interrupt.o)
 .text.IntFuncClkAutoGateSet
                0x00000000       0x18 ../../../../../..//binary/armv7a/gcc/am335x/system_config/Release/libsystem_config.a(interrupt.o)
 .text.IntCurrIrqPriorityGet
                0x00000000       0x14 ../../../../../..//binary/armv7a/gcc/am335x/system_config/Release/libsystem_config.a(interrupt.o)
 .text.IntPriorityThresholdGet
                0x00000000       0x14 ../../../../../..//binary/armv7a/gcc/am335x/system_config/Release/libsystem_config.a(interrupt.o)
 .text.IntPriorityThresholdSet
                0x00000000       0x14 ../../../../../..//binary/armv7a/gcc/am335x/system_config/Release/libsystem_config.a(interrupt.o)
 .text.IntRawStatusGet
                0x00000000       0x24 ../../../../../..//binary/armv7a/gcc/am335x/system_config/Release/libsystem_config.a(interrupt.o)
 .text.IntSoftwareIntSet
                0x00000000       0x20 ../../../../../..//binary/armv7a/gcc/am335x/system_config/Release/libsystem_config.a(interrupt.o)
 .text.IntSoftwareIntClear
                0x00000000       0x20 ../../../../../..//binary/armv7a/gcc/am335x/system_config/Release/libsystem_config.a(interrupt.o)
 .text.IntPendingIrqMaskedStatusGet
                0x00000000       0x24 ../../../../../..//binary/armv7a/gcc/am335x/system_config/Release/libsystem_config.a(interrupt.o)
 .text.IntMasterIRQDisable
                0x00000000       0x14 ../../../../../..//binary/armv7a/gcc/am335x/system_config/Release/libsystem_config.a(interrupt.o)
 .text.IntMasterFIQEnable
                0x00000000       0x14 ../../../../../..//binary/armv7a/gcc/am335x/system_config/Release/libsystem_config.a(interrupt.o)
 .text.IntMasterFIQDisable
                0x00000000       0x14 ../../../../../..//binary/armv7a/gcc/am335x/system_config/Release/libsystem_config.a(interrupt.o)
 .text.IntMasterStatusGet
                0x00000000       0x14 ../../../../../..//binary/armv7a/gcc/am335x/system_config/Release/libsystem_config.a(interrupt.o)
 .text.IntDisable
                0x00000000       0x28 ../../../../../..//binary/armv7a/gcc/am335x/system_config/Release/libsystem_config.a(interrupt.o)
 .text.IntEnable
                0x00000000       0x1c ../../../../../..//binary/armv7a/gcc/am335x/system_config/Release/libsystem_config.a(interrupt.o)
 .text          0x00000000        0x0 ../../../../../..//binary/armv7a/gcc/am335x/system_config/Release/libsystem_config.a(startup.o)
 .data          0x00000000        0x0 ../../../../../..//binary/armv7a/gcc/am335x/system_config/Release/libsystem_config.a(startup.o)
 .bss           0x00000000        0x0 ../../../../../..//binary/armv7a/gcc/am335x/system_config/Release/libsystem_config.a(startup.o)
 .rodata.AM335X_VECTOR_BASE
                0x00000000        0x4 ../../../../../..//binary/armv7a/gcc/am335x/system_config/Release/libsystem_config.a(startup.o)
 .data          0x00000000        0x0 ../../../../../..//binary/armv7a/gcc/am335x/system_config/Release/libsystem_config.a(cp15.o)
 .bss           0x00000000        0x0 ../../../../../..//binary/armv7a/gcc/am335x/system_config/Release/libsystem_config.a(cp15.o)
 .text          0x00000000        0x0 ../../../../../..//binary/armv7a/gcc/am335x/system_config/Release/libsystem_config.a(cpu.o)
 .data          0x00000000        0x0 ../../../../../..//binary/armv7a/gcc/am335x/system_config/Release/libsystem_config.a(cpu.o)
 .bss           0x00000000        0x0 ../../../../../..//binary/armv7a/gcc/am335x/system_config/Release/libsystem_config.a(cpu.o)
 .text.CPUSwitchToPrivilegedMode
                0x00000000        0x8 ../../../../../..//binary/armv7a/gcc/am335x/system_config/Release/libsystem_config.a(cpu.o)
 .text.CPUSwitchToUserMode
                0x00000000       0x14 ../../../../../..//binary/armv7a/gcc/am335x/system_config/Release/libsystem_config.a(cpu.o)
 .text.CPUAbortHandler
                0x00000000        0x4 ../../../../../..//binary/armv7a/gcc/am335x/system_config/Release/libsystem_config.a(cpu.o)
 .text.CPUIntStatus
                0x00000000        0xc ../../../../../..//binary/armv7a/gcc/am335x/system_config/Release/libsystem_config.a(cpu.o)
 .text.CPUirqd  0x00000000       0x14 ../../../../../..//binary/armv7a/gcc/am335x/system_config/Release/libsystem_config.a(cpu.o)
 .text.CPUfiqd  0x00000000       0x14 ../../../../../..//binary/armv7a/gcc/am335x/system_config/Release/libsystem_config.a(cpu.o)
 .text.CPUfiqe  0x00000000       0x14 ../../../../../..//binary/armv7a/gcc/am335x/system_config/Release/libsystem_config.a(cpu.o)
 .data          0x00000000        0x0 ../../../../../..//binary/armv7a/gcc/am335x/system_config/Release/libsystem_config.a(exceptionhandler.o)
 .bss           0x00000000        0x0 ../../../../../..//binary/armv7a/gcc/am335x/system_config/Release/libsystem_config.a(exceptionhandler.o)
 .data          0x00000000        0x0 /home/sungjae/gcc-arm-none-eabi-4_7-2012q4//lib/gcc/arm-none-eabi/4.7.3//libgcc.a(_udivsi3.o)
 .bss           0x00000000        0x0 /home/sungjae/gcc-arm-none-eabi-4_7-2012q4//lib/gcc/arm-none-eabi/4.7.3//libgcc.a(_udivsi3.o)
 .data          0x00000000        0x0 /home/sungjae/gcc-arm-none-eabi-4_7-2012q4//lib/gcc/arm-none-eabi/4.7.3//libgcc.a(_divsi3.o)
 .bss           0x00000000        0x0 /home/sungjae/gcc-arm-none-eabi-4_7-2012q4//lib/gcc/arm-none-eabi/4.7.3//libgcc.a(_divsi3.o)
 .data          0x00000000        0x0 /home/sungjae/gcc-arm-none-eabi-4_7-2012q4//lib/gcc/arm-none-eabi/4.7.3//libgcc.a(_dvmd_tls.o)
 .bss           0x00000000        0x0 /home/sungjae/gcc-arm-none-eabi-4_7-2012q4//lib/gcc/arm-none-eabi/4.7.3//libgcc.a(_dvmd_tls.o)
 .text          0x00000000        0x0 ../../../../../..//binary/armv7a/gcc/am335x/drivers/Release/libdrivers.a(uart_irda_cir.o)
 .data          0x00000000        0x0 ../../../../../..//binary/armv7a/gcc/am335x/drivers/Release/libdrivers.a(uart_irda_cir.o)
 .bss           0x00000000        0x0 ../../../../../..//binary/armv7a/gcc/am335x/drivers/Release/libdrivers.a(uart_irda_cir.o)
 .text.UARTDivisorLatchEnable
                0x00000000       0x10 ../../../../../..//binary/armv7a/gcc/am335x/drivers/Release/libdrivers.a(uart_irda_cir.o)
 .text.UARTRegConfModeRestore
                0x00000000        0x8 ../../../../../..//binary/armv7a/gcc/am335x/drivers/Release/libdrivers.a(uart_irda_cir.o)
 .text.UARTParityModeSet
                0x00000000       0x20 ../../../../../..//binary/armv7a/gcc/am335x/drivers/Release/libdrivers.a(uart_irda_cir.o)
 .text.UARTParityModeGet
                0x00000000        0xc ../../../../../..//binary/armv7a/gcc/am335x/drivers/Release/libdrivers.a(uart_irda_cir.o)
 .text.UARTDMAEnable
                0x00000000       0x30 ../../../../../..//binary/armv7a/gcc/am335x/drivers/Release/libdrivers.a(uart_irda_cir.o)
 .text.UARTDMADisable
                0x00000000       0x1c ../../../../../..//binary/armv7a/gcc/am335x/drivers/Release/libdrivers.a(uart_irda_cir.o)
 .text.UARTEnhanFuncEnable
                0x00000000       0x2c ../../../../../..//binary/armv7a/gcc/am335x/drivers/Release/libdrivers.a(uart_irda_cir.o)
 .text.UARTEnhanFuncBitValRestore
                0x00000000       0x30 ../../../../../..//binary/armv7a/gcc/am335x/drivers/Release/libdrivers.a(uart_irda_cir.o)
 .text.UARTSubConfigMSRSPRModeEn
                0x00000000       0x74 ../../../../../..//binary/armv7a/gcc/am335x/drivers/Release/libdrivers.a(uart_irda_cir.o)
 .text.UARTSubConfigXOFFModeEn
                0x00000000       0x74 ../../../../../..//binary/armv7a/gcc/am335x/drivers/Release/libdrivers.a(uart_irda_cir.o)
 .text.UARTIntEnable
                0x00000000       0x84 ../../../../../..//binary/armv7a/gcc/am335x/drivers/Release/libdrivers.a(uart_irda_cir.o)
 .text.UARTIntDisable
                0x00000000       0x74 ../../../../../..//binary/armv7a/gcc/am335x/drivers/Release/libdrivers.a(uart_irda_cir.o)
 .text.UARTSpaceAvail
                0x00000000       0x28 ../../../../../..//binary/armv7a/gcc/am335x/drivers/Release/libdrivers.a(uart_irda_cir.o)
 .text.UARTCharsAvail
                0x00000000       0x20 ../../../../../..//binary/armv7a/gcc/am335x/drivers/Release/libdrivers.a(uart_irda_cir.o)
 .text.UARTCharPutNonBlocking
                0x00000000       0x2c ../../../../../..//binary/armv7a/gcc/am335x/drivers/Release/libdrivers.a(uart_irda_cir.o)
 .text.UARTCharGetNonBlocking
                0x00000000       0x30 ../../../../../..//binary/armv7a/gcc/am335x/drivers/Release/libdrivers.a(uart_irda_cir.o)
 .text.UARTCharGet
                0x00000000       0x30 ../../../../../..//binary/armv7a/gcc/am335x/drivers/Release/libdrivers.a(uart_irda_cir.o)
 .text.UARTCharGetTimeout
                0x00000000       0x68 ../../../../../..//binary/armv7a/gcc/am335x/drivers/Release/libdrivers.a(uart_irda_cir.o)
 .text.UARTFIFOCharPut
                0x00000000        0x8 ../../../../../..//binary/armv7a/gcc/am335x/drivers/Release/libdrivers.a(uart_irda_cir.o)
 .text.UARTFIFOCharGet
                0x00000000        0xc ../../../../../..//binary/armv7a/gcc/am335x/drivers/Release/libdrivers.a(uart_irda_cir.o)
 .text.UARTFIFOWrite
                0x00000000       0x24 ../../../../../..//binary/armv7a/gcc/am335x/drivers/Release/libdrivers.a(uart_irda_cir.o)
 .text.UARTRxErrorGet
                0x00000000       0x20 ../../../../../..//binary/armv7a/gcc/am335x/drivers/Release/libdrivers.a(uart_irda_cir.o)
 .text.UARTIntIdentityGet
                0x00000000       0x20 ../../../../../..//binary/armv7a/gcc/am335x/drivers/Release/libdrivers.a(uart_irda_cir.o)
 .text.UARTIntPendingStatusGet
                0x00000000       0x20 ../../../../../..//binary/armv7a/gcc/am335x/drivers/Release/libdrivers.a(uart_irda_cir.o)
 .text.UARTFIFOEnableStatusGet
                0x00000000       0x28 ../../../../../..//binary/armv7a/gcc/am335x/drivers/Release/libdrivers.a(uart_irda_cir.o)
 .text.UARTAutoRTSAutoCTSControl
                0x00000000       0x40 ../../../../../..//binary/armv7a/gcc/am335x/drivers/Release/libdrivers.a(uart_irda_cir.o)
 .text.UARTSpecialCharDetectControl
                0x00000000       0x30 ../../../../../..//binary/armv7a/gcc/am335x/drivers/Release/libdrivers.a(uart_irda_cir.o)
 .text.UARTSoftwareFlowCtrlOptSet
                0x00000000       0x30 ../../../../../..//binary/armv7a/gcc/am335x/drivers/Release/libdrivers.a(uart_irda_cir.o)
 .text.UARTPulseShapingControl
                0x00000000       0x20 ../../../../../..//binary/armv7a/gcc/am335x/drivers/Release/libdrivers.a(uart_irda_cir.o)
 .text.UARTIdleModeConfigure
                0x00000000       0x20 ../../../../../..//binary/armv7a/gcc/am335x/drivers/Release/libdrivers.a(uart_irda_cir.o)
 .text.UARTWakeUpControl
                0x00000000       0x20 ../../../../../..//binary/armv7a/gcc/am335x/drivers/Release/libdrivers.a(uart_irda_cir.o)
 .text.UARTAutoIdleModeControl
                0x00000000       0x20 ../../../../../..//binary/armv7a/gcc/am335x/drivers/Release/libdrivers.a(uart_irda_cir.o)
 .text.UARTFlowCtrlTrigLvlConfig
                0x00000000       0x18 ../../../../../..//binary/armv7a/gcc/am335x/drivers/Release/libdrivers.a(uart_irda_cir.o)
 .text.UARTXON1XOFF1ValProgram
                0x00000000        0xc ../../../../../..//binary/armv7a/gcc/am335x/drivers/Release/libdrivers.a(uart_irda_cir.o)
 .text.UARTXON2XOFF2ValProgram
                0x00000000        0xc ../../../../../..//binary/armv7a/gcc/am335x/drivers/Release/libdrivers.a(uart_irda_cir.o)
 .text.UARTXONAnyFeatureControl
                0x00000000       0x5c ../../../../../..//binary/armv7a/gcc/am335x/drivers/Release/libdrivers.a(uart_irda_cir.o)
 .text.UARTLoopbackModeControl
                0x00000000       0x20 ../../../../../..//binary/armv7a/gcc/am335x/drivers/Release/libdrivers.a(uart_irda_cir.o)
 .text.UARTModemControlSet
                0x00000000       0x14 ../../../../../..//binary/armv7a/gcc/am335x/drivers/Release/libdrivers.a(uart_irda_cir.o)
 .text.UARTModemControlClear
                0x00000000       0x14 ../../../../../..//binary/armv7a/gcc/am335x/drivers/Release/libdrivers.a(uart_irda_cir.o)
 .text.UARTModemStatusGet
                0x00000000        0xc ../../../../../..//binary/armv7a/gcc/am335x/drivers/Release/libdrivers.a(uart_irda_cir.o)
 .text.UARTModemStatusChangeCheck
                0x00000000        0xc ../../../../../..//binary/armv7a/gcc/am335x/drivers/Release/libdrivers.a(uart_irda_cir.o)
 .text.UARTResumeOperation
                0x00000000        0x8 ../../../../../..//binary/armv7a/gcc/am335x/drivers/Release/libdrivers.a(uart_irda_cir.o)
 .text.UARTWakeUpEventsEnable
                0x00000000       0x14 ../../../../../..//binary/armv7a/gcc/am335x/drivers/Release/libdrivers.a(uart_irda_cir.o)
 .text.UARTWakeUpEventsDisable
                0x00000000       0x14 ../../../../../..//binary/armv7a/gcc/am335x/drivers/Release/libdrivers.a(uart_irda_cir.o)
 .text.UARTFIFOTrigLvlGranControl
                0x00000000       0x30 ../../../../../..//binary/armv7a/gcc/am335x/drivers/Release/libdrivers.a(uart_irda_cir.o)
 .text.UARTDSRInterruptControl
                0x00000000       0x20 ../../../../../..//binary/armv7a/gcc/am335x/drivers/Release/libdrivers.a(uart_irda_cir.o)
 .text.UARTTxEmptyIntControl
                0x00000000       0x20 ../../../../../..//binary/armv7a/gcc/am335x/drivers/Release/libdrivers.a(uart_irda_cir.o)
 .text.UARTRXCTSDSRWakeUpConfigure
                0x00000000       0x20 ../../../../../..//binary/armv7a/gcc/am335x/drivers/Release/libdrivers.a(uart_irda_cir.o)
 .text.UARTRXCTSDSRTransitionStatusGet
                0x00000000        0xc ../../../../../..//binary/armv7a/gcc/am335x/drivers/Release/libdrivers.a(uart_irda_cir.o)
 .text.UARTDMACounterResetControl
                0x00000000       0x20 ../../../../../..//binary/armv7a/gcc/am335x/drivers/Release/libdrivers.a(uart_irda_cir.o)
 .text.UARTTxFIFOFullStatusGet
                0x00000000        0xc ../../../../../..//binary/armv7a/gcc/am335x/drivers/Release/libdrivers.a(uart_irda_cir.o)
 .text.UARTTxFIFOLevelGet
                0x00000000        0x8 ../../../../../..//binary/armv7a/gcc/am335x/drivers/Release/libdrivers.a(uart_irda_cir.o)
 .text.UARTRxFIFOLevelGet
                0x00000000        0x8 ../../../../../..//binary/armv7a/gcc/am335x/drivers/Release/libdrivers.a(uart_irda_cir.o)
 .text.UARTAutobaudParityGet
                0x00000000       0x1c ../../../../../..//binary/armv7a/gcc/am335x/drivers/Release/libdrivers.a(uart_irda_cir.o)
 .text.UARTAutobaudWordLenGet
                0x00000000       0x1c ../../../../../..//binary/armv7a/gcc/am335x/drivers/Release/libdrivers.a(uart_irda_cir.o)
 .text.UARTAutobaudSpeedGet
                0x00000000       0x1c ../../../../../..//binary/armv7a/gcc/am335x/drivers/Release/libdrivers.a(uart_irda_cir.o)
 .text.UARTScratchPadRegWrite
                0x00000000       0x20 ../../../../../..//binary/armv7a/gcc/am335x/drivers/Release/libdrivers.a(uart_irda_cir.o)
 .text.UARTScratchPadRegRead
                0x00000000        0xc ../../../../../..//binary/armv7a/gcc/am335x/drivers/Release/libdrivers.a(uart_irda_cir.o)
 .text.UARTModuleVersionNumberGet
                0x00000000        0xc ../../../../../..//binary/armv7a/gcc/am335x/drivers/Release/libdrivers.a(uart_irda_cir.o)
 .text.UARTTxDMAThresholdControl
                0x00000000       0x20 ../../../../../..//binary/armv7a/gcc/am335x/drivers/Release/libdrivers.a(uart_irda_cir.o)
 .text.UARTTxDMAThresholdValConfig
                0x00000000       0x20 ../../../../../..//binary/armv7a/gcc/am335x/drivers/Release/libdrivers.a(uart_irda_cir.o)

Memory Configuration

Name             Origin             Length             Attributes
DDR0             0x80000000         0x10000000
*default*        0x00000000         0xffffffff

Linker script and memory map

LOAD Release/hsi2cEeprom.o
LOAD ../../../../../..//binary/armv7a/gcc/am335x/drivers/Release/libdrivers.a
LOAD ../../../../../..//binary/armv7a/gcc/utils/Release/libutils.a
LOAD ../../../../../..//binary/armv7a/gcc/am335x/beaglebone/platform/Release/libplatform.a
LOAD ../../../../../..//binary/armv7a/gcc/am335x/system_config/Release/libsystem_config.a
LOAD /home/sungjae/gcc-arm-none-eabi-4_7-2012q4//arm-none-eabi/lib//libc.a
LOAD /home/sungjae/gcc-arm-none-eabi-4_7-2012q4//lib/gcc/arm-none-eabi/4.7.3//libgcc.a
LOAD ../../../../../..//binary/armv7a/gcc/am335x/drivers/Release/libdrivers.a
LOAD ../../../../../..//binary/armv7a/gcc/utils/Release/libutils.a
LOAD ../../../../../..//binary/armv7a/gcc/am335x/beaglebone/platform/Release/libplatform.a
LOAD ../../../../../..//binary/armv7a/gcc/am335x/system_config/Release/libsystem_config.a
LOAD /home/sungjae/gcc-arm-none-eabi-4_7-2012q4//arm-none-eabi/lib//libc.a
LOAD /home/sungjae/gcc-arm-none-eabi-4_7-2012q4//lib/gcc/arm-none-eabi/4.7.3//libgcc.a

.startcode      0x80000000       0xb4
                0x80000000                . = ALIGN (0x4)
 *init.o(.text)
 .text          0x80000000       0xb4 ../../../../../..//binary/armv7a/gcc/am335x/system_config/Release/libsystem_config.a(init.o)
                0x80000000                Entry

.text           0x800000b4     0x2338
                0x800000b4                . = ALIGN (0x4)
 *(.text*)
 .text.I2CIsr   0x800000b4      0x1b8 Release/hsi2cEeprom.o
                0x800000b4                I2CIsr
 .text.I2CAINTCConfigure
                0x8000026c       0x54 Release/hsi2cEeprom.o
                0x8000026c                I2CAINTCConfigure
 .text.CleanUpInterrupts
                0x800002c0       0x4c Release/hsi2cEeprom.o
                0x800002c0                CleanUpInterrupts
 .text.startup.main
                0x8000030c      0x2f0 Release/hsi2cEeprom.o
                0x8000030c                main
 .text.I2CMasterInitExpClk
                0x800005fc       0x50 ../../../../../..//binary/armv7a/gcc/am335x/drivers/Release/libdrivers.a(hsi2c.o)
                0x800005fc                I2CMasterInitExpClk
 .text.I2CMasterEnable
                0x8000064c       0x10 ../../../../../..//binary/armv7a/gcc/am335x/drivers/Release/libdrivers.a(hsi2c.o)
                0x8000064c                I2CMasterEnable
 .text.I2CMasterDisable
                0x8000065c       0x10 ../../../../../..//binary/armv7a/gcc/am335x/drivers/Release/libdrivers.a(hsi2c.o)
                0x8000065c                I2CMasterDisable
 .text.I2CMasterBusBusy
                0x8000066c        0xc ../../../../../..//binary/armv7a/gcc/am335x/drivers/Release/libdrivers.a(hsi2c.o)
                0x8000066c                I2CMasterBusBusy
 .text.I2CMasterControl
                0x80000678        0xc ../../../../../..//binary/armv7a/gcc/am335x/drivers/Release/libdrivers.a(hsi2c.o)
                0x80000678                I2CMasterControl
 .text.I2CMasterStart
                0x80000684       0x10 ../../../../../..//binary/armv7a/gcc/am335x/drivers/Release/libdrivers.a(hsi2c.o)
                0x80000684                I2CMasterStart
 .text.I2CMasterStop
                0x80000694       0x10 ../../../../../..//binary/armv7a/gcc/am335x/drivers/Release/libdrivers.a(hsi2c.o)
                0x80000694                I2CMasterStop
 .text.I2CMasterIntEnableEx
                0x800006a4       0x10 ../../../../../..//binary/armv7a/gcc/am335x/drivers/Release/libdrivers.a(hsi2c.o)
                0x800006a4                I2CMasterIntEnableEx
 .text.I2CMasterIntDisableEx
                0x800006b4        0x8 ../../../../../..//binary/armv7a/gcc/am335x/drivers/Release/libdrivers.a(hsi2c.o)
                0x800006b4                I2CMasterIntDisableEx
 .text.I2CMasterIntStatus
                0x800006bc        0x8 ../../../../../..//binary/armv7a/gcc/am335x/drivers/Release/libdrivers.a(hsi2c.o)
                0x800006bc                I2CMasterIntStatus
 .text.I2CMasterIntRawStatus
                0x800006c4        0x8 ../../../../../..//binary/armv7a/gcc/am335x/drivers/Release/libdrivers.a(hsi2c.o)
                0x800006c4                I2CMasterIntRawStatus
 .text.I2CMasterIntClearEx
                0x800006cc        0x8 ../../../../../..//binary/armv7a/gcc/am335x/drivers/Release/libdrivers.a(hsi2c.o)
                0x800006cc                I2CMasterIntClearEx
 .text.I2CMasterSlaveAddrSet
                0x800006d4        0x8 ../../../../../..//binary/armv7a/gcc/am335x/drivers/Release/libdrivers.a(hsi2c.o)
                0x800006d4                I2CMasterSlaveAddrSet
 .text.I2CSetDataCount
                0x800006dc        0x8 ../../../../../..//binary/armv7a/gcc/am335x/drivers/Release/libdrivers.a(hsi2c.o)
                0x800006dc                I2CSetDataCount
 .text.I2CDataCountGet
                0x800006e4        0x8 ../../../../../..//binary/armv7a/gcc/am335x/drivers/Release/libdrivers.a(hsi2c.o)
                0x800006e4                I2CDataCountGet
 .text.I2CAutoIdleDisable
                0x800006ec       0x10 ../../../../../..//binary/armv7a/gcc/am335x/drivers/Release/libdrivers.a(hsi2c.o)
                0x800006ec                I2CAutoIdleDisable
 .text.I2CMasterDataPut
                0x800006fc        0x8 ../../../../../..//binary/armv7a/gcc/am335x/drivers/Release/libdrivers.a(hsi2c.o)
                0x800006fc                I2CMasterDataPut
 .text.I2CMasterDataGet
                0x80000704        0xc ../../../../../..//binary/armv7a/gcc/am335x/drivers/Release/libdrivers.a(hsi2c.o)
                0x80000704                I2CMasterDataGet
 .text.ConsoleUtilsInit
                0x80000710       0x14 ../../../../../..//binary/armv7a/gcc/utils/Release/libutils.a(consoleUtils.o)
                0x80000710                ConsoleUtilsInit
 .text.ConsoleUtilsSetType
                0x80000724       0x38 ../../../../../..//binary/armv7a/gcc/utils/Release/libutils.a(consoleUtils.o)
                0x80000724                ConsoleUtilsSetType
 .text.ConsoleUtilsPrintf
                0x8000075c       0x64 ../../../../../..//binary/armv7a/gcc/utils/Release/libutils.a(consoleUtils.o)
                0x8000075c                ConsoleUtilsPrintf
 .text.UARTStdioInit
                0x800007c0       0x14 ../../../../../..//binary/armv7a/gcc/utils/Release/libutils.a(uartStdio.o)
                0x800007c0                UARTStdioInit
 .text.UARTPuts
                0x800007d4       0x78 ../../../../../..//binary/armv7a/gcc/utils/Release/libutils.a(uartStdio.o)
                0x800007d4                UARTPuts
 .text.UARTwrite
                0x8000084c       0x58 ../../../../../..//binary/armv7a/gcc/utils/Release/libutils.a(uartStdio.o)
                0x8000084c                UARTwrite
 .text.UARTPrintf
                0x800008a4      0x4bc ../../../../../..//binary/armv7a/gcc/utils/Release/libutils.a(uartStdio.o)
                0x800008a4                UARTPrintf
 .text.I2CPinMuxSetup
                0x80000d60       0x3c ../../../../../..//binary/armv7a/gcc/am335x/beaglebone/platform/Release/libplatform.a(hsi2c.o)
                0x80000d60                I2CPinMuxSetup
 .text.I2C0ModuleClkConfig
                0x80000d9c      0x25c ../../../../../..//binary/armv7a/gcc/am335x/beaglebone/platform/Release/libplatform.a(hsi2c.o)
                0x80000d9c                I2C0ModuleClkConfig
 .text.UARTConsoleInit
                0x80000ff8       0xf0 ../../../../../..//binary/armv7a/gcc/am335x/beaglebone/platform/Release/libplatform.a(uartConsole.o)
                0x80000ff8                UARTConsoleInit
 .text.UARTConsolePutc
                0x800010e8       0x20 ../../../../../..//binary/armv7a/gcc/am335x/beaglebone/platform/Release/libplatform.a(uartConsole.o)
                0x800010e8                UARTConsolePutc
 .text.UARTPinMuxSetup
                0x80001108       0x24 ../../../../../..//binary/armv7a/gcc/am335x/beaglebone/platform/Release/libplatform.a(uart.o)
                0x80001108                UARTPinMuxSetup
 .text.UART0ModuleClkConfig
                0x8000112c      0x25c ../../../../../..//binary/armv7a/gcc/am335x/beaglebone/platform/Release/libplatform.a(uart.o)
                0x8000112c                UART0ModuleClkConfig
 .text.IntDefaultHandler
                0x80001388        0x4 ../../../../../..//binary/armv7a/gcc/am335x/system_config/Release/libsystem_config.a(interrupt.o)
 .text.IntRegister
                0x8000138c       0x10 ../../../../../..//binary/armv7a/gcc/am335x/system_config/Release/libsystem_config.a(interrupt.o)
                0x8000138c                IntRegister
 .text.IntAINTCInit
                0x8000139c       0x54 ../../../../../..//binary/armv7a/gcc/am335x/system_config/Release/libsystem_config.a(interrupt.o)
                0x8000139c                IntAINTCInit
 .text.IntPrioritySet
                0x800013f0       0x24 ../../../../../..//binary/armv7a/gcc/am335x/system_config/Release/libsystem_config.a(interrupt.o)
                0x800013f0                IntPrioritySet
 .text.IntSystemEnable
                0x80001414       0x24 ../../../../../..//binary/armv7a/gcc/am335x/system_config/Release/libsystem_config.a(interrupt.o)
                0x80001414                IntSystemEnable
 .text.IntMasterIRQEnable
                0x80001438       0x14 ../../../../../..//binary/armv7a/gcc/am335x/system_config/Release/libsystem_config.a(interrupt.o)
                0x80001438                IntMasterIRQEnable
 .text.start_boot
                0x8000144c       0x60 ../../../../../..//binary/armv7a/gcc/am335x/system_config/Release/libsystem_config.a(startup.o)
                0x8000144c                start_boot
 .text          0x800014ac      0x488 ../../../../../..//binary/armv7a/gcc/am335x/system_config/Release/libsystem_config.a(cp15.o)
                0x800014ac                CP15ICacheDisable
                0x800014c8                CP15DCacheDisable
                0x800014e4                CP15ICacheEnable
                0x800014f4                CP15DCacheEnable
                0x80001504                CP15DCacheFlush
                0x80001598                CP15DCacheClean
                0x8000162c                CP15DCacheCleanFlush
                0x800016c0                CP15ICacheFlush
                0x800016d0                CP15DCacheCleanBuff
                0x80001724                CP15DCacheCleanFlushBuff
                0x80001778                CP15DCacheFlushBuff
                0x800017dc                CP15ICacheFlushBuff
                0x80001830                CP15Ttb0Set
                0x8000183c                CP15TlbInvalidate
                0x80001848                CP15MMUDisable
                0x80001860                CP15MMUEnable
                0x80001874                CP15VectorBaseAddrSet
                0x80001880                CP15BranchPredictorInvalidate
                0x8000188c                CP15BranchPredictionEnable
                0x8000189c                CP15BranchPredictionDisable
                0x800018ac                CP15DomainAccessClientSet
                0x800018bc                CP15ControlFeatureDisable
                0x800018d0                CP15ControlFeatureEnable
                0x800018e4                CP15TtbCtlTtb0Config
                0x800018f4                CP15AuxControlFeatureEnable
                0x80001908                CP15AuxControlFeatureDisable
                0x8000191c                CP15MainIdPrimPartNumGet
 .text.CPUirqe  0x80001934       0x14 ../../../../../..//binary/armv7a/gcc/am335x/system_config/Release/libsystem_config.a(cpu.o)
                0x80001934                CPUirqe
 .text          0x80001948       0xf0 ../../../../../..//binary/armv7a/gcc/am335x/system_config/Release/libsystem_config.a(exceptionhandler.o)
                0x80001948                SVC_Handler
                0x80001970                IRQHandler
                0x80001a1c                FIQHandler
                0x80001a20                UndefInstHandler
                0x80001a20                AbortHandler
 .text          0x80001a38      0x114 /home/sungjae/gcc-arm-none-eabi-4_7-2012q4//lib/gcc/arm-none-eabi/4.7.3//libgcc.a(_udivsi3.o)
                0x80001a38                __udivsi3
                0x80001a38                __aeabi_uidiv
                0x80001b2c                __aeabi_uidivmod
 .text          0x80001b4c      0x148 /home/sungjae/gcc-arm-none-eabi-4_7-2012q4//lib/gcc/arm-none-eabi/4.7.3//libgcc.a(_divsi3.o)
                0x80001b4c                __aeabi_idiv
                0x80001b4c                __divsi3
                0x80001c74                __aeabi_idivmod
 .text          0x80001c94        0x4 /home/sungjae/gcc-arm-none-eabi-4_7-2012q4//lib/gcc/arm-none-eabi/4.7.3//libgcc.a(_dvmd_tls.o)
                0x80001c94                __aeabi_ldiv0
                0x80001c94                __aeabi_idiv0
 .text.UARTOperatingModeSelect
                0x80001c98       0x2c ../../../../../..//binary/armv7a/gcc/am335x/drivers/Release/libdrivers.a(uart_irda_cir.o)
                0x80001c98                UARTOperatingModeSelect
 .text.UARTDivisorValCompute
                0x80001cc4       0x68 ../../../../../..//binary/armv7a/gcc/am335x/drivers/Release/libdrivers.a(uart_irda_cir.o)
                0x80001cc4                UARTDivisorValCompute
 .text.UARTDivisorLatchDisable
                0x80001d2c       0x10 ../../../../../..//binary/armv7a/gcc/am335x/drivers/Release/libdrivers.a(uart_irda_cir.o)
                0x80001d2c                UARTDivisorLatchDisable
 .text.UARTRegConfigModeEnable
                0x80001d3c       0x44 ../../../../../..//binary/armv7a/gcc/am335x/drivers/Release/libdrivers.a(uart_irda_cir.o)
                0x80001d3c                UARTRegConfigModeEnable
 .text.UARTDivisorLatchWrite
                0x80001d80      0x13c ../../../../../..//binary/armv7a/gcc/am335x/drivers/Release/libdrivers.a(uart_irda_cir.o)
                0x80001d80                UARTDivisorLatchWrite
 .text.UARTBreakCtl
                0x80001ebc       0x20 ../../../../../..//binary/armv7a/gcc/am335x/drivers/Release/libdrivers.a(uart_irda_cir.o)
                0x80001ebc                UARTBreakCtl
 .text.UARTLineCharacConfig
                0x80001edc       0x3c ../../../../../..//binary/armv7a/gcc/am335x/drivers/Release/libdrivers.a(uart_irda_cir.o)
                0x80001edc                UARTLineCharacConfig
 .text.UARTFIFORegisterWrite
                0x80001f18       0x88 ../../../../../..//binary/armv7a/gcc/am335x/drivers/Release/libdrivers.a(uart_irda_cir.o)
                0x80001f18                UARTFIFORegisterWrite
 .text.UARTSubConfigTCRTLRModeEn
                0x80001fa0       0x74 ../../../../../..//binary/armv7a/gcc/am335x/drivers/Release/libdrivers.a(uart_irda_cir.o)
                0x80001fa0                UARTSubConfigTCRTLRModeEn
 .text.UARTTCRTLRBitValRestore
                0x80002014       0x78 ../../../../../..//binary/armv7a/gcc/am335x/drivers/Release/libdrivers.a(uart_irda_cir.o)
                0x80002014                UARTTCRTLRBitValRestore
 .text.UARTFIFOConfig
                0x8000208c      0x224 ../../../../../..//binary/armv7a/gcc/am335x/drivers/Release/libdrivers.a(uart_irda_cir.o)
                0x8000208c                UARTFIFOConfig
 .text.UARTCharPut
                0x800022b0       0x30 ../../../../../..//binary/armv7a/gcc/am335x/drivers/Release/libdrivers.a(uart_irda_cir.o)
                0x800022b0                UARTCharPut
 .text.UARTModuleReset
                0x800022e0       0x20 ../../../../../..//binary/armv7a/gcc/am335x/drivers/Release/libdrivers.a(uart_irda_cir.o)
                0x800022e0                UARTModuleReset
 *(.rodata*)
 .rodata.str1.4
                0x80002300        0x3 Release/hsi2cEeprom.o
                                  0x4 (size before relaxing)
 *fill*         0x80002303        0x1 00
 .rodata.str1.4
                0x80002304       0x50 ../../../../../..//binary/armv7a/gcc/utils/Release/libutils.a(consoleUtils.o)
 .rodata.str1.4
                0x80002354       0x60 ../../../../../..//binary/armv7a/gcc/utils/Release/libutils.a(uartStdio.o)
 .rodata.vecTbl
                0x800023b4       0x38 ../../../../../..//binary/armv7a/gcc/am335x/system_config/Release/libsystem_config.a(startup.o)

.glue_7         0x800023ec        0x0
 .glue_7        0x00000000        0x0 linker stubs

.glue_7t        0x800023ec        0x0
 .glue_7t       0x00000000        0x0 linker stubs

.vfp11_veneer   0x800023ec        0x0
 .vfp11_veneer  0x00000000        0x0 linker stubs

.v4_bx          0x800023ec        0x0
 .v4_bx         0x00000000        0x0 linker stubs

.iplt           0x800023ec        0x0
 .iplt          0x00000000        0x0 Release/hsi2cEeprom.o

.rel.dyn        0x800023ec        0x0
 .rel.iplt      0x00000000        0x0 Release/hsi2cEeprom.o

.data           0x800023ec        0x4
                0x800023ec                . = ALIGN (0x4)
 *(.data*)
 .data.flag     0x800023ec        0x4 Release/hsi2cEeprom.o
                0x800023ec                flag

.igot.plt       0x800023f0        0x0
 .igot.plt      0x00000000        0x0 Release/hsi2cEeprom.o

.bss            0x800023f0      0x248
                0x800023f0                . = ALIGN (0x4)
                0x800023f0                _bss_start = .
 *(.bss*)
 .bss.ConsoleType
                0x800023f0        0x1 ../../../../../..//binary/armv7a/gcc/utils/Release/libutils.a(consoleUtils.o)
 *(COMMON)
 *fill*         0x800023f1        0x3 00
 COMMON         0x800023f4       0x42 Release/hsi2cEeprom.o
                0x800023f4                dataToSlave
                0x800023f8                rCount
                0x800023fc                numOfBytes
                0x80002400                tCount
                0x80002404                dataFromSlave
 *fill*         0x80002436        0x2 00
 COMMON         0x80002438      0x200 ../../../../../..//binary/armv7a/gcc/am335x/system_config/Release/libsystem_config.a(interrupt.o)
                0x80002438                fnRAMVectors
                0x80002638                _bss_end = .

.heap           0x80002638      0x800
                0x80002638                . = ALIGN (0x4)
                0x80002638                __end__ = .
                0x80002638                end = __end__
                0x80002638                __HeapBase = __end__
 *(.heap*)
                0x80002e38                . = (. + 0x800)
 *fill*         0x80002638      0x800 00
                0x80002e38                __HeapLimit = .

.stack          0x80002e38  0x7fffff8
                0x80002e38                . = ALIGN (0x4)
                0x80002e38                __StackLimit = .
 *(.stack*)
                0x88002e30                . = (. + 0x7fffff8)
 *fill*         0x80002e38  0x7fffff8 00
                0x88002e30                __StackTop = .
                0x88002e30                _stack = __StackTop
OUTPUT(Release/hsi2cEeprom.out elf32-littlearm)

.debug_info     0x00000000     0x4e83
 .debug_info    0x00000000      0x4c2 Release/hsi2cEeprom.o
 .debug_info    0x000004c2      0xa41 ../../../../../..//binary/armv7a/gcc/am335x/drivers/Release/libdrivers.a(hsi2c.o)
 .debug_info    0x00000f03      0x384 ../../../../../..//binary/armv7a/gcc/utils/Release/libutils.a(consoleUtils.o)
 .debug_info    0x00001287      0xfce ../../../../../..//binary/armv7a/gcc/utils/Release/libutils.a(uartStdio.o)
 .debug_info    0x00002255       0x90 ../../../../../..//binary/armv7a/gcc/am335x/beaglebone/platform/Release/libplatform.a(hsi2c.o)
 .debug_info    0x000022e5      0x270 ../../../../../..//binary/armv7a/gcc/am335x/beaglebone/platform/Release/libplatform.a(uartConsole.o)
 .debug_info    0x00002555       0x7b ../../../../../..//binary/armv7a/gcc/am335x/beaglebone/platform/Release/libplatform.a(uart.o)
 .debug_info    0x000025d0       0xa3 ../../../../../..//binary/armv7a/gcc/am335x/system_config/Release/libsystem_config.a(init.o)
 .debug_info    0x00002673      0x4e5 ../../../../../..//binary/armv7a/gcc/am335x/system_config/Release/libsystem_config.a(interrupt.o)
 .debug_info    0x00002b58      0x116 ../../../../../..//binary/armv7a/gcc/am335x/system_config/Release/libsystem_config.a(startup.o)
 .debug_info    0x00002c6e       0xa3 ../../../../../..//binary/armv7a/gcc/am335x/system_config/Release/libsystem_config.a(cp15.o)
 .debug_info    0x00002d11       0xef ../../../../../..//binary/armv7a/gcc/am335x/system_config/Release/libsystem_config.a(cpu.o)
 .debug_info    0x00002e00       0xb6 ../../../../../..//binary/armv7a/gcc/am335x/system_config/Release/libsystem_config.a(exceptionhandler.o)
 .debug_info    0x00002eb6     0x1fcd ../../../../../..//binary/armv7a/gcc/am335x/drivers/Release/libdrivers.a(uart_irda_cir.o)

.debug_abbrev   0x00000000     0x1010
 .debug_abbrev  0x00000000      0x1b3 Release/hsi2cEeprom.o
 .debug_abbrev  0x000001b3      0x177 ../../../../../..//binary/armv7a/gcc/am335x/drivers/Release/libdrivers.a(hsi2c.o)
 .debug_abbrev  0x0000032a      0x1ab ../../../../../..//binary/armv7a/gcc/utils/Release/libutils.a(consoleUtils.o)
 .debug_abbrev  0x000004d5      0x309 ../../../../../..//binary/armv7a/gcc/utils/Release/libutils.a(uartStdio.o)
 .debug_abbrev  0x000007de       0x62 ../../../../../..//binary/armv7a/gcc/am335x/beaglebone/platform/Release/libplatform.a(hsi2c.o)
 .debug_abbrev  0x00000840      0x10e ../../../../../..//binary/armv7a/gcc/am335x/beaglebone/platform/Release/libplatform.a(uartConsole.o)
 .debug_abbrev  0x0000094e       0x62 ../../../../../..//binary/armv7a/gcc/am335x/beaglebone/platform/Release/libplatform.a(uart.o)
 .debug_abbrev  0x000009b0       0x14 ../../../../../..//binary/armv7a/gcc/am335x/system_config/Release/libsystem_config.a(init.o)
 .debug_abbrev  0x000009c4      0x20b ../../../../../..//binary/armv7a/gcc/am335x/system_config/Release/libsystem_config.a(interrupt.o)
 .debug_abbrev  0x00000bcf       0xe8 ../../../../../..//binary/armv7a/gcc/am335x/system_config/Release/libsystem_config.a(startup.o)
 .debug_abbrev  0x00000cb7       0x14 ../../../../../..//binary/armv7a/gcc/am335x/system_config/Release/libsystem_config.a(cp15.o)
 .debug_abbrev  0x00000ccb       0x64 ../../../../../..//binary/armv7a/gcc/am335x/system_config/Release/libsystem_config.a(cpu.o)
 .debug_abbrev  0x00000d2f       0x14 ../../../../../..//binary/armv7a/gcc/am335x/system_config/Release/libsystem_config.a(exceptionhandler.o)
 .debug_abbrev  0x00000d43      0x2cd ../../../../../..//binary/armv7a/gcc/am335x/drivers/Release/libdrivers.a(uart_irda_cir.o)

.debug_loc      0x00000000     0x43ff
 .debug_loc     0x00000000      0x135 Release/hsi2cEeprom.o
 .debug_loc     0x00000135      0x58e ../../../../../..//binary/armv7a/gcc/am335x/drivers/Release/libdrivers.a(hsi2c.o)
 .debug_loc     0x000006c3      0x31b ../../../../../..//binary/armv7a/gcc/utils/Release/libutils.a(consoleUtils.o)
 .debug_loc     0x000009de     0x18d9 ../../../../../..//binary/armv7a/gcc/utils/Release/libutils.a(uartStdio.o)
 .debug_loc     0x000022b7       0xab ../../../../../..//binary/armv7a/gcc/am335x/beaglebone/platform/Release/libplatform.a(uartConsole.o)
 .debug_loc     0x00002362      0x248 ../../../../../..//binary/armv7a/gcc/am335x/system_config/Release/libsystem_config.a(interrupt.o)
 .debug_loc     0x000025aa       0x34 ../../../../../..//binary/armv7a/gcc/am335x/system_config/Release/libsystem_config.a(startup.o)
 .debug_loc     0x000025de     0x1e21 ../../../../../..//binary/armv7a/gcc/am335x/drivers/Release/libdrivers.a(uart_irda_cir.o)

.debug_aranges  0x00000000      0x768
 .debug_aranges
                0x00000000       0x38 Release/hsi2cEeprom.o
 .debug_aranges
                0x00000038      0x180 ../../../../../..//binary/armv7a/gcc/am335x/drivers/Release/libdrivers.a(hsi2c.o)
 .debug_aranges
                0x000001b8       0x58 ../../../../../..//binary/armv7a/gcc/utils/Release/libutils.a(consoleUtils.o)
 .debug_aranges
                0x00000210       0x80 ../../../../../..//binary/armv7a/gcc/utils/Release/libutils.a(uartStdio.o)
 .debug_aranges
                0x00000290       0x30 ../../../../../..//binary/armv7a/gcc/am335x/beaglebone/platform/Release/libplatform.a(hsi2c.o)
 .debug_aranges
                0x000002c0       0x30 ../../../../../..//binary/armv7a/gcc/am335x/beaglebone/platform/Release/libplatform.a(uartConsole.o)
 .debug_aranges
                0x000002f0       0x28 ../../../../../..//binary/armv7a/gcc/am335x/beaglebone/platform/Release/libplatform.a(uart.o)
 .debug_aranges
                0x00000318       0x20 ../../../../../..//binary/armv7a/gcc/am335x/system_config/Release/libsystem_config.a(init.o)
 .debug_aranges
                0x00000338      0x110 ../../../../../..//binary/armv7a/gcc/am335x/system_config/Release/libsystem_config.a(interrupt.o)
 .debug_aranges
                0x00000448       0x20 ../../../../../..//binary/armv7a/gcc/am335x/system_config/Release/libsystem_config.a(startup.o)
 .debug_aranges
                0x00000468       0x20 ../../../../../..//binary/armv7a/gcc/am335x/system_config/Release/libsystem_config.a(cp15.o)
 .debug_aranges
                0x00000488       0x58 ../../../../../..//binary/armv7a/gcc/am335x/system_config/Release/libsystem_config.a(cpu.o)
 .debug_aranges
                0x000004e0       0x20 ../../../../../..//binary/armv7a/gcc/am335x/system_config/Release/libsystem_config.a(exceptionhandler.o)
 .debug_aranges
                0x00000500      0x268 ../../../../../..//binary/armv7a/gcc/am335x/drivers/Release/libdrivers.a(uart_irda_cir.o)

.debug_ranges   0x00000000      0xda8
 .debug_ranges  0x00000000       0xd8 Release/hsi2cEeprom.o
 .debug_ranges  0x000000d8      0x170 ../../../../../..//binary/armv7a/gcc/am335x/drivers/Release/libdrivers.a(hsi2c.o)
 .debug_ranges  0x00000248       0x48 ../../../../../..//binary/armv7a/gcc/utils/Release/libutils.a(consoleUtils.o)
 .debug_ranges  0x00000290      0x330 ../../../../../..//binary/armv7a/gcc/utils/Release/libutils.a(uartStdio.o)
 .debug_ranges  0x000005c0       0x20 ../../../../../..//binary/armv7a/gcc/am335x/beaglebone/platform/Release/libplatform.a(hsi2c.o)
 .debug_ranges  0x000005e0       0x60 ../../../../../..//binary/armv7a/gcc/am335x/beaglebone/platform/Release/libplatform.a(uartConsole.o)
 .debug_ranges  0x00000640       0x18 ../../../../../..//binary/armv7a/gcc/am335x/beaglebone/platform/Release/libplatform.a(uart.o)
 .debug_ranges  0x00000658      0x130 ../../../../../..//binary/armv7a/gcc/am335x/system_config/Release/libsystem_config.a(interrupt.o)
 .debug_ranges  0x00000788       0x10 ../../../../../..//binary/armv7a/gcc/am335x/system_config/Release/libsystem_config.a(startup.o)
 .debug_ranges  0x00000798       0x48 ../../../../../..//binary/armv7a/gcc/am335x/system_config/Release/libsystem_config.a(cpu.o)
 .debug_ranges  0x000007e0      0x5c8 ../../../../../..//binary/armv7a/gcc/am335x/drivers/Release/libdrivers.a(uart_irda_cir.o)

.debug_line     0x00000000     0x22de
 .debug_line    0x00000000      0x167 Release/hsi2cEeprom.o
 .debug_line    0x00000167      0x3d8 ../../../../../..//binary/armv7a/gcc/am335x/drivers/Release/libdrivers.a(hsi2c.o)
 .debug_line    0x0000053f      0x1a9 ../../../../../..//binary/armv7a/gcc/utils/Release/libutils.a(consoleUtils.o)
 .debug_line    0x000006e8      0x856 ../../../../../..//binary/armv7a/gcc/utils/Release/libutils.a(uartStdio.o)
 .debug_line    0x00000f3e      0x171 ../../../../../..//binary/armv7a/gcc/am335x/beaglebone/platform/Release/libplatform.a(hsi2c.o)
 .debug_line    0x000010af       0xb2 ../../../../../..//binary/armv7a/gcc/am335x/beaglebone/platform/Release/libplatform.a(uartConsole.o)
 .debug_line    0x00001161      0x114 ../../../../../..//binary/armv7a/gcc/am335x/beaglebone/platform/Release/libplatform.a(uart.o)
 .debug_line    0x00001275       0x93 ../../../../../..//binary/armv7a/gcc/am335x/system_config/Release/libsystem_config.a(init.o)
 .debug_line    0x00001308      0x2ae ../../../../../..//binary/armv7a/gcc/am335x/system_config/Release/libsystem_config.a(interrupt.o)
 .debug_line    0x000015b6       0x76 ../../../../../..//binary/armv7a/gcc/am335x/system_config/Release/libsystem_config.a(startup.o)
 .debug_line    0x0000162c      0x18a ../../../../../..//binary/armv7a/gcc/am335x/system_config/Release/libsystem_config.a(cp15.o)
 .debug_line    0x000017b6       0xd6 ../../../../../..//binary/armv7a/gcc/am335x/system_config/Release/libsystem_config.a(cpu.o)
 .debug_line    0x0000188c       0xb9 ../../../../../..//binary/armv7a/gcc/am335x/system_config/Release/libsystem_config.a(exceptionhandler.o)
 .debug_line    0x00001945      0x999 ../../../../../..//binary/armv7a/gcc/am335x/drivers/Release/libdrivers.a(uart_irda_cir.o)

.debug_str      0x00000000     0x1808
 .debug_str     0x00000000      0x1de Release/hsi2cEeprom.o
                                0x1f2 (size before relaxing)
 .debug_str     0x000001de      0x47c ../../../../../..//binary/armv7a/gcc/am335x/drivers/Release/libdrivers.a(hsi2c.o)
                                0x4ff (size before relaxing)
 .debug_str     0x0000065a      0x1a3 ../../../../../..//binary/armv7a/gcc/utils/Release/libutils.a(consoleUtils.o)
                                0x283 (size before relaxing)
 .debug_str     0x000007fd      0x1a3 ../../../../../..//binary/armv7a/gcc/utils/Release/libutils.a(uartStdio.o)
                                0x2a0 (size before relaxing)
 .debug_str     0x000009a0       0xc0 ../../../../../..//binary/armv7a/gcc/am335x/beaglebone/platform/Release/libplatform.a(hsi2c.o)
                                0x12d (size before relaxing)
 .debug_str     0x00000a60       0xd4 ../../../../../..//binary/armv7a/gcc/am335x/beaglebone/platform/Release/libplatform.a(uartConsole.o)
                                0x197 (size before relaxing)
 .debug_str     0x00000b34       0x5f ../../../../../..//binary/armv7a/gcc/am335x/beaglebone/platform/Release/libplatform.a(uart.o)
                                0x11d (size before relaxing)
 .debug_str     0x00000b93      0x2f0 ../../../../../..//binary/armv7a/gcc/am335x/system_config/Release/libsystem_config.a(interrupt.o)
                                0x379 (size before relaxing)
 .debug_str     0x00000e83       0x70 ../../../../../..//binary/armv7a/gcc/am335x/system_config/Release/libsystem_config.a(startup.o)
                                0x12e (size before relaxing)
 .debug_str     0x00000ef3       0x9f ../../../../../..//binary/armv7a/gcc/am335x/system_config/Release/libsystem_config.a(cpu.o)
                                0x140 (size before relaxing)
 .debug_str     0x00000f92      0x876 ../../../../../..//binary/armv7a/gcc/am335x/drivers/Release/libdrivers.a(uart_irda_cir.o)
                                0x963 (size before relaxing)

.comment        0x00000000       0x70
 .comment       0x00000000       0x70 Release/hsi2cEeprom.o
                                 0x71 (size before relaxing)
 .comment       0x00000000       0x71 ../../../../../..//binary/armv7a/gcc/am335x/drivers/Release/libdrivers.a(hsi2c.o)
 .comment       0x00000000       0x71 ../../../../../..//binary/armv7a/gcc/utils/Release/libutils.a(consoleUtils.o)
 .comment       0x00000000       0x71 ../../../../../..//binary/armv7a/gcc/utils/Release/libutils.a(uartStdio.o)
 .comment       0x00000000       0x71 ../../../../../..//binary/armv7a/gcc/am335x/beaglebone/platform/Release/libplatform.a(hsi2c.o)
 .comment       0x00000000       0x71 ../../../../../..//binary/armv7a/gcc/am335x/beaglebone/platform/Release/libplatform.a(uartConsole.o)
 .comment       0x00000000       0x71 ../../../../../..//binary/armv7a/gcc/am335x/beaglebone/platform/Release/libplatform.a(uart.o)
 .comment       0x00000000       0x71 ../../../../../..//binary/armv7a/gcc/am335x/system_config/Release/libsystem_config.a(interrupt.o)
 .comment       0x00000000       0x71 ../../../../../..//binary/armv7a/gcc/am335x/system_config/Release/libsystem_config.a(startup.o)
 .comment       0x00000000       0x71 ../../../../../..//binary/armv7a/gcc/am335x/system_config/Release/libsystem_config.a(cpu.o)
 .comment       0x00000000       0x71 ../../../../../..//binary/armv7a/gcc/am335x/drivers/Release/libdrivers.a(uart_irda_cir.o)

.ARM.attributes
                0x00000000       0x3b
 .ARM.attributes
                0x00000000       0x37 Release/hsi2cEeprom.o
 .ARM.attributes
                0x00000037       0x37 ../../../../../..//binary/armv7a/gcc/am335x/drivers/Release/libdrivers.a(hsi2c.o)
 .ARM.attributes
                0x0000006e       0x37 ../../../../../..//binary/armv7a/gcc/utils/Release/libutils.a(consoleUtils.o)
 .ARM.attributes
                0x000000a5       0x37 ../../../../../..//binary/armv7a/gcc/utils/Release/libutils.a(uartStdio.o)
 .ARM.attributes
                0x000000dc       0x37 ../../../../../..//binary/armv7a/gcc/am335x/beaglebone/platform/Release/libplatform.a(hsi2c.o)
 .ARM.attributes
                0x00000113       0x37 ../../../../../..//binary/armv7a/gcc/am335x/beaglebone/platform/Release/libplatform.a(uartConsole.o)
 .ARM.attributes
                0x0000014a       0x37 ../../../../../..//binary/armv7a/gcc/am335x/beaglebone/platform/Release/libplatform.a(uart.o)
 .ARM.attributes
                0x00000181       0x23 ../../../../../..//binary/armv7a/gcc/am335x/system_config/Release/libsystem_config.a(init.o)
 .ARM.attributes
                0x000001a4       0x3d ../../../../../..//binary/armv7a/gcc/am335x/system_config/Release/libsystem_config.a(interrupt.o)
 .ARM.attributes
                0x000001e1       0x3d ../../../../../..//binary/armv7a/gcc/am335x/system_config/Release/libsystem_config.a(startup.o)
 .ARM.attributes
                0x0000021e       0x23 ../../../../../..//binary/armv7a/gcc/am335x/system_config/Release/libsystem_config.a(cp15.o)
 .ARM.attributes
                0x00000241       0x3d ../../../../../..//binary/armv7a/gcc/am335x/system_config/Release/libsystem_config.a(cpu.o)
 .ARM.attributes
                0x0000027e       0x23 ../../../../../..//binary/armv7a/gcc/am335x/system_config/Release/libsystem_config.a(exceptionhandler.o)
 .ARM.attributes
                0x000002a1       0x18 /home/sungjae/gcc-arm-none-eabi-4_7-2012q4//lib/gcc/arm-none-eabi/4.7.3//libgcc.a(_udivsi3.o)
 .ARM.attributes
                0x000002b9       0x18 /home/sungjae/gcc-arm-none-eabi-4_7-2012q4//lib/gcc/arm-none-eabi/4.7.3//libgcc.a(_divsi3.o)
 .ARM.attributes
                0x000002d1       0x18 /home/sungjae/gcc-arm-none-eabi-4_7-2012q4//lib/gcc/arm-none-eabi/4.7.3//libgcc.a(_dvmd_tls.o)
 .ARM.attributes
                0x000002e9       0x37 ../../../../../..//binary/armv7a/gcc/am335x/drivers/Release/libdrivers.a(uart_irda_cir.o)

.debug_frame    0x00000000      0xf64
 .debug_frame   0x00000000       0x88 Release/hsi2cEeprom.o
 .debug_frame   0x00000088      0x2f0 ../../../../../..//binary/armv7a/gcc/am335x/drivers/Release/libdrivers.a(hsi2c.o)
 .debug_frame   0x00000378       0xec ../../../../../..//binary/armv7a/gcc/utils/Release/libutils.a(consoleUtils.o)
 .debug_frame   0x00000464      0x1cc ../../../../../..//binary/armv7a/gcc/utils/Release/libutils.a(uartStdio.o)
 .debug_frame   0x00000630       0x40 ../../../../../..//binary/armv7a/gcc/am335x/beaglebone/platform/Release/libplatform.a(hsi2c.o)
 .debug_frame   0x00000670       0x58 ../../../../../..//binary/armv7a/gcc/am335x/beaglebone/platform/Release/libplatform.a(uartConsole.o)
 .debug_frame   0x000006c8       0x30 ../../../../../..//binary/armv7a/gcc/am335x/beaglebone/platform/Release/libplatform.a(uart.o)
 .debug_frame   0x000006f8      0x238 ../../../../../..//binary/armv7a/gcc/am335x/system_config/Release/libsystem_config.a(interrupt.o)
 .debug_frame   0x00000930       0x28 ../../../../../..//binary/armv7a/gcc/am335x/system_config/Release/libsystem_config.a(startup.o)
 .debug_frame   0x00000958       0x90 ../../../../../..//binary/armv7a/gcc/am335x/system_config/Release/libsystem_config.a(cpu.o)
 .debug_frame   0x000009e8       0x20 /home/sungjae/gcc-arm-none-eabi-4_7-2012q4//lib/gcc/arm-none-eabi/4.7.3//libgcc.a(_udivsi3.o)
 .debug_frame   0x00000a08       0x20 /home/sungjae/gcc-arm-none-eabi-4_7-2012q4//lib/gcc/arm-none-eabi/4.7.3//libgcc.a(_divsi3.o)
 .debug_frame   0x00000a28      0x53c ../../../../../..//binary/armv7a/gcc/am335x/drivers/Release/libdrivers.a(uart_irda_cir.o)
