Archive member included because of file (symbol)

../../../../../..//binary/armv7a/gcc/am335x/drivers/Debug/libdrivers.a(cpsw.o)
                              Debug/demoEnet.o (CPSWSSReset)
../../../../../..//binary/armv7a/gcc/am335x/drivers/Debug/libdrivers.a(dmtimer.o)
                              Debug/demoTimer.o (DMTimerEnable)
../../../../../..//binary/armv7a/gcc/am335x/drivers/Debug/libdrivers.a(edma.o)
                              Debug/demoSdRw.o (EDMA3Init)
../../../../../..//binary/armv7a/gcc/am335x/drivers/Debug/libdrivers.a(gpio_v2.o)
                              Debug/demoLedIf.o (GPIOModuleReset)
../../../../../..//binary/armv7a/gcc/am335x/drivers/Debug/libdrivers.a(gpmc.o)
                              Debug/demoPwrMgmnt.o (GPMCIdleModeSelect)
../../../../../..//binary/armv7a/gcc/am335x/drivers/Debug/libdrivers.a(hs_mmcsd.o)
                              Debug/demoPwrMgmnt.o (HSMMCSDSystemConfig)
../../../../../..//binary/armv7a/gcc/am335x/drivers/Debug/libdrivers.a(hsi2c.o)
                              Debug/demoI2c.o (I2CMasterInitExpClk)
../../../../../..//binary/armv7a/gcc/am335x/drivers/Debug/libdrivers.a(mailbox.o)
                              Debug/cm3wkup_proxy.o (MBresetMailbox)
../../../../../..//binary/armv7a/gcc/am335x/drivers/Debug/libdrivers.a(mdio.o)
                              Debug/lwiplib.o (MDIOPhyAliveStatusGet)
../../../../../..//binary/armv7a/gcc/am335x/drivers/Debug/libdrivers.a(phy.o)
                              Debug/lwiplib.o (PhyReset)
../../../../../..//binary/armv7a/gcc/am335x/drivers/Debug/libdrivers.a(rtc.o)
                              Debug/demoRtc.o (RTCRun)
../../../../../..//binary/armv7a/gcc/am335x/drivers/Debug/libdrivers.a(uart_irda_cir.o)
                              Debug/demoUart.o (UARTIntEnable)
../../../../../..//binary/armv7a/gcc/utils/Debug/libutils.a(ascii.o)
                              Debug/demoRtc.o (TimeToStr)
../../../../../..//binary/armv7a/gcc/utils/Debug/libutils.a(board.o)
                              Debug/demoMain.o (BoardVersionGet)
../../../../../..//binary/armv7a/gcc/utils/Debug/libutils.a(cmdline.o)
                              Debug/demoSdFs.o (CmdLineProcess)
../../../../../..//binary/armv7a/gcc/utils/Debug/libutils.a(consoleUtils.o)
                              Debug/demoMain.o (ConsoleUtilsInit)
../../../../../..//binary/armv7a/gcc/utils/Debug/libutils.a(delay.o)
                              Debug/demoMain.o (DelayTimerSetup)
../../../../../..//binary/armv7a/gcc/utils/Debug/libutils.a(uartStdio.o)
                              ../../../../../..//binary/armv7a/gcc/utils/Debug/libutils.a(consoleUtils.o) (UARTStdioInit)
../../../../../..//binary/armv7a/gcc/am335x/beaglebone/platform/Debug/libplatform.a(board.o)
                              ../../../../../..//binary/armv7a/gcc/utils/Debug/libutils.a(board.o) (BoardInfoCheck)
../../../../../..//binary/armv7a/gcc/am335x/beaglebone/platform/Debug/libplatform.a(cpsw.o)
                              Debug/demoEnet.o (EVMPortMIIModeSelect)
../../../../../..//binary/armv7a/gcc/am335x/beaglebone/platform/Debug/libplatform.a(ctlregcontext.o)
                              Debug/demoPwrMgmnt.o (ControlRegContextSave)
../../../../../..//binary/armv7a/gcc/am335x/beaglebone/platform/Debug/libplatform.a(dmtimer.o)
                              Debug/demoMain.o (DMTimer2ModuleClkConfig)
../../../../../..//binary/armv7a/gcc/am335x/beaglebone/platform/Debug/libplatform.a(edma.o)
                              ../../../../../..//binary/armv7a/gcc/am335x/drivers/Debug/libdrivers.a(edma.o) (EDMAVersionGet)
../../../../../..//binary/armv7a/gcc/am335x/beaglebone/platform/Debug/libplatform.a(eeprom.o)
                              ../../../../../..//binary/armv7a/gcc/utils/Debug/libutils.a(board.o) (BoardInfoRead)
../../../../../..//binary/armv7a/gcc/am335x/beaglebone/platform/Debug/libplatform.a(gpio.o)
                              Debug/demoMain.o (GPIO1Pin23PinMuxSetup)
../../../../../..//binary/armv7a/gcc/am335x/beaglebone/platform/Debug/libplatform.a(hs_mmcsd.o)
                              Debug/demoPwrMgmnt.o (HSMMCSDModuleClkConfig)
../../../../../..//binary/armv7a/gcc/am335x/beaglebone/platform/Debug/libplatform.a(hsi2c.o)
                              ../../../../../..//binary/armv7a/gcc/am335x/beaglebone/platform/Debug/libplatform.a(eeprom.o) (I2C0ModuleClkConfig)
../../../../../..//binary/armv7a/gcc/am335x/beaglebone/platform/Debug/libplatform.a(rtc.o)
                              ../../../../../..//binary/armv7a/gcc/am335x/drivers/Debug/libdrivers.a(rtc.o) (RtcVersionGet)
../../../../../..//binary/armv7a/gcc/am335x/beaglebone/platform/Debug/libplatform.a(sysdelay.o)
                              ../../../../../..//binary/armv7a/gcc/utils/Debug/libutils.a(delay.o) (SysDelayTimerSetup)
../../../../../..//binary/armv7a/gcc/am335x/beaglebone/platform/Debug/libplatform.a(uartConsole.o)
                              ../../../../../..//binary/armv7a/gcc/utils/Debug/libutils.a(uartStdio.o) (UARTConsoleInit)
../../../../../..//binary/armv7a/gcc/am335x/beaglebone/platform/Debug/libplatform.a(uart.o)
                              ../../../../../..//binary/armv7a/gcc/am335x/beaglebone/platform/Debug/libplatform.a(uartConsole.o) (UARTPinMuxSetup)
../../../../../..//binary/armv7a/gcc/mmcsdlib/Debug/libmmcsd.a(hs_mmcsdlib.o)
                              Debug/demoSdFs.o (HSMMCSDCardPresent)
../../../../../..//binary/armv7a/gcc/mmcsdlib/Debug/libmmcsd.a(mmcsd_proto.o)
                              Debug/fat_mmcsd.o (MMCSDBusWidthSet)
../../../../../..//binary/armv7a/gcc/am335x/system_config/Debug/libsystem_config.a(cache.o)
                              Debug/slpWkup_gcc.o (CacheDisable)
../../../../../..//binary/armv7a/gcc/am335x/system_config/Debug/libsystem_config.a(clock.o)
                              Debug/cm3wkup_proxy.o (enableModuleClock)
../../../../../..//binary/armv7a/gcc/am335x/system_config/Debug/libsystem_config.a(cp15.o)
                              ../../../../../..//binary/armv7a/gcc/am335x/system_config/Debug/libsystem_config.a(cache.o) (CP15ICacheDisable)
../../../../../..//binary/armv7a/gcc/am335x/system_config/Debug/libsystem_config.a(device.o)
                              Debug/demoMain.o (DeviceVersionGet)
../../../../../..//binary/armv7a/gcc/am335x/system_config/Debug/libsystem_config.a(init.o)
                              (Entry)
../../../../../..//binary/armv7a/gcc/am335x/system_config/Debug/libsystem_config.a(interrupt.o)
                              Debug/cm3wkup_proxy.o (IntRegister)
../../../../../..//binary/armv7a/gcc/am335x/system_config/Debug/libsystem_config.a(mmu.o)
                              Debug/demoMain.o (MMUInit)
../../../../../..//binary/armv7a/gcc/am335x/system_config/Debug/libsystem_config.a(startup.o)
                              ../../../../../..//binary/armv7a/gcc/am335x/system_config/Debug/libsystem_config.a(init.o) (start_boot)
../../../../../..//binary/armv7a/gcc/am335x/system_config/Debug/libsystem_config.a(cpu.o)
                              ../../../../../..//binary/armv7a/gcc/am335x/system_config/Debug/libsystem_config.a(interrupt.o) (CPUIntStatus)
../../../../../..//binary/armv7a/gcc/am335x/system_config/Debug/libsystem_config.a(exceptionhandler.o)
                              ../../../../../..//binary/armv7a/gcc/am335x/system_config/Debug/libsystem_config.a(startup.o) (IRQHandler)
/home/sungjae/gcc-arm-none-eabi-4_7-2012q4//arm-none-eabi/lib//libc.a(lib_a-memcmp.o)
                              Debug/ff.o (memcmp)
/home/sungjae/gcc-arm-none-eabi-4_7-2012q4//arm-none-eabi/lib//libc.a(lib_a-memcpy.o)
                              Debug/cm3wkup_proxy.o (memcpy)
/home/sungjae/gcc-arm-none-eabi-4_7-2012q4//arm-none-eabi/lib//libc.a(lib_a-memset.o)
                              Debug/ff.o (memset)
/home/sungjae/gcc-arm-none-eabi-4_7-2012q4//arm-none-eabi/lib//libc.a(lib_a-strcat.o)
                              Debug/demoSdFs.o (strcat)
/home/sungjae/gcc-arm-none-eabi-4_7-2012q4//arm-none-eabi/lib//libc.a(lib_a-strchr.o)
                              Debug/httpd_io.o (strchr)
/home/sungjae/gcc-arm-none-eabi-4_7-2012q4//arm-none-eabi/lib//libc.a(lib_a-strcmp.o)
                              Debug/demoEnet.o (strcmp)
/home/sungjae/gcc-arm-none-eabi-4_7-2012q4//arm-none-eabi/lib//libc.a(lib_a-strcpy.o)
                              Debug/demoSdFs.o (strcpy)
/home/sungjae/gcc-arm-none-eabi-4_7-2012q4//arm-none-eabi/lib//libc.a(lib_a-strlen.o)
                              Debug/demoSdFs.o (strlen)
/home/sungjae/gcc-arm-none-eabi-4_7-2012q4//arm-none-eabi/lib//libc.a(lib_a-strncmp.o)
                              Debug/httpd_io.o (strncmp)
/home/sungjae/gcc-arm-none-eabi-4_7-2012q4//arm-none-eabi/lib//libc.a(lib_a-strncpy.o)
                              Debug/demoSdFs.o (strncpy)
/home/sungjae/gcc-arm-none-eabi-4_7-2012q4//lib/gcc/arm-none-eabi/4.7.3//libgcc.a(_udivsi3.o)
                              (__aeabi_uidiv)
/home/sungjae/gcc-arm-none-eabi-4_7-2012q4//lib/gcc/arm-none-eabi/4.7.3//libgcc.a(_divsi3.o)
                              (__aeabi_idiv)
/home/sungjae/gcc-arm-none-eabi-4_7-2012q4//lib/gcc/arm-none-eabi/4.7.3//libgcc.a(_dvmd_tls.o)
                              /home/sungjae/gcc-arm-none-eabi-4_7-2012q4//lib/gcc/arm-none-eabi/4.7.3//libgcc.a(_udivsi3.o) (__aeabi_idiv0)

Allocating common symbols
Common symbol       size              file

current_iphdr_src   0x4               Debug/lwiplib.o
netif_list          0x4               Debug/lwiplib.o
dataToSlave         0x9               Debug/demoI2c.o
cpdma_tx_bd         0x14              Debug/lwiplib.o
sdCard              0x48              Debug/demoSdRw.o
cpswportif          0x10              Debug/lwiplib.o
mpuVdd1             0x4               Debug/demoDvfs.o
rxch                0x10              Debug/lwiplib.o
tcp_active_pcbs     0x4               Debug/lwiplib.o
udp_pcbs            0x4               Debug/lwiplib.o
current_netif       0x4               Debug/lwiplib.o
tcp_ticks           0x4               Debug/lwiplib.o
tcp_listen_pcbs     0x4               Debug/lwiplib.o
memp_memory_RAW_PCB_base
                    0x70              Debug/lwiplib.o
memp_memory_TCP_SEG_base
                    0x100             Debug/lwiplib.o
current_iphdr_dest  0x4               Debug/lwiplib.o
rCount              0xc               Debug/demoI2c.o
memp_memory_PBUF_POOL_base
                    0x4ec00           Debug/lwiplib.o
ctrlContext         0x6a0             Debug/demoPwrMgmnt.o
boardName           0x8               ../../../../../..//binary/armv7a/gcc/utils/Debug/libutils.a(board.o)
free_head           0x4               Debug/lwiplib.o
tcp_tmp_pcb         0x4               Debug/lwiplib.o
pmStdbySrcIOPin     0x4c              Debug/demoPwrMgmnt.o
tcp_input_pcb       0x4               Debug/lwiplib.o
numOfBytes          0xc               Debug/demoI2c.o
mpuFreq             0x4               Debug/demoDvfs.o
ctrlInfo            0x50              Debug/demoSdRw.o
current_header      0x4               Debug/lwiplib.o
edmaContext         0x4140            Debug/demoPwrMgmnt.o
dhcp_rx_options_given
                    0xa               Debug/lwiplib.o
memp_memory_PBUF_base
                    0x600             Debug/lwiplib.o
tcp_bound_pcbs      0x4               Debug/lwiplib.o
memp_memory_TCP_PCB_LISTEN_base
                    0x100             Debug/lwiplib.o
boardData           0x4               ../../../../../..//binary/armv7a/gcc/utils/Debug/libutils.a(board.o)
dmtimerContext      0x50              Debug/demoPwrMgmnt.o
txch                0x10              Debug/lwiplib.o
fs_memory           0xf0              Debug/httpd_io.o
cpswinst            0x5c              Debug/lwiplib.o
memp_memory_UDP_PCB_base
                    0x80              Debug/lwiplib.o
i2cContext          0x10              Debug/demoPwrMgmnt.o
tCount              0xc               Debug/demoI2c.o
cpdma_rx_bd         0x14              Debug/lwiplib.o
gpioContext         0xc               Debug/demoPwrMgmnt.o
mdioContext         0x4               Debug/demoEnet.o
tcp_tw_pcbs         0x4               Debug/lwiplib.o
cpswContext         0xb080            Debug/demoEnet.o
fnRAMVectors        0x200             ../../../../../..//binary/armv7a/gcc/am335x/system_config/Debug/libsystem_config.a(interrupt.o)
lwip_stats          0x110             Debug/lwiplib.o
ipAddr              0x4               Debug/demoEnet.o
netif_default       0x4               Debug/lwiplib.o
regionId            0x4               ../../../../../..//binary/armv7a/gcc/am335x/drivers/Debug/libdrivers.a(edma.o)
dhcp_rx_options_val
                    0x28              Debug/lwiplib.o
memp_memory_TCP_PCB_base
                    0x1480            Debug/lwiplib.o
dataFromSlave       0x6               Debug/demoI2c.o
boardVersion        0x5               ../../../../../..//binary/armv7a/gcc/utils/Debug/libutils.a(board.o)
ram_heap            0x2001c           Debug/lwiplib.o
mmcsdContext        0x18              Debug/demoPwrMgmnt.o
fat_devices         0x18              Debug/fat_mmcsd.o
mpuOpp              0x4               Debug/demoDvfs.o
cpswport            0x10              Debug/lwiplib.o

Discarded input sections

 .text          0x00000000        0x0 Debug/am335x_clock_data.o
 .data          0x00000000        0x0 Debug/am335x_clock_data.o
 .bss           0x00000000        0x0 Debug/am335x_clock_data.o
 .data.clk24MhzGclkClock
                0x00000000       0x58 Debug/am335x_clock_data.o
 .data.dpllDisp
                0x00000000       0x80 Debug/am335x_clock_data.o
 .data.clkRC32KClock
                0x00000000       0x58 Debug/am335x_clock_data.o
 .data.tclkinClock
                0x00000000       0x58 Debug/am335x_clock_data.o
 .data.clkout1Clock
                0x00000000       0x58 Debug/am335x_clock_data.o
 .data.dpllDispClock
                0x00000000       0x58 Debug/am335x_clock_data.o
 .data.timer2ClkMux
                0x00000000       0x18 Debug/am335x_clock_data.o
 .data.timer3ClkMux
                0x00000000       0x18 Debug/am335x_clock_data.o
 .data.timer4ClkMux
                0x00000000       0x18 Debug/am335x_clock_data.o
 .data.timer7ClkMux
                0x00000000       0x18 Debug/am335x_clock_data.o
 .data.dpllDispM2ClkDivider
                0x00000000       0x3c Debug/am335x_clock_data.o
 .data.clkDispPllM2Clock
                0x00000000       0x58 Debug/am335x_clock_data.o
 .data.wdt1ClkMux
                0x00000000       0x18 Debug/am335x_clock_data.o
 .data.cpswCptsRftClkMux
                0x00000000       0x18 Debug/am335x_clock_data.o
 .data.lcdClkMux
                0x00000000       0x18 Debug/am335x_clock_data.o
 .data.emifFwClock
                0x00000000       0x58 Debug/am335x_clock_data.o
 .data.clk24MhzClkDomain
                0x00000000      0x154 Debug/am335x_clock_data.o
 .data.clkdiv32KIclkCLock
                0x00000000       0x58 Debug/am335x_clock_data.o
 .data.clockDomainList
                0x00000000       0x30 Debug/am335x_clock_data.o
 .text          0x00000000        0x0 Debug/cm3wkup_proxy.o
 .data          0x00000000        0x0 Debug/cm3wkup_proxy.o
 .bss           0x00000000        0x0 Debug/cm3wkup_proxy.o
 .text.readCM3Trace
                0x00000000       0x24 Debug/cm3wkup_proxy.o
 .text          0x00000000        0x0 Debug/demoDvfs.o
 .data          0x00000000        0x0 Debug/demoDvfs.o
 .bss           0x00000000        0x0 Debug/demoDvfs.o
 .text          0x00000000        0x0 Debug/demoEnet.o
 .data          0x00000000        0x0 Debug/demoEnet.o
 .bss           0x00000000        0x0 Debug/demoEnet.o
 .text.EnetErrStatsticsGet
                0x00000000       0x84 Debug/demoEnet.o
 .text          0x00000000        0x0 Debug/demoGpio.o
 .data          0x00000000        0x0 Debug/demoGpio.o
 .bss           0x00000000        0x0 Debug/demoGpio.o
 .text          0x00000000        0x0 Debug/demoI2c.o
 .data          0x00000000        0x0 Debug/demoI2c.o
 .bss           0x00000000        0x0 Debug/demoI2c.o
 .text          0x00000000        0x0 Debug/demoLedIf.o
 .data          0x00000000        0x0 Debug/demoLedIf.o
 .bss           0x00000000        0x0 Debug/demoLedIf.o
 .text          0x00000000        0x0 Debug/demoMain.o
 .data          0x00000000        0x0 Debug/demoMain.o
 .bss           0x00000000        0x0 Debug/demoMain.o
 .text          0x00000000        0x0 Debug/demoPwrMgmnt.o
 .data          0x00000000        0x0 Debug/demoPwrMgmnt.o
 .bss           0x00000000        0x0 Debug/demoPwrMgmnt.o
 .text          0x00000000        0x0 Debug/demoRtc.o
 .data          0x00000000        0x0 Debug/demoRtc.o
 .bss           0x00000000        0x0 Debug/demoRtc.o
 .text          0x00000000        0x0 Debug/demoSdFs.o
 .data          0x00000000        0x0 Debug/demoSdFs.o
 .bss           0x00000000        0x0 Debug/demoSdFs.o
 .text          0x00000000        0x0 Debug/demoSdRw.o
 .data          0x00000000        0x0 Debug/demoSdRw.o
 .bss           0x00000000        0x0 Debug/demoSdRw.o
 .data.sdBlkSize
                0x00000000        0x4 Debug/demoSdRw.o
 .bss.data      0x00000000      0x200 Debug/demoSdRw.o
 .text          0x00000000        0x0 Debug/demoTimer.o
 .data          0x00000000        0x0 Debug/demoTimer.o
 .bss           0x00000000        0x0 Debug/demoTimer.o
 .text          0x00000000        0x0 Debug/demoUart.o
 .data          0x00000000        0x0 Debug/demoUart.o
 .bss           0x00000000        0x0 Debug/demoUart.o
 .text          0x00000000        0x0 Debug/fat_mmcsd.o
 .data          0x00000000        0x0 Debug/fat_mmcsd.o
 .bss           0x00000000        0x0 Debug/fat_mmcsd.o
 .text          0x00000000        0x0 Debug/ff.o
 .data          0x00000000        0x0 Debug/ff.o
 .bss           0x00000000        0x0 Debug/ff.o
 .text.f_write  0x00000000      0x4fc Debug/ff.o
 .text.f_lseek  0x00000000      0x3c8 Debug/ff.o
 .text.f_stat   0x00000000       0xc8 Debug/ff.o
 .text.f_unlink
                0x00000000      0x2c0 Debug/ff.o
 .text.f_mkdir  0x00000000      0x4d8 Debug/ff.o
 .text.f_chmod  0x00000000      0x120 Debug/ff.o
 .text.f_rename
                0x00000000      0x23c Debug/ff.o
 .text          0x00000000        0x0 Debug/httpd_io.o
 .data          0x00000000        0x0 Debug/httpd_io.o
 .bss           0x00000000        0x0 Debug/httpd_io.o
 .text.fs_read  0x00000000       0xc0 Debug/httpd_io.o
 .text          0x00000000        0x0 Debug/lwiplib.o
 .data          0x00000000        0x0 Debug/lwiplib.o
 .bss           0x00000000        0x0 Debug/lwiplib.o
 .text.dhcp_coarse_tmr
                0x00000000       0xd4 Debug/lwiplib.o
 .text.dhcp_fine_tmr
                0x00000000       0xbc Debug/lwiplib.o
 .text.dhcp_timeout
                0x00000000      0x170 Debug/lwiplib.o
 .text.dhcp_t1_timeout
                0x00000000       0x64 Debug/lwiplib.o
 .text.dhcp_t2_timeout
                0x00000000       0x64 Debug/lwiplib.o
 .text.dhcp_set_struct
                0x00000000       0x40 Debug/lwiplib.o
 .text.dhcp_cleanup
                0x00000000       0x4c Debug/lwiplib.o
 .text.dhcp_inform
                0x00000000      0x1f8 Debug/lwiplib.o
 .text.dhcp_network_changed
                0x00000000       0xd0 Debug/lwiplib.o
 .text.dhcp_renew
                0x00000000      0x1b4 Debug/lwiplib.o
 .text.dhcp_rebind
                0x00000000      0x1b0 Debug/lwiplib.o
 .text.dhcp_reboot
                0x00000000      0x1f0 Debug/lwiplib.o
 .text.dhcp_release
                0x00000000      0x234 Debug/lwiplib.o
 .text.mem_calloc
                0x00000000       0x74 Debug/lwiplib.o
 .text.netif_remove
                0x00000000      0x110 Debug/lwiplib.o
 .text.netif_find
                0x00000000       0xc8 Debug/lwiplib.o
 .text.netif_set_link_up
                0x00000000       0xa8 Debug/lwiplib.o
 .text.netif_set_link_down
                0x00000000       0x48 Debug/lwiplib.o
 .text.pbuf_dechain
                0x00000000       0xa8 Debug/lwiplib.o
 .text.pbuf_take
                0x00000000      0x138 Debug/lwiplib.o
 .text.pbuf_coalesce
                0x00000000       0xa8 Debug/lwiplib.o
 .text.pbuf_get_at
                0x00000000       0xb8 Debug/lwiplib.o
 .text.pbuf_memcmp
                0x00000000      0x130 Debug/lwiplib.o
 .text.pbuf_memfind
                0x00000000       0xc8 Debug/lwiplib.o
 .text.pbuf_strstr
                0x00000000       0xac Debug/lwiplib.o
 .text.raw_bind
                0x00000000       0x50 Debug/lwiplib.o
 .text.raw_connect
                0x00000000       0x50 Debug/lwiplib.o
 .text.raw_recv
                0x00000000       0x3c Debug/lwiplib.o
 .text.raw_sendto
                0x00000000      0x1b8 Debug/lwiplib.o
 .text.raw_send
                0x00000000       0x44 Debug/lwiplib.o
 .text.raw_remove
                0x00000000       0xc4 Debug/lwiplib.o
 .text.raw_new  0x00000000       0x98 Debug/lwiplib.o
 .rodata.tcp_state_str
                0x00000000       0x2c Debug/lwiplib.o
 .rodata.tcp_backoff
                0x00000000       0x10 Debug/lwiplib.o
 .rodata.tcp_persist_backoff
                0x00000000        0x8 Debug/lwiplib.o
 .bss.tcp_timer
                0x00000000        0x1 Debug/lwiplib.o
 .text.tcp_tmr  0x00000000       0x5c Debug/lwiplib.o
 .text.tcp_shutdown
                0x00000000       0xec Debug/lwiplib.o
 .text.tcp_connect
                0x00000000      0x348 Debug/lwiplib.o
 .text.tcp_slowtmr
                0x00000000      0x764 Debug/lwiplib.o
 .text.tcp_fasttmr
                0x00000000      0x15c Debug/lwiplib.o
 .text.tcp_debug_state_str
                0x00000000       0x34 Debug/lwiplib.o
 .text.tcp_rexmit_rto
                0x00000000       0xbc Debug/lwiplib.o
 .text.tcp_keepalive
                0x00000000      0x11c Debug/lwiplib.o
 .text.tcp_zero_window_probe
                0x00000000      0x270 Debug/lwiplib.o
 .text.udp_send
                0x00000000       0x48 Debug/lwiplib.o
 .text.udp_sendto
                0x00000000       0x9c Debug/lwiplib.o
 .text.udp_disconnect
                0x00000000       0x4c Debug/lwiplib.o
 .text.inet_chksum_pseudo_partial
                0x00000000      0x264 Debug/lwiplib.o
 .text.ip4_addr_netmask_valid
                0x00000000       0xac Debug/lwiplib.o
 .text.ipaddr_addr
                0x00000000       0x4c Debug/lwiplib.o
 .text.ipaddr_aton
                0x00000000      0x3a4 Debug/lwiplib.o
 .text.ipaddr_ntoa
                0x00000000       0x3c Debug/lwiplib.o
 .text.ipaddr_ntoa_r
                0x00000000      0x20c Debug/lwiplib.o
 .text.etharp_find_addr
                0x00000000       0xc8 Debug/lwiplib.o
 .text.perf_init
                0x00000000       0x1c Debug/lwiplib.o
 .text.cpswif_phy_autoneg
                0x00000000      0x670 Debug/lwiplib.o
 .text.cpswif_phy_forced
                0x00000000      0x5c4 Debug/lwiplib.o
 .text.check_valid
                0x00000000       0x54 Debug/lwiplib.o
 .text.cpsw_switch_configuration
                0x00000000      0x214 Debug/lwiplib.o
 .bss.locatorData
                0x00000000       0x54 Debug/lwiplib.o
 .text.LocatorReceive
                0x00000000      0x1c8 Debug/lwiplib.o
 .text.LocatorConfig
                0x00000000      0x1f4 Debug/lwiplib.o
 .bss.str.7613  0x00000000       0x10 Debug/lwiplib.o
 .text          0x00000000        0x0 Debug/pmic.o
 .data          0x00000000        0x0 Debug/pmic.o
 .bss           0x00000000        0x0 Debug/pmic.o
 .text          0x00000000        0x0 Debug/slpWkup_gcc.o
 .data          0x00000000        0x0 Debug/slpWkup_gcc.o
 .bss           0x00000000        0x0 Debug/slpWkup_gcc.o
 .text          0x00000000        0x0 ../../../../../..//binary/armv7a/gcc/am335x/drivers/Debug/libdrivers.a(cpsw.o)
 .data          0x00000000        0x0 ../../../../../..//binary/armv7a/gcc/am335x/drivers/Debug/libdrivers.a(cpsw.o)
 .bss           0x00000000        0x0 ../../../../../..//binary/armv7a/gcc/am335x/drivers/Debug/libdrivers.a(cpsw.o)
 .text.CPSWSlGigModeForceEnable
                0x00000000       0x38 ../../../../../..//binary/armv7a/gcc/am335x/drivers/Debug/libdrivers.a(cpsw.o)
 .text.CPSWSlControlExtEnable
                0x00000000       0x38 ../../../../../..//binary/armv7a/gcc/am335x/drivers/Debug/libdrivers.a(cpsw.o)
 .text.CPSWSlGigModeForceDisable
                0x00000000       0x38 ../../../../../..//binary/armv7a/gcc/am335x/drivers/Debug/libdrivers.a(cpsw.o)
 .text.CPSWSlMACStatusGet
                0x00000000       0x38 ../../../../../..//binary/armv7a/gcc/am335x/drivers/Debug/libdrivers.a(cpsw.o)
 .text.CPSWSlRxMaxLenSet
                0x00000000       0x30 ../../../../../..//binary/armv7a/gcc/am335x/drivers/Debug/libdrivers.a(cpsw.o)
 .text.CPSWSlGMIIEnable
                0x00000000       0x38 ../../../../../..//binary/armv7a/gcc/am335x/drivers/Debug/libdrivers.a(cpsw.o)
 .text.CPSWWrCoreIntDisable
                0x00000000       0x7c ../../../../../..//binary/armv7a/gcc/am335x/drivers/Debug/libdrivers.a(cpsw.o)
 .text.CPSWWrCoreIntStatusGet
                0x00000000       0x5c ../../../../../..//binary/armv7a/gcc/am335x/drivers/Debug/libdrivers.a(cpsw.o)
 .text.CPSWWrRGMIIStatusGet
                0x00000000       0x38 ../../../../../..//binary/armv7a/gcc/am335x/drivers/Debug/libdrivers.a(cpsw.o)
 .text.CPSWALEAgeOut
                0x00000000       0x54 ../../../../../..//binary/armv7a/gcc/am335x/drivers/Debug/libdrivers.a(cpsw.o)
 .text.CPSWALEBroadcastRateLimitSet
                0x00000000       0x94 ../../../../../..//binary/armv7a/gcc/am335x/drivers/Debug/libdrivers.a(cpsw.o)
 .text.CPSWALEMulticastRateLimitSet
                0x00000000       0x94 ../../../../../..//binary/armv7a/gcc/am335x/drivers/Debug/libdrivers.a(cpsw.o)
 .text.CPSWALEVIDIngressCheckSet
                0x00000000       0x54 ../../../../../..//binary/armv7a/gcc/am335x/drivers/Debug/libdrivers.a(cpsw.o)
 .text.CPSWALEVLANAwareClear
                0x00000000       0x38 ../../../../../..//binary/armv7a/gcc/am335x/drivers/Debug/libdrivers.a(cpsw.o)
 .text.CPSWALERateLimitTXMode
                0x00000000       0x38 ../../../../../..//binary/armv7a/gcc/am335x/drivers/Debug/libdrivers.a(cpsw.o)
 .text.CPSWALERateLimitRXMode
                0x00000000       0x38 ../../../../../..//binary/armv7a/gcc/am335x/drivers/Debug/libdrivers.a(cpsw.o)
 .text.CPSWALERateLimitEnable
                0x00000000       0x38 ../../../../../..//binary/armv7a/gcc/am335x/drivers/Debug/libdrivers.a(cpsw.o)
 .text.CPSWALERateLimitDisable
                0x00000000       0x38 ../../../../../..//binary/armv7a/gcc/am335x/drivers/Debug/libdrivers.a(cpsw.o)
 .text.CPSWALEAUTHModeSet
                0x00000000       0x38 ../../../../../..//binary/armv7a/gcc/am335x/drivers/Debug/libdrivers.a(cpsw.o)
 .text.CPSWALEAUTHModeClear
                0x00000000       0x38 ../../../../../..//binary/armv7a/gcc/am335x/drivers/Debug/libdrivers.a(cpsw.o)
 .text.CPSWALEPrescaleGet
                0x00000000       0x34 ../../../../../..//binary/armv7a/gcc/am335x/drivers/Debug/libdrivers.a(cpsw.o)
 .text.CPSWALEPrescaleSet
                0x00000000       0x4c ../../../../../..//binary/armv7a/gcc/am335x/drivers/Debug/libdrivers.a(cpsw.o)
 .text.CPSWALEUnknownUntaggedEgressSet
                0x00000000       0x60 ../../../../../..//binary/armv7a/gcc/am335x/drivers/Debug/libdrivers.a(cpsw.o)
 .text.CPSWALEUnknownRegFloodMaskSet
                0x00000000       0x60 ../../../../../..//binary/armv7a/gcc/am335x/drivers/Debug/libdrivers.a(cpsw.o)
 .text.CPSWALEUnknownUnRegFloodMaskSet
                0x00000000       0x60 ../../../../../..//binary/armv7a/gcc/am335x/drivers/Debug/libdrivers.a(cpsw.o)
 .text.CPSWALEUnknownMemberListSet
                0x00000000       0x5c ../../../../../..//binary/armv7a/gcc/am335x/drivers/Debug/libdrivers.a(cpsw.o)
 .text.CPSWALEBypassEnable
                0x00000000       0x38 ../../../../../..//binary/armv7a/gcc/am335x/drivers/Debug/libdrivers.a(cpsw.o)
 .text.CPSWALEBypassDisable
                0x00000000       0x38 ../../../../../..//binary/armv7a/gcc/am335x/drivers/Debug/libdrivers.a(cpsw.o)
 .text.CPSWRxFlowControlEnable
                0x00000000       0x48 ../../../../../..//binary/armv7a/gcc/am335x/drivers/Debug/libdrivers.a(cpsw.o)
 .text.CPSWRxFlowControlDisable
                0x00000000       0x4c ../../../../../..//binary/armv7a/gcc/am335x/drivers/Debug/libdrivers.a(cpsw.o)
 .text.CPSWSoftwareIdleEnable
                0x00000000       0x38 ../../../../../..//binary/armv7a/gcc/am335x/drivers/Debug/libdrivers.a(cpsw.o)
 .text.CPSWSoftwareIdleDisable
                0x00000000       0x3c ../../../../../..//binary/armv7a/gcc/am335x/drivers/Debug/libdrivers.a(cpsw.o)
 .text.CPSWVLANAwareEnable
                0x00000000       0x38 ../../../../../..//binary/armv7a/gcc/am335x/drivers/Debug/libdrivers.a(cpsw.o)
 .text.CPSWVLANAwareDisable
                0x00000000       0x38 ../../../../../..//binary/armv7a/gcc/am335x/drivers/Debug/libdrivers.a(cpsw.o)
 .text.CPSWStatisticsGet
                0x00000000       0x34 ../../../../../..//binary/armv7a/gcc/am335x/drivers/Debug/libdrivers.a(cpsw.o)
 .text.CPSWCPDMATxIntDisable
                0x00000000       0x48 ../../../../../..//binary/armv7a/gcc/am335x/drivers/Debug/libdrivers.a(cpsw.o)
 .text.CPSWCPDMARxIntDisable
                0x00000000       0x48 ../../../../../..//binary/armv7a/gcc/am335x/drivers/Debug/libdrivers.a(cpsw.o)
 .text.CPSWCPDMANumFreeBufSet
                0x00000000       0x40 ../../../../../..//binary/armv7a/gcc/am335x/drivers/Debug/libdrivers.a(cpsw.o)
 .text.CPSWCPDMAStatusGet
                0x00000000       0x44 ../../../../../..//binary/armv7a/gcc/am335x/drivers/Debug/libdrivers.a(cpsw.o)
 .text.CPSWCPDMAConfig
                0x00000000       0x30 ../../../../../..//binary/armv7a/gcc/am335x/drivers/Debug/libdrivers.a(cpsw.o)
 .text.CPSWCPDMARxBufOffsetSet
                0x00000000       0x30 ../../../../../..//binary/armv7a/gcc/am335x/drivers/Debug/libdrivers.a(cpsw.o)
 .text.CPSWCPDMATxIntStatRawGet
                0x00000000       0x38 ../../../../../..//binary/armv7a/gcc/am335x/drivers/Debug/libdrivers.a(cpsw.o)
 .text.CPSWCPDMATxIntStatMaskedGet
                0x00000000       0x38 ../../../../../..//binary/armv7a/gcc/am335x/drivers/Debug/libdrivers.a(cpsw.o)
 .text.CPSWCPDMARxIntStatRawGet
                0x00000000       0x44 ../../../../../..//binary/armv7a/gcc/am335x/drivers/Debug/libdrivers.a(cpsw.o)
 .text.CPSWCPDMARxIntStatMaskedGet
                0x00000000       0x44 ../../../../../..//binary/armv7a/gcc/am335x/drivers/Debug/libdrivers.a(cpsw.o)
 .text          0x00000000        0x0 ../../../../../..//binary/armv7a/gcc/am335x/drivers/Debug/libdrivers.a(dmtimer.o)
 .data          0x00000000        0x0 ../../../../../..//binary/armv7a/gcc/am335x/drivers/Debug/libdrivers.a(dmtimer.o)
 .bss           0x00000000        0x0 ../../../../../..//binary/armv7a/gcc/am335x/drivers/Debug/libdrivers.a(dmtimer.o)
 .text.DMTimerPreScalerClkEnable
                0x00000000       0xcc ../../../../../..//binary/armv7a/gcc/am335x/drivers/Debug/libdrivers.a(dmtimer.o)
 .text.DMTimerPreScalerClkDisable
                0x00000000       0x6c ../../../../../..//binary/armv7a/gcc/am335x/drivers/Debug/libdrivers.a(dmtimer.o)
 .text.DMTimerCounterGet
                0x00000000       0x60 ../../../../../..//binary/armv7a/gcc/am335x/drivers/Debug/libdrivers.a(dmtimer.o)
 .text.DMTimerReloadGet
                0x00000000       0x2c ../../../../../..//binary/armv7a/gcc/am335x/drivers/Debug/libdrivers.a(dmtimer.o)
 .text.DMTimerGPOConfigure
                0x00000000       0xcc ../../../../../..//binary/armv7a/gcc/am335x/drivers/Debug/libdrivers.a(dmtimer.o)
 .text.DMTimerCompareSet
                0x00000000       0x64 ../../../../../..//binary/armv7a/gcc/am335x/drivers/Debug/libdrivers.a(dmtimer.o)
 .text.DMTimerCompareGet
                0x00000000       0x2c ../../../../../..//binary/armv7a/gcc/am335x/drivers/Debug/libdrivers.a(dmtimer.o)
 .text.DMTimerIntRawStatusSet
                0x00000000       0x34 ../../../../../..//binary/armv7a/gcc/am335x/drivers/Debug/libdrivers.a(dmtimer.o)
 .text.DMTimerIntRawStatusGet
                0x00000000       0x2c ../../../../../..//binary/armv7a/gcc/am335x/drivers/Debug/libdrivers.a(dmtimer.o)
 .text.DMTimerIntStatusGet
                0x00000000       0x2c ../../../../../..//binary/armv7a/gcc/am335x/drivers/Debug/libdrivers.a(dmtimer.o)
 .text.DMTimerTriggerSet
                0x00000000       0x60 ../../../../../..//binary/armv7a/gcc/am335x/drivers/Debug/libdrivers.a(dmtimer.o)
 .text.DMTimerIntEnableGet
                0x00000000       0x2c ../../../../../..//binary/armv7a/gcc/am335x/drivers/Debug/libdrivers.a(dmtimer.o)
 .text.DMTimerResetConfigure
                0x00000000       0x60 ../../../../../..//binary/armv7a/gcc/am335x/drivers/Debug/libdrivers.a(dmtimer.o)
 .text.DMTimerReset
                0x00000000       0x54 ../../../../../..//binary/armv7a/gcc/am335x/drivers/Debug/libdrivers.a(dmtimer.o)
 .text.DMTimerPostedModeConfig
                0x00000000       0x60 ../../../../../..//binary/armv7a/gcc/am335x/drivers/Debug/libdrivers.a(dmtimer.o)
 .text          0x00000000        0x0 ../../../../../..//binary/armv7a/gcc/am335x/drivers/Debug/libdrivers.a(edma.o)
 .data          0x00000000        0x0 ../../../../../..//binary/armv7a/gcc/am335x/drivers/Debug/libdrivers.a(edma.o)
 .bss           0x00000000        0x0 ../../../../../..//binary/armv7a/gcc/am335x/drivers/Debug/libdrivers.a(edma.o)
 .text.EDMA3PeripheralIdGet
                0x00000000       0x28 ../../../../../..//binary/armv7a/gcc/am335x/drivers/Debug/libdrivers.a(edma.o)
 .text.EDMA3DisableChInShadowReg
                0x00000000      0x158 ../../../../../..//binary/armv7a/gcc/am335x/drivers/Debug/libdrivers.a(edma.o)
 .text.EDMA3ChannelToParamMap
                0x00000000       0x44 ../../../../../..//binary/armv7a/gcc/am335x/drivers/Debug/libdrivers.a(edma.o)
 .text.EDMA3UnmapChToEvtQ
                0x00000000       0xc4 ../../../../../..//binary/armv7a/gcc/am335x/drivers/Debug/libdrivers.a(edma.o)
 .text.EDMA3MapQdmaChToPaRAM
                0x00000000      0x160 ../../../../../..//binary/armv7a/gcc/am335x/drivers/Debug/libdrivers.a(edma.o)
 .text.EDMA3SetQdmaTrigWord
                0x00000000       0x64 ../../../../../..//binary/armv7a/gcc/am335x/drivers/Debug/libdrivers.a(edma.o)
 .text.EDMA3QdmaClrMissEvt
                0x00000000       0x78 ../../../../../..//binary/armv7a/gcc/am335x/drivers/Debug/libdrivers.a(edma.o)
 .text.EDMA3ClrCCErr
                0x00000000       0x30 ../../../../../..//binary/armv7a/gcc/am335x/drivers/Debug/libdrivers.a(edma.o)
 .text.EDMA3GetCCErrStatus
                0x00000000       0x3c ../../../../../..//binary/armv7a/gcc/am335x/drivers/Debug/libdrivers.a(edma.o)
 .text.EDMA3GetIntrStatus
                0x00000000       0x54 ../../../../../..//binary/armv7a/gcc/am335x/drivers/Debug/libdrivers.a(edma.o)
 .text.EDMA3IntrStatusHighGet
                0x00000000       0x54 ../../../../../..//binary/armv7a/gcc/am335x/drivers/Debug/libdrivers.a(edma.o)
 .text.EDMA3GetErrIntrStatus
                0x00000000       0x3c ../../../../../..//binary/armv7a/gcc/am335x/drivers/Debug/libdrivers.a(edma.o)
 .text.EDMA3ErrIntrHighStatusGet
                0x00000000       0x3c ../../../../../..//binary/armv7a/gcc/am335x/drivers/Debug/libdrivers.a(edma.o)
 .text.EDMA3QdmaGetErrIntrStatus
                0x00000000       0x3c ../../../../../..//binary/armv7a/gcc/am335x/drivers/Debug/libdrivers.a(edma.o)
 .text.EDMA3DisableEvtIntr
                0x00000000       0xec ../../../../../..//binary/armv7a/gcc/am335x/drivers/Debug/libdrivers.a(edma.o)
 .text.EDMA3ClrIntr
                0x00000000       0x94 ../../../../../..//binary/armv7a/gcc/am335x/drivers/Debug/libdrivers.a(edma.o)
 .text.EDMA3QdmaGetPaRAM
                0x00000000       0x9c ../../../../../..//binary/armv7a/gcc/am335x/drivers/Debug/libdrivers.a(edma.o)
 .text.EDMA3QdmaSetPaRAM
                0x00000000       0x9c ../../../../../..//binary/armv7a/gcc/am335x/drivers/Debug/libdrivers.a(edma.o)
 .text.EDMA3QdmaSetPaRAMEntry
                0x00000000       0x68 ../../../../../..//binary/armv7a/gcc/am335x/drivers/Debug/libdrivers.a(edma.o)
 .text.EDMA3QdmaGetPaRAMEntry
                0x00000000       0x74 ../../../../../..//binary/armv7a/gcc/am335x/drivers/Debug/libdrivers.a(edma.o)
 .text.EDMA3FreeChannel
                0x00000000       0xf4 ../../../../../..//binary/armv7a/gcc/am335x/drivers/Debug/libdrivers.a(edma.o)
 .text.EDMA3ClearErrorBits
                0x00000000      0x214 ../../../../../..//binary/armv7a/gcc/am335x/drivers/Debug/libdrivers.a(edma.o)
 .text.EDMA3CCErrorEvaluate
                0x00000000       0x2c ../../../../../..//binary/armv7a/gcc/am335x/drivers/Debug/libdrivers.a(edma.o)
 .text.EDMA3Deinit
                0x00000000      0x17c ../../../../../..//binary/armv7a/gcc/am335x/drivers/Debug/libdrivers.a(edma.o)
 .text          0x00000000        0x0 ../../../../../..//binary/armv7a/gcc/am335x/drivers/Debug/libdrivers.a(gpio_v2.o)
 .data          0x00000000        0x0 ../../../../../..//binary/armv7a/gcc/am335x/drivers/Debug/libdrivers.a(gpio_v2.o)
 .bss           0x00000000        0x0 ../../../../../..//binary/armv7a/gcc/am335x/drivers/Debug/libdrivers.a(gpio_v2.o)
 .text.GPIOModuleDisable
                0x00000000       0x38 ../../../../../..//binary/armv7a/gcc/am335x/drivers/Debug/libdrivers.a(gpio_v2.o)
 .text.GPIODirModeGet
                0x00000000       0x5c ../../../../../..//binary/armv7a/gcc/am335x/drivers/Debug/libdrivers.a(gpio_v2.o)
 .text.GPIOPinRead
                0x00000000       0x40 ../../../../../..//binary/armv7a/gcc/am335x/drivers/Debug/libdrivers.a(gpio_v2.o)
 .text.GPIOMultiplePinsWrite
                0x00000000       0x44 ../../../../../..//binary/armv7a/gcc/am335x/drivers/Debug/libdrivers.a(gpio_v2.o)
 .text.GPIOMultiplePinsRead
                0x00000000       0x38 ../../../../../..//binary/armv7a/gcc/am335x/drivers/Debug/libdrivers.a(gpio_v2.o)
 .text.GPIOIntTypeGet
                0x00000000      0x120 ../../../../../..//binary/armv7a/gcc/am335x/drivers/Debug/libdrivers.a(gpio_v2.o)
 .text.GPIOPinIntStatus
                0x00000000       0x84 ../../../../../..//binary/armv7a/gcc/am335x/drivers/Debug/libdrivers.a(gpio_v2.o)
 .text.GPIORawIntStatus
                0x00000000       0x74 ../../../../../..//binary/armv7a/gcc/am335x/drivers/Debug/libdrivers.a(gpio_v2.o)
 .text.GPIOTriggerPinInt
                0x00000000       0x64 ../../../../../..//binary/armv7a/gcc/am335x/drivers/Debug/libdrivers.a(gpio_v2.o)
 .text.GPIOAutoIdleModeControl
                0x00000000       0x60 ../../../../../..//binary/armv7a/gcc/am335x/drivers/Debug/libdrivers.a(gpio_v2.o)
 .text.GPIOIdleModeConfigure
                0x00000000       0x60 ../../../../../..//binary/armv7a/gcc/am335x/drivers/Debug/libdrivers.a(gpio_v2.o)
 .text.GPIOGatingRatioConfigure
                0x00000000       0x60 ../../../../../..//binary/armv7a/gcc/am335x/drivers/Debug/libdrivers.a(gpio_v2.o)
 .text.GPIORevisionInfoGet
                0x00000000       0x28 ../../../../../..//binary/armv7a/gcc/am335x/drivers/Debug/libdrivers.a(gpio_v2.o)
 .text          0x00000000        0x0 ../../../../../..//binary/armv7a/gcc/am335x/drivers/Debug/libdrivers.a(gpmc.o)
 .data          0x00000000        0x0 ../../../../../..//binary/armv7a/gcc/am335x/drivers/Debug/libdrivers.a(gpmc.o)
 .bss           0x00000000        0x0 ../../../../../..//binary/armv7a/gcc/am335x/drivers/Debug/libdrivers.a(gpmc.o)
 .text.GPMCRevisionGet
                0x00000000       0x34 ../../../../../..//binary/armv7a/gcc/am335x/drivers/Debug/libdrivers.a(gpmc.o)
 .text.GPMCAutoIdleConfig
                0x00000000       0x50 ../../../../../..//binary/armv7a/gcc/am335x/drivers/Debug/libdrivers.a(gpmc.o)
 .text.GPMCModuleSoftReset
                0x00000000       0x2c ../../../../../..//binary/armv7a/gcc/am335x/drivers/Debug/libdrivers.a(gpmc.o)
 .text.GPMCModuleResetStatusGet
                0x00000000       0x38 ../../../../../..//binary/armv7a/gcc/am335x/drivers/Debug/libdrivers.a(gpmc.o)
 .text.GPMCIntStatusGet
                0x00000000       0xbc ../../../../../..//binary/armv7a/gcc/am335x/drivers/Debug/libdrivers.a(gpmc.o)
 .text.GPMCIntStatusClear
                0x00000000       0xc0 ../../../../../..//binary/armv7a/gcc/am335x/drivers/Debug/libdrivers.a(gpmc.o)
 .text.GPMCIntEnable
                0x00000000       0xc0 ../../../../../..//binary/armv7a/gcc/am335x/drivers/Debug/libdrivers.a(gpmc.o)
 .text.GPMCIntDisable
                0x00000000       0xc0 ../../../../../..//binary/armv7a/gcc/am335x/drivers/Debug/libdrivers.a(gpmc.o)
 .text.GPMCTimeOutStartValSet
                0x00000000       0x74 ../../../../../..//binary/armv7a/gcc/am335x/drivers/Debug/libdrivers.a(gpmc.o)
 .text.GPMCTimeOutFeatureConfig
                0x00000000       0x74 ../../../../../..//binary/armv7a/gcc/am335x/drivers/Debug/libdrivers.a(gpmc.o)
 .text.GPMCErrAddrGet
                0x00000000       0x38 ../../../../../..//binary/armv7a/gcc/am335x/drivers/Debug/libdrivers.a(gpmc.o)
 .text.GPMCErrValStatusGet
                0x00000000       0x38 ../../../../../..//binary/armv7a/gcc/am335x/drivers/Debug/libdrivers.a(gpmc.o)
 .text.GPMCErrSysCmdGet
                0x00000000       0x3c ../../../../../..//binary/armv7a/gcc/am335x/drivers/Debug/libdrivers.a(gpmc.o)
 .text.GPMCErrStatusGet
                0x00000000       0xa4 ../../../../../..//binary/armv7a/gcc/am335x/drivers/Debug/libdrivers.a(gpmc.o)
 .text.GPMCWaitPinPolaritySelect
                0x00000000       0xe8 ../../../../../..//binary/armv7a/gcc/am335x/drivers/Debug/libdrivers.a(gpmc.o)
 .text.GPMCWriteProtectPinLevelCtrl
                0x00000000       0x74 ../../../../../..//binary/armv7a/gcc/am335x/drivers/Debug/libdrivers.a(gpmc.o)
 .text.GPMCLimitedAddrDevSupportConfig
                0x00000000       0x74 ../../../../../..//binary/armv7a/gcc/am335x/drivers/Debug/libdrivers.a(gpmc.o)
 .text.GPMCNANDForcePostedWriteFeatureConfig
                0x00000000       0x74 ../../../../../..//binary/armv7a/gcc/am335x/drivers/Debug/libdrivers.a(gpmc.o)
 .text.GPMCWaitPinStatusGet
                0x00000000       0x7c ../../../../../..//binary/armv7a/gcc/am335x/drivers/Debug/libdrivers.a(gpmc.o)
 .text.GPMCEmptyWriteBuffStatusGet
                0x00000000       0x38 ../../../../../..//binary/armv7a/gcc/am335x/drivers/Debug/libdrivers.a(gpmc.o)
 .text.GPMCFclkDividerSelect
                0x00000000       0xdc ../../../../../..//binary/armv7a/gcc/am335x/drivers/Debug/libdrivers.a(gpmc.o)
 .text.GPMCTimeParaGranularitySelect
                0x00000000       0xe0 ../../../../../..//binary/armv7a/gcc/am335x/drivers/Debug/libdrivers.a(gpmc.o)
 .text.GPMCAddrDataMuxProtocolSelect
                0x00000000       0xe0 ../../../../../..//binary/armv7a/gcc/am335x/drivers/Debug/libdrivers.a(gpmc.o)
 .text.GPMCDevTypeSelect
                0x00000000       0xe0 ../../../../../..//binary/armv7a/gcc/am335x/drivers/Debug/libdrivers.a(gpmc.o)
 .text.GPMCDevSizeSelect
                0x00000000       0xe0 ../../../../../..//binary/armv7a/gcc/am335x/drivers/Debug/libdrivers.a(gpmc.o)
 .text.GPMCWaitPinSelect
                0x00000000       0xe0 ../../../../../..//binary/armv7a/gcc/am335x/drivers/Debug/libdrivers.a(gpmc.o)
 .text.GPMCWaitMonitoringTimeSelect
                0x00000000       0xe0 ../../../../../..//binary/armv7a/gcc/am335x/drivers/Debug/libdrivers.a(gpmc.o)
 .text.GPMCWaitPinMonitoringConfig
                0x00000000      0x1bc ../../../../../..//binary/armv7a/gcc/am335x/drivers/Debug/libdrivers.a(gpmc.o)
 .text.GPMCClkActivationTimeConfig
                0x00000000       0xe0 ../../../../../..//binary/armv7a/gcc/am335x/drivers/Debug/libdrivers.a(gpmc.o)
 .text.GPMCDevPageLenSet
                0x00000000       0xe0 ../../../../../..//binary/armv7a/gcc/am335x/drivers/Debug/libdrivers.a(gpmc.o)
 .text.GPMCWriteTypeSelect
                0x00000000       0xe0 ../../../../../..//binary/armv7a/gcc/am335x/drivers/Debug/libdrivers.a(gpmc.o)
 .text.GPMCReadTypeSelect
                0x00000000       0xe0 ../../../../../..//binary/armv7a/gcc/am335x/drivers/Debug/libdrivers.a(gpmc.o)
 .text.GPMCAccessTypeSelect
                0x00000000      0x1bc ../../../../../..//binary/armv7a/gcc/am335x/drivers/Debug/libdrivers.a(gpmc.o)
 .text.GPMCSyncWrapBurstConfig
                0x00000000       0xdc ../../../../../..//binary/armv7a/gcc/am335x/drivers/Debug/libdrivers.a(gpmc.o)
 .text.GPMCCSTimingConfig
                0x00000000       0x50 ../../../../../..//binary/armv7a/gcc/am335x/drivers/Debug/libdrivers.a(gpmc.o)
 .text.GPMCADVTimingConfig
                0x00000000       0x50 ../../../../../..//binary/armv7a/gcc/am335x/drivers/Debug/libdrivers.a(gpmc.o)
 .text.GPMCWEAndOETimingConfig
                0x00000000       0x50 ../../../../../..//binary/armv7a/gcc/am335x/drivers/Debug/libdrivers.a(gpmc.o)
 .text.GPMCRdAccessAndCycleTimeTimingConfig
                0x00000000       0x50 ../../../../../..//binary/armv7a/gcc/am335x/drivers/Debug/libdrivers.a(gpmc.o)
 .text.GPMCWrAccessAndWrDataOnADMUXBusTimingConfig
                0x00000000       0xa4 ../../../../../..//binary/armv7a/gcc/am335x/drivers/Debug/libdrivers.a(gpmc.o)
 .text.GPMCycle2CycleAndTurnArndTimeTimingConfig
                0x00000000       0x80 ../../../../../..//binary/armv7a/gcc/am335x/drivers/Debug/libdrivers.a(gpmc.o)
 .text.GPMCCSConfig
                0x00000000       0xe0 ../../../../../..//binary/armv7a/gcc/am335x/drivers/Debug/libdrivers.a(gpmc.o)
 .text.GPMCBaseAddrSet
                0x00000000       0xdc ../../../../../..//binary/armv7a/gcc/am335x/drivers/Debug/libdrivers.a(gpmc.o)
 .text.GPMCMaskAddrSet
                0x00000000       0xe0 ../../../../../..//binary/armv7a/gcc/am335x/drivers/Debug/libdrivers.a(gpmc.o)
 .text.GPMCSNANDCmdWrite
                0x00000000       0x50 ../../../../../..//binary/armv7a/gcc/am335x/drivers/Debug/libdrivers.a(gpmc.o)
 .text.GPMCNANDAddrWrite
                0x00000000       0x50 ../../../../../..//binary/armv7a/gcc/am335x/drivers/Debug/libdrivers.a(gpmc.o)
 .text.GPMCNANDDataWrite
                0x00000000       0x50 ../../../../../..//binary/armv7a/gcc/am335x/drivers/Debug/libdrivers.a(gpmc.o)
 .text.GPMCNANDDataRead
                0x00000000       0x54 ../../../../../..//binary/armv7a/gcc/am335x/drivers/Debug/libdrivers.a(gpmc.o)
 .text.GPMCPrefetchAccessModeSelect
                0x00000000       0x60 ../../../../../..//binary/armv7a/gcc/am335x/drivers/Debug/libdrivers.a(gpmc.o)
 .text.GPMCPrefetchSyncTypeSelect
                0x00000000       0x64 ../../../../../..//binary/armv7a/gcc/am335x/drivers/Debug/libdrivers.a(gpmc.o)
 .text.GPMCPrefetchSyncModeConfig
                0x00000000       0x64 ../../../../../..//binary/armv7a/gcc/am335x/drivers/Debug/libdrivers.a(gpmc.o)
 .text.GPMCPrefetchWaitPinSelect
                0x00000000       0x64 ../../../../../..//binary/armv7a/gcc/am335x/drivers/Debug/libdrivers.a(gpmc.o)
 .text.GPMCPrefetchEngineEnable
                0x00000000       0x38 ../../../../../..//binary/armv7a/gcc/am335x/drivers/Debug/libdrivers.a(gpmc.o)
 .text.GPMCPrefetchEngineDisable
                0x00000000       0x38 ../../../../../..//binary/armv7a/gcc/am335x/drivers/Debug/libdrivers.a(gpmc.o)
 .text.GPMCPrefetchFifoThrldValSet
                0x00000000       0x64 ../../../../../..//binary/armv7a/gcc/am335x/drivers/Debug/libdrivers.a(gpmc.o)
 .text.GPMCPrefetchCSSelect
                0x00000000       0x64 ../../../../../..//binary/armv7a/gcc/am335x/drivers/Debug/libdrivers.a(gpmc.o)
 .text.GPMCPrefetchAccessCycleOptConfig
                0x00000000       0x64 ../../../../../..//binary/armv7a/gcc/am335x/drivers/Debug/libdrivers.a(gpmc.o)
 .text.GPMCPrefetchCycleOptValSet
                0x00000000       0x64 ../../../../../..//binary/armv7a/gcc/am335x/drivers/Debug/libdrivers.a(gpmc.o)
 .text.GPMCPrefetchRRArbitrationConfig
                0x00000000       0x64 ../../../../../..//binary/armv7a/gcc/am335x/drivers/Debug/libdrivers.a(gpmc.o)
 .text.GPMCPrefetchWeightedPrioSet
                0x00000000       0x64 ../../../../../..//binary/armv7a/gcc/am335x/drivers/Debug/libdrivers.a(gpmc.o)
 .text.GPMCPrefetchTrnsCntValSet
                0x00000000       0x70 ../../../../../..//binary/armv7a/gcc/am335x/drivers/Debug/libdrivers.a(gpmc.o)
 .text.GPMCPrefetchEngineStart
                0x00000000       0x2c ../../../../../..//binary/armv7a/gcc/am335x/drivers/Debug/libdrivers.a(gpmc.o)
 .text.GPMCPrefetchEngineStop
                0x00000000       0x2c ../../../../../..//binary/armv7a/gcc/am335x/drivers/Debug/libdrivers.a(gpmc.o)
 .text.GPMCPrefetchEngineStatusGet
                0x00000000       0x38 ../../../../../..//binary/armv7a/gcc/am335x/drivers/Debug/libdrivers.a(gpmc.o)
 .text.GPMCPrefetchCountValGet
                0x00000000       0x3c ../../../../../..//binary/armv7a/gcc/am335x/drivers/Debug/libdrivers.a(gpmc.o)
 .text.GPMCPrefetchFifoThrldStatusGet
                0x00000000       0x3c ../../../../../..//binary/armv7a/gcc/am335x/drivers/Debug/libdrivers.a(gpmc.o)
 .text.GPMCPrefetchFifoPtrValGet
                0x00000000       0x3c ../../../../../..//binary/armv7a/gcc/am335x/drivers/Debug/libdrivers.a(gpmc.o)
 .text.GPMCECCAlgoSelect
                0x00000000       0x64 ../../../../../..//binary/armv7a/gcc/am335x/drivers/Debug/libdrivers.a(gpmc.o)
 .text.GPMCECCBCHErrCorrectionCapSelect
                0x00000000       0x64 ../../../../../..//binary/armv7a/gcc/am335x/drivers/Debug/libdrivers.a(gpmc.o)
 .text.GPMCECCBCHWrapModeValSet
                0x00000000       0x64 ../../../../../..//binary/armv7a/gcc/am335x/drivers/Debug/libdrivers.a(gpmc.o)
 .text.GPMCECCColumnSelect
                0x00000000       0x64 ../../../../../..//binary/armv7a/gcc/am335x/drivers/Debug/libdrivers.a(gpmc.o)
 .text.GPMCECCBCHNumOfSectorsSelect
                0x00000000       0x64 ../../../../../..//binary/armv7a/gcc/am335x/drivers/Debug/libdrivers.a(gpmc.o)
 .text.GPMCECCCSSelect
                0x00000000       0x64 ../../../../../..//binary/armv7a/gcc/am335x/drivers/Debug/libdrivers.a(gpmc.o)
 .text.GPMCECCEnable
                0x00000000       0x38 ../../../../../..//binary/armv7a/gcc/am335x/drivers/Debug/libdrivers.a(gpmc.o)
 .text.GPMCECCDisable
                0x00000000       0x38 ../../../../../..//binary/armv7a/gcc/am335x/drivers/Debug/libdrivers.a(gpmc.o)
 .text.GPMCECCResultRegClear
                0x00000000       0x38 ../../../../../..//binary/armv7a/gcc/am335x/drivers/Debug/libdrivers.a(gpmc.o)
 .text.GPMCECCResultRegSelect
                0x00000000       0x60 ../../../../../..//binary/armv7a/gcc/am335x/drivers/Debug/libdrivers.a(gpmc.o)
 .text.GPMCECCSizeValSet
                0x00000000       0xc8 ../../../../../..//binary/armv7a/gcc/am335x/drivers/Debug/libdrivers.a(gpmc.o)
 .text.GPMCECCResultSizeSelect
                0x00000000      0x2e0 ../../../../../..//binary/armv7a/gcc/am335x/drivers/Debug/libdrivers.a(gpmc.o)
 .text.GPMCECCResultGet
                0x00000000       0x44 ../../../../../..//binary/armv7a/gcc/am335x/drivers/Debug/libdrivers.a(gpmc.o)
 .text.GPMCECCBCHResultGet
                0x00000000      0x140 ../../../../../..//binary/armv7a/gcc/am335x/drivers/Debug/libdrivers.a(gpmc.o)
 .text.GPMCECCBCHSWDataWrite
                0x00000000       0x3c ../../../../../..//binary/armv7a/gcc/am335x/drivers/Debug/libdrivers.a(gpmc.o)
 .text.GPMCECCBCHSWDataRead
                0x00000000       0x3c ../../../../../..//binary/armv7a/gcc/am335x/drivers/Debug/libdrivers.a(gpmc.o)
 .text          0x00000000        0x0 ../../../../../..//binary/armv7a/gcc/am335x/drivers/Debug/libdrivers.a(hs_mmcsd.o)
 .data          0x00000000        0x0 ../../../../../..//binary/armv7a/gcc/am335x/drivers/Debug/libdrivers.a(hs_mmcsd.o)
 .bss           0x00000000        0x0 ../../../../../..//binary/armv7a/gcc/am335x/drivers/Debug/libdrivers.a(hs_mmcsd.o)
 .text.HSMMCSDIsHSupported
                0x00000000       0x34 ../../../../../..//binary/armv7a/gcc/am335x/drivers/Debug/libdrivers.a(hs_mmcsd.o)
 .text.HSMMCSDIntrStatusDisable
                0x00000000       0x44 ../../../../../..//binary/armv7a/gcc/am335x/drivers/Debug/libdrivers.a(hs_mmcsd.o)
 .text.HSMMCSDIsXferComplete
                0x00000000       0x88 ../../../../../..//binary/armv7a/gcc/am335x/drivers/Debug/libdrivers.a(hs_mmcsd.o)
 .text.HSMMCSDDataGet
                0x00000000       0x70 ../../../../../..//binary/armv7a/gcc/am335x/drivers/Debug/libdrivers.a(hs_mmcsd.o)
 .text.HSMMCSDIsCardWriteProtected
                0x00000000       0x34 ../../../../../..//binary/armv7a/gcc/am335x/drivers/Debug/libdrivers.a(hs_mmcsd.o)
 .text          0x00000000        0x0 ../../../../../..//binary/armv7a/gcc/am335x/drivers/Debug/libdrivers.a(hsi2c.o)
 .data          0x00000000        0x0 ../../../../../..//binary/armv7a/gcc/am335x/drivers/Debug/libdrivers.a(hsi2c.o)
 .bss           0x00000000        0x0 ../../../../../..//binary/armv7a/gcc/am335x/drivers/Debug/libdrivers.a(hsi2c.o)
 .text.I2CMasterErr
                0x00000000       0x3c ../../../../../..//binary/armv7a/gcc/am335x/drivers/Debug/libdrivers.a(hsi2c.o)
 .text.I2CMasterIntStatusEx
                0x00000000       0x38 ../../../../../..//binary/armv7a/gcc/am335x/drivers/Debug/libdrivers.a(hsi2c.o)
 .text.I2CMasterIntRawStatusClearEx
                0x00000000       0x30 ../../../../../..//binary/armv7a/gcc/am335x/drivers/Debug/libdrivers.a(hsi2c.o)
 .text.I2CMasterSlaveAddrGet
                0x00000000       0x38 ../../../../../..//binary/armv7a/gcc/am335x/drivers/Debug/libdrivers.a(hsi2c.o)
 .text.I2CFIFOThresholdConfig
                0x00000000       0xb0 ../../../../../..//binary/armv7a/gcc/am335x/drivers/Debug/libdrivers.a(hsi2c.o)
 .text.I2CFIFOClear
                0x00000000       0x68 ../../../../../..//binary/armv7a/gcc/am335x/drivers/Debug/libdrivers.a(hsi2c.o)
 .text.I2CDMATxEventEnable
                0x00000000       0x48 ../../../../../..//binary/armv7a/gcc/am335x/drivers/Debug/libdrivers.a(hsi2c.o)
 .text.I2CDMARxEventEnable
                0x00000000       0x48 ../../../../../..//binary/armv7a/gcc/am335x/drivers/Debug/libdrivers.a(hsi2c.o)
 .text.I2CDMATxEventDisable
                0x00000000       0x48 ../../../../../..//binary/armv7a/gcc/am335x/drivers/Debug/libdrivers.a(hsi2c.o)
 .text.I2CDMARxEventDisable
                0x00000000       0x48 ../../../../../..//binary/armv7a/gcc/am335x/drivers/Debug/libdrivers.a(hsi2c.o)
 .text.I2CBufferStatus
                0x00000000       0xa4 ../../../../../..//binary/armv7a/gcc/am335x/drivers/Debug/libdrivers.a(hsi2c.o)
 .text.I2CActiveOwnAddressGet
                0x00000000       0xc4 ../../../../../..//binary/armv7a/gcc/am335x/drivers/Debug/libdrivers.a(hsi2c.o)
 .text.I2CClockBlockingControl
                0x00000000      0x124 ../../../../../..//binary/armv7a/gcc/am335x/drivers/Debug/libdrivers.a(hsi2c.o)
 .text.I2CAutoIdleEnable
                0x00000000       0x38 ../../../../../..//binary/armv7a/gcc/am335x/drivers/Debug/libdrivers.a(hsi2c.o)
 .text.I2CGlobalWakeUpEnable
                0x00000000       0x38 ../../../../../..//binary/armv7a/gcc/am335x/drivers/Debug/libdrivers.a(hsi2c.o)
 .text.I2CGlobalWakeUpDisable
                0x00000000       0x38 ../../../../../..//binary/armv7a/gcc/am335x/drivers/Debug/libdrivers.a(hsi2c.o)
 .text.I2CIdleModeSelect
                0x00000000       0x5c ../../../../../..//binary/armv7a/gcc/am335x/drivers/Debug/libdrivers.a(hsi2c.o)
 .text.I2CClockActivitySelect
                0x00000000       0x5c ../../../../../..//binary/armv7a/gcc/am335x/drivers/Debug/libdrivers.a(hsi2c.o)
 .text.I2CWakeUpEnable
                0x00000000       0xb0 ../../../../../..//binary/armv7a/gcc/am335x/drivers/Debug/libdrivers.a(hsi2c.o)
 .text.I2CWakeUpDisable
                0x00000000       0xbc ../../../../../..//binary/armv7a/gcc/am335x/drivers/Debug/libdrivers.a(hsi2c.o)
 .text.I2CContextSave
                0x00000000       0x70 ../../../../../..//binary/armv7a/gcc/am335x/drivers/Debug/libdrivers.a(hsi2c.o)
 .text.I2CContextRestore
                0x00000000      0x10c ../../../../../..//binary/armv7a/gcc/am335x/drivers/Debug/libdrivers.a(hsi2c.o)
 .text          0x00000000        0x0 ../../../../../..//binary/armv7a/gcc/am335x/drivers/Debug/libdrivers.a(mailbox.o)
 .data          0x00000000        0x0 ../../../../../..//binary/armv7a/gcc/am335x/drivers/Debug/libdrivers.a(mailbox.o)
 .bss           0x00000000        0x0 ../../../../../..//binary/armv7a/gcc/am335x/drivers/Debug/libdrivers.a(mailbox.o)
 .text.MBenableQueueNotFullInt
                0x00000000       0x60 ../../../../../..//binary/armv7a/gcc/am335x/drivers/Debug/libdrivers.a(mailbox.o)
 .text.MBdisableNewMsgInt
                0x00000000       0x58 ../../../../../..//binary/armv7a/gcc/am335x/drivers/Debug/libdrivers.a(mailbox.o)
 .text.MBdisableQueueNotFullInt
                0x00000000       0x60 ../../../../../..//binary/armv7a/gcc/am335x/drivers/Debug/libdrivers.a(mailbox.o)
 .text.MBgetNewMsgStatus
                0x00000000       0x60 ../../../../../..//binary/armv7a/gcc/am335x/drivers/Debug/libdrivers.a(mailbox.o)
 .text.MBgetQueueNotFullStatus
                0x00000000       0x68 ../../../../../..//binary/armv7a/gcc/am335x/drivers/Debug/libdrivers.a(mailbox.o)
 .text.MBclrQueueNotFullStatus
                0x00000000       0x60 ../../../../../..//binary/armv7a/gcc/am335x/drivers/Debug/libdrivers.a(mailbox.o)
 .text.MBgetRawNewMsgStatus
                0x00000000       0x60 ../../../../../..//binary/armv7a/gcc/am335x/drivers/Debug/libdrivers.a(mailbox.o)
 .text.MBgetRawQueueNotFullStatus
                0x00000000       0x68 ../../../../../..//binary/armv7a/gcc/am335x/drivers/Debug/libdrivers.a(mailbox.o)
 .text          0x00000000        0x0 ../../../../../..//binary/armv7a/gcc/am335x/drivers/Debug/libdrivers.a(mdio.o)
 .data          0x00000000        0x0 ../../../../../..//binary/armv7a/gcc/am335x/drivers/Debug/libdrivers.a(mdio.o)
 .bss           0x00000000        0x0 ../../../../../..//binary/armv7a/gcc/am335x/drivers/Debug/libdrivers.a(mdio.o)
 .text.MDIOPhyLinkStatusGet
                0x00000000       0x2c ../../../../../..//binary/armv7a/gcc/am335x/drivers/Debug/libdrivers.a(mdio.o)
 .text          0x00000000        0x0 ../../../../../..//binary/armv7a/gcc/am335x/drivers/Debug/libdrivers.a(phy.o)
 .data          0x00000000        0x0 ../../../../../..//binary/armv7a/gcc/am335x/drivers/Debug/libdrivers.a(phy.o)
 .bss           0x00000000        0x0 ../../../../../..//binary/armv7a/gcc/am335x/drivers/Debug/libdrivers.a(phy.o)
 .text.PhyIDGet
                0x00000000       0x80 ../../../../../..//binary/armv7a/gcc/am335x/drivers/Debug/libdrivers.a(phy.o)
 .text.PhyRegRead
                0x00000000       0x48 ../../../../../..//binary/armv7a/gcc/am335x/drivers/Debug/libdrivers.a(phy.o)
 .text.PhyRegWrite
                0x00000000       0x40 ../../../../../..//binary/armv7a/gcc/am335x/drivers/Debug/libdrivers.a(phy.o)
 .text.PhyLoopBackEnable
                0x00000000       0x80 ../../../../../..//binary/armv7a/gcc/am335x/drivers/Debug/libdrivers.a(phy.o)
 .text.PhyLoopBackDisable
                0x00000000       0x80 ../../../../../..//binary/armv7a/gcc/am335x/drivers/Debug/libdrivers.a(phy.o)
 .text.PhyReset
                0x00000000       0x90 ../../../../../..//binary/armv7a/gcc/am335x/drivers/Debug/libdrivers.a(phy.o)
 .text.PhyConfigure
                0x00000000       0x54 ../../../../../..//binary/armv7a/gcc/am335x/drivers/Debug/libdrivers.a(phy.o)
 .text          0x00000000        0x0 ../../../../../..//binary/armv7a/gcc/am335x/drivers/Debug/libdrivers.a(rtc.o)
 .data          0x00000000        0x0 ../../../../../..//binary/armv7a/gcc/am335x/drivers/Debug/libdrivers.a(rtc.o)
 .bss           0x00000000        0x0 ../../../../../..//binary/armv7a/gcc/am335x/drivers/Debug/libdrivers.a(rtc.o)
 .text.RTCStop  0x00000000       0x98 ../../../../../..//binary/armv7a/gcc/am335x/drivers/Debug/libdrivers.a(rtc.o)
 .text.RTCWriteProtectEnable
                0x00000000       0x3c ../../../../../..//binary/armv7a/gcc/am335x/drivers/Debug/libdrivers.a(rtc.o)
 .text.RTCIntAlarmEnable
                0x00000000       0x54 ../../../../../..//binary/armv7a/gcc/am335x/drivers/Debug/libdrivers.a(rtc.o)
 .text.RTCIntAlarmDisable
                0x00000000       0x54 ../../../../../..//binary/armv7a/gcc/am335x/drivers/Debug/libdrivers.a(rtc.o)
 .text.RTCIntTimerDisable
                0x00000000       0x54 ../../../../../..//binary/armv7a/gcc/am335x/drivers/Debug/libdrivers.a(rtc.o)
 .text.RTCBusyStatusGet
                0x00000000       0x30 ../../../../../..//binary/armv7a/gcc/am335x/drivers/Debug/libdrivers.a(rtc.o)
 .text.RTCRunStatusGet
                0x00000000       0x30 ../../../../../..//binary/armv7a/gcc/am335x/drivers/Debug/libdrivers.a(rtc.o)
 .text.RTCAlarmIntStatusGet
                0x00000000       0x30 ../../../../../..//binary/armv7a/gcc/am335x/drivers/Debug/libdrivers.a(rtc.o)
 .text.RTCAlarmIntStatusClear
                0x00000000       0x38 ../../../../../..//binary/armv7a/gcc/am335x/drivers/Debug/libdrivers.a(rtc.o)
 .text.RTCEventUpdateGet
                0x00000000       0x30 ../../../../../..//binary/armv7a/gcc/am335x/drivers/Debug/libdrivers.a(rtc.o)
 .text.RTCMinRoundingEnable
                0x00000000       0x64 ../../../../../..//binary/armv7a/gcc/am335x/drivers/Debug/libdrivers.a(rtc.o)
 .text.RTCMinRoundingDisable
                0x00000000       0x7c ../../../../../..//binary/armv7a/gcc/am335x/drivers/Debug/libdrivers.a(rtc.o)
 .text.RTCAutoCompEnable
                0x00000000       0x64 ../../../../../..//binary/armv7a/gcc/am335x/drivers/Debug/libdrivers.a(rtc.o)
 .text.RTCAutoCompDisable
                0x00000000       0x7c ../../../../../..//binary/armv7a/gcc/am335x/drivers/Debug/libdrivers.a(rtc.o)
 .text.RTCHourModeSet
                0x00000000       0x9c ../../../../../..//binary/armv7a/gcc/am335x/drivers/Debug/libdrivers.a(rtc.o)
 .text.RTCHourModeGet
                0x00000000       0x30 ../../../../../..//binary/armv7a/gcc/am335x/drivers/Debug/libdrivers.a(rtc.o)
 .text.RTCSet32CounterEnable
                0x00000000       0x9c ../../../../../..//binary/armv7a/gcc/am335x/drivers/Debug/libdrivers.a(rtc.o)
 .text.RTCSet32CounterDisable
                0x00000000       0xb4 ../../../../../..//binary/armv7a/gcc/am335x/drivers/Debug/libdrivers.a(rtc.o)
 .text.RTCDisable
                0x00000000       0x64 ../../../../../..//binary/armv7a/gcc/am335x/drivers/Debug/libdrivers.a(rtc.o)
 .text.RTCEnableStatus
                0x00000000       0x30 ../../../../../..//binary/armv7a/gcc/am335x/drivers/Debug/libdrivers.a(rtc.o)
 .text.RTCSplitPwrEnable
                0x00000000       0x38 ../../../../../..//binary/armv7a/gcc/am335x/drivers/Debug/libdrivers.a(rtc.o)
 .text.RTCSplitPwrDisable
                0x00000000       0x38 ../../../../../..//binary/armv7a/gcc/am335x/drivers/Debug/libdrivers.a(rtc.o)
 .text.RTCSecondSet
                0x00000000       0x4c ../../../../../..//binary/armv7a/gcc/am335x/drivers/Debug/libdrivers.a(rtc.o)
 .text.RTCSecondGet
                0x00000000       0x2c ../../../../../..//binary/armv7a/gcc/am335x/drivers/Debug/libdrivers.a(rtc.o)
 .text.RTCMinuteSet
                0x00000000       0x50 ../../../../../..//binary/armv7a/gcc/am335x/drivers/Debug/libdrivers.a(rtc.o)
 .text.RTCMinuteGet
                0x00000000       0x30 ../../../../../..//binary/armv7a/gcc/am335x/drivers/Debug/libdrivers.a(rtc.o)
 .text.RTCHourSet
                0x00000000       0x50 ../../../../../..//binary/armv7a/gcc/am335x/drivers/Debug/libdrivers.a(rtc.o)
 .text.RTCHourGet
                0x00000000       0x30 ../../../../../..//binary/armv7a/gcc/am335x/drivers/Debug/libdrivers.a(rtc.o)
 .text.RTCMeridiemSet
                0x00000000       0x60 ../../../../../..//binary/armv7a/gcc/am335x/drivers/Debug/libdrivers.a(rtc.o)
 .text.RTCMeridiemGet
                0x00000000       0x30 ../../../../../..//binary/armv7a/gcc/am335x/drivers/Debug/libdrivers.a(rtc.o)
 .text.RTCDayOfMonthSet
                0x00000000       0x50 ../../../../../..//binary/armv7a/gcc/am335x/drivers/Debug/libdrivers.a(rtc.o)
 .text.RTCDayOfMonthGet
                0x00000000       0x30 ../../../../../..//binary/armv7a/gcc/am335x/drivers/Debug/libdrivers.a(rtc.o)
 .text.RTCMonthSet
                0x00000000       0x50 ../../../../../..//binary/armv7a/gcc/am335x/drivers/Debug/libdrivers.a(rtc.o)
 .text.RTCMonthGet
                0x00000000       0x30 ../../../../../..//binary/armv7a/gcc/am335x/drivers/Debug/libdrivers.a(rtc.o)
 .text.RTCYearSet
                0x00000000       0x50 ../../../../../..//binary/armv7a/gcc/am335x/drivers/Debug/libdrivers.a(rtc.o)
 .text.RTCYearGet
                0x00000000       0x30 ../../../../../..//binary/armv7a/gcc/am335x/drivers/Debug/libdrivers.a(rtc.o)
 .text.RTCDayOfTheWeekSet
                0x00000000       0x50 ../../../../../..//binary/armv7a/gcc/am335x/drivers/Debug/libdrivers.a(rtc.o)
 .text.RTCDayOfTheWeekGet
                0x00000000       0x30 ../../../../../..//binary/armv7a/gcc/am335x/drivers/Debug/libdrivers.a(rtc.o)
 .text.RTCAlarmSecondSet
                0x00000000       0x50 ../../../../../..//binary/armv7a/gcc/am335x/drivers/Debug/libdrivers.a(rtc.o)
 .text.RTCAlarmSecondGet
                0x00000000       0x30 ../../../../../..//binary/armv7a/gcc/am335x/drivers/Debug/libdrivers.a(rtc.o)
 .text.RTCAlarmMinuteSet
                0x00000000       0x50 ../../../../../..//binary/armv7a/gcc/am335x/drivers/Debug/libdrivers.a(rtc.o)
 .text.RTCAlarmMinuteGet
                0x00000000       0x30 ../../../../../..//binary/armv7a/gcc/am335x/drivers/Debug/libdrivers.a(rtc.o)
 .text.RTCAlarmHourSet
                0x00000000       0x50 ../../../../../..//binary/armv7a/gcc/am335x/drivers/Debug/libdrivers.a(rtc.o)
 .text.RTCAlarmHourGet
                0x00000000       0x30 ../../../../../..//binary/armv7a/gcc/am335x/drivers/Debug/libdrivers.a(rtc.o)
 .text.RTCAlarmHourMeridiemSet
                0x00000000       0x60 ../../../../../..//binary/armv7a/gcc/am335x/drivers/Debug/libdrivers.a(rtc.o)
 .text.RTCAlarmHourMeridiemGet
                0x00000000       0x30 ../../../../../..//binary/armv7a/gcc/am335x/drivers/Debug/libdrivers.a(rtc.o)
 .text.RTCAlarmTimeSet
                0x00000000       0x8c ../../../../../..//binary/armv7a/gcc/am335x/drivers/Debug/libdrivers.a(rtc.o)
 .text.RTCAlarmTimeGet
                0x00000000       0xec ../../../../../..//binary/armv7a/gcc/am335x/drivers/Debug/libdrivers.a(rtc.o)
 .text.RTCAlarmDayOfMonthSet
                0x00000000       0x50 ../../../../../..//binary/armv7a/gcc/am335x/drivers/Debug/libdrivers.a(rtc.o)
 .text.RTCAlarmDayOfMonthGet
                0x00000000       0x30 ../../../../../..//binary/armv7a/gcc/am335x/drivers/Debug/libdrivers.a(rtc.o)
 .text.RTCAlarmMonthSet
                0x00000000       0x50 ../../../../../..//binary/armv7a/gcc/am335x/drivers/Debug/libdrivers.a(rtc.o)
 .text.RTCAlarmMonthGet
                0x00000000       0x30 ../../../../../..//binary/armv7a/gcc/am335x/drivers/Debug/libdrivers.a(rtc.o)
 .text.RTCAlarmYearSet
                0x00000000       0x50 ../../../../../..//binary/armv7a/gcc/am335x/drivers/Debug/libdrivers.a(rtc.o)
 .text.RTCAlarmYearGet
                0x00000000       0x30 ../../../../../..//binary/armv7a/gcc/am335x/drivers/Debug/libdrivers.a(rtc.o)
 .text.RTCAlarmCalendarSet
                0x00000000       0x84 ../../../../../..//binary/armv7a/gcc/am335x/drivers/Debug/libdrivers.a(rtc.o)
 .text.RTCAlarmCalendarGet
                0x00000000       0x88 ../../../../../..//binary/armv7a/gcc/am335x/drivers/Debug/libdrivers.a(rtc.o)
 .text.RTCCompensationSet
                0x00000000       0x64 ../../../../../..//binary/armv7a/gcc/am335x/drivers/Debug/libdrivers.a(rtc.o)
 .text.RTCCompensationGet
                0x00000000       0x64 ../../../../../..//binary/armv7a/gcc/am335x/drivers/Debug/libdrivers.a(rtc.o)
 .text.RTCScratchPadSet
                0x00000000       0x50 ../../../../../..//binary/armv7a/gcc/am335x/drivers/Debug/libdrivers.a(rtc.o)
 .text.RTCScratchPadGet
                0x00000000       0x4c ../../../../../..//binary/armv7a/gcc/am335x/drivers/Debug/libdrivers.a(rtc.o)
 .text.RTCSoftwareReset
                0x00000000       0x38 ../../../../../..//binary/armv7a/gcc/am335x/drivers/Debug/libdrivers.a(rtc.o)
 .text.RTCRevisionIDGet
                0x00000000       0x2c ../../../../../..//binary/armv7a/gcc/am335x/drivers/Debug/libdrivers.a(rtc.o)
 .text.RTCIdleModeConfigure
                0x00000000       0x60 ../../../../../..//binary/armv7a/gcc/am335x/drivers/Debug/libdrivers.a(rtc.o)
 .text.RTCWakeUpAlarmEventControl
                0x00000000       0x60 ../../../../../..//binary/armv7a/gcc/am335x/drivers/Debug/libdrivers.a(rtc.o)
 .text.RTCWakeUpTimerEventControl
                0x00000000       0x60 ../../../../../..//binary/armv7a/gcc/am335x/drivers/Debug/libdrivers.a(rtc.o)
 .text.RTCTestModeControl
                0x00000000       0x60 ../../../../../..//binary/armv7a/gcc/am335x/drivers/Debug/libdrivers.a(rtc.o)
 .text.RTCOscillatorStateControl
                0x00000000       0x60 ../../../../../..//binary/armv7a/gcc/am335x/drivers/Debug/libdrivers.a(rtc.o)
 .text.RTCFeedbackResistanceSelect
                0x00000000       0x60 ../../../../../..//binary/armv7a/gcc/am335x/drivers/Debug/libdrivers.a(rtc.o)
 .text.RTCConfigPmicPowerEnable
                0x00000000       0x60 ../../../../../..//binary/armv7a/gcc/am335x/drivers/Debug/libdrivers.a(rtc.o)
 .text.RTCConfigPmicExtWakePolarity
                0x00000000       0x84 ../../../../../..//binary/armv7a/gcc/am335x/drivers/Debug/libdrivers.a(rtc.o)
 .text.RTCConfigPmicExtWake
                0x00000000       0x7c ../../../../../..//binary/armv7a/gcc/am335x/drivers/Debug/libdrivers.a(rtc.o)
 .text.RTCConfigPmicExtWakeDebounce
                0x00000000       0x84 ../../../../../..//binary/armv7a/gcc/am335x/drivers/Debug/libdrivers.a(rtc.o)
 .text.RTCPmicExtWakeStatusClear
                0x00000000       0x58 ../../../../../..//binary/armv7a/gcc/am335x/drivers/Debug/libdrivers.a(rtc.o)
 .text.RTCIntAlarm2Enable
                0x00000000       0x54 ../../../../../..//binary/armv7a/gcc/am335x/drivers/Debug/libdrivers.a(rtc.o)
 .text.RTCAlarm2IntStatusGet
                0x00000000       0x30 ../../../../../..//binary/armv7a/gcc/am335x/drivers/Debug/libdrivers.a(rtc.o)
 .text.RTCAlarm2IntStatusClear
                0x00000000       0x38 ../../../../../..//binary/armv7a/gcc/am335x/drivers/Debug/libdrivers.a(rtc.o)
 .text.RTCAlarm2TimeSet
                0x00000000       0x8c ../../../../../..//binary/armv7a/gcc/am335x/drivers/Debug/libdrivers.a(rtc.o)
 .text.RTCAlarm2CalendarSet
                0x00000000       0x84 ../../../../../..//binary/armv7a/gcc/am335x/drivers/Debug/libdrivers.a(rtc.o)
 .text          0x00000000        0x0 ../../../../../..//binary/armv7a/gcc/am335x/drivers/Debug/libdrivers.a(uart_irda_cir.o)
 .data          0x00000000        0x0 ../../../../../..//binary/armv7a/gcc/am335x/drivers/Debug/libdrivers.a(uart_irda_cir.o)
 .bss           0x00000000        0x0 ../../../../../..//binary/armv7a/gcc/am335x/drivers/Debug/libdrivers.a(uart_irda_cir.o)
 .text.UARTDivisorLatchEnable
                0x00000000       0x38 ../../../../../..//binary/armv7a/gcc/am335x/drivers/Debug/libdrivers.a(uart_irda_cir.o)
 .text.UARTRegConfModeRestore
                0x00000000       0x30 ../../../../../..//binary/armv7a/gcc/am335x/drivers/Debug/libdrivers.a(uart_irda_cir.o)
 .text.UARTParityModeSet
                0x00000000       0x60 ../../../../../..//binary/armv7a/gcc/am335x/drivers/Debug/libdrivers.a(uart_irda_cir.o)
 .text.UARTParityModeGet
                0x00000000       0x30 ../../../../../..//binary/armv7a/gcc/am335x/drivers/Debug/libdrivers.a(uart_irda_cir.o)
 .text.UARTDMAEnable
                0x00000000       0x80 ../../../../../..//binary/armv7a/gcc/am335x/drivers/Debug/libdrivers.a(uart_irda_cir.o)
 .text.UARTDMADisable
                0x00000000       0x54 ../../../../../..//binary/armv7a/gcc/am335x/drivers/Debug/libdrivers.a(uart_irda_cir.o)
 .text.UARTSubConfigMSRSPRModeEn
                0x00000000      0x124 ../../../../../..//binary/armv7a/gcc/am335x/drivers/Debug/libdrivers.a(uart_irda_cir.o)
 .text.UARTSubConfigXOFFModeEn
                0x00000000      0x124 ../../../../../..//binary/armv7a/gcc/am335x/drivers/Debug/libdrivers.a(uart_irda_cir.o)
 .text.UARTSpaceAvail
                0x00000000       0x78 ../../../../../..//binary/armv7a/gcc/am335x/drivers/Debug/libdrivers.a(uart_irda_cir.o)
 .text.UARTCharGetTimeout
                0x00000000       0xac ../../../../../..//binary/armv7a/gcc/am335x/drivers/Debug/libdrivers.a(uart_irda_cir.o)
 .text.UARTFIFOCharPut
                0x00000000       0x30 ../../../../../..//binary/armv7a/gcc/am335x/drivers/Debug/libdrivers.a(uart_irda_cir.o)
 .text.UARTFIFOCharGet
                0x00000000       0x30 ../../../../../..//binary/armv7a/gcc/am335x/drivers/Debug/libdrivers.a(uart_irda_cir.o)
 .text.UARTFIFOWrite
                0x00000000       0x78 ../../../../../..//binary/armv7a/gcc/am335x/drivers/Debug/libdrivers.a(uart_irda_cir.o)
 .text.UARTRxErrorGet
                0x00000000       0x6c ../../../../../..//binary/armv7a/gcc/am335x/drivers/Debug/libdrivers.a(uart_irda_cir.o)
 .text.UARTIntIdentityGet
                0x00000000       0x6c ../../../../../..//binary/armv7a/gcc/am335x/drivers/Debug/libdrivers.a(uart_irda_cir.o)
 .text.UARTIntPendingStatusGet
                0x00000000       0x78 ../../../../../..//binary/armv7a/gcc/am335x/drivers/Debug/libdrivers.a(uart_irda_cir.o)
 .text.UARTFIFOEnableStatusGet
                0x00000000       0x78 ../../../../../..//binary/armv7a/gcc/am335x/drivers/Debug/libdrivers.a(uart_irda_cir.o)
 .text.UARTAutoRTSAutoCTSControl
                0x00000000       0xb4 ../../../../../..//binary/armv7a/gcc/am335x/drivers/Debug/libdrivers.a(uart_irda_cir.o)
 .text.UARTSpecialCharDetectControl
                0x00000000       0x8c ../../../../../..//binary/armv7a/gcc/am335x/drivers/Debug/libdrivers.a(uart_irda_cir.o)
 .text.UARTSoftwareFlowCtrlOptSet
                0x00000000       0x8c ../../../../../..//binary/armv7a/gcc/am335x/drivers/Debug/libdrivers.a(uart_irda_cir.o)
 .text.UARTPulseShapingControl
                0x00000000       0x60 ../../../../../..//binary/armv7a/gcc/am335x/drivers/Debug/libdrivers.a(uart_irda_cir.o)
 .text.UARTAutoIdleModeControl
                0x00000000       0x60 ../../../../../..//binary/armv7a/gcc/am335x/drivers/Debug/libdrivers.a(uart_irda_cir.o)
 .text.UARTFlowCtrlTrigLvlConfig
                0x00000000       0x60 ../../../../../..//binary/armv7a/gcc/am335x/drivers/Debug/libdrivers.a(uart_irda_cir.o)
 .text.UARTXON1XOFF1ValProgram
                0x00000000       0x4c ../../../../../..//binary/armv7a/gcc/am335x/drivers/Debug/libdrivers.a(uart_irda_cir.o)
 .text.UARTXON2XOFF2ValProgram
                0x00000000       0x4c ../../../../../..//binary/armv7a/gcc/am335x/drivers/Debug/libdrivers.a(uart_irda_cir.o)
 .text.UARTXONAnyFeatureControl
                0x00000000      0x100 ../../../../../..//binary/armv7a/gcc/am335x/drivers/Debug/libdrivers.a(uart_irda_cir.o)
 .text.UARTLoopbackModeControl
                0x00000000       0x60 ../../../../../..//binary/armv7a/gcc/am335x/drivers/Debug/libdrivers.a(uart_irda_cir.o)
 .text.UARTModemControlSet
                0x00000000       0x44 ../../../../../..//binary/armv7a/gcc/am335x/drivers/Debug/libdrivers.a(uart_irda_cir.o)
 .text.UARTModemControlClear
                0x00000000       0x48 ../../../../../..//binary/armv7a/gcc/am335x/drivers/Debug/libdrivers.a(uart_irda_cir.o)
 .text.UARTModemStatusGet
                0x00000000       0x30 ../../../../../..//binary/armv7a/gcc/am335x/drivers/Debug/libdrivers.a(uart_irda_cir.o)
 .text.UARTModemStatusChangeCheck
                0x00000000       0x30 ../../../../../..//binary/armv7a/gcc/am335x/drivers/Debug/libdrivers.a(uart_irda_cir.o)
 .text.UARTResumeOperation
                0x00000000       0x28 ../../../../../..//binary/armv7a/gcc/am335x/drivers/Debug/libdrivers.a(uart_irda_cir.o)
 .text.UARTWakeUpEventsEnable
                0x00000000       0x44 ../../../../../..//binary/armv7a/gcc/am335x/drivers/Debug/libdrivers.a(uart_irda_cir.o)
 .text.UARTWakeUpEventsDisable
                0x00000000       0x48 ../../../../../..//binary/armv7a/gcc/am335x/drivers/Debug/libdrivers.a(uart_irda_cir.o)
 .text.UARTFIFOTrigLvlGranControl
                0x00000000       0x88 ../../../../../..//binary/armv7a/gcc/am335x/drivers/Debug/libdrivers.a(uart_irda_cir.o)
 .text.UARTDSRInterruptControl
                0x00000000       0x60 ../../../../../..//binary/armv7a/gcc/am335x/drivers/Debug/libdrivers.a(uart_irda_cir.o)
 .text.UARTTxEmptyIntControl
                0x00000000       0x60 ../../../../../..//binary/armv7a/gcc/am335x/drivers/Debug/libdrivers.a(uart_irda_cir.o)
 .text.UARTRXCTSDSRWakeUpConfigure
                0x00000000       0x60 ../../../../../..//binary/armv7a/gcc/am335x/drivers/Debug/libdrivers.a(uart_irda_cir.o)
 .text.UARTRXCTSDSRTransitionStatusGet
                0x00000000       0x30 ../../../../../..//binary/armv7a/gcc/am335x/drivers/Debug/libdrivers.a(uart_irda_cir.o)
 .text.UARTDMACounterResetControl
                0x00000000       0x60 ../../../../../..//binary/armv7a/gcc/am335x/drivers/Debug/libdrivers.a(uart_irda_cir.o)
 .text.UARTTxFIFOFullStatusGet
                0x00000000       0x30 ../../../../../..//binary/armv7a/gcc/am335x/drivers/Debug/libdrivers.a(uart_irda_cir.o)
 .text.UARTTxFIFOLevelGet
                0x00000000       0x2c ../../../../../..//binary/armv7a/gcc/am335x/drivers/Debug/libdrivers.a(uart_irda_cir.o)
 .text.UARTRxFIFOLevelGet
                0x00000000       0x2c ../../../../../..//binary/armv7a/gcc/am335x/drivers/Debug/libdrivers.a(uart_irda_cir.o)
 .text.UARTAutobaudParityGet
                0x00000000       0x6c ../../../../../..//binary/armv7a/gcc/am335x/drivers/Debug/libdrivers.a(uart_irda_cir.o)
 .text.UARTAutobaudWordLenGet
                0x00000000       0x6c ../../../../../..//binary/armv7a/gcc/am335x/drivers/Debug/libdrivers.a(uart_irda_cir.o)
 .text.UARTAutobaudSpeedGet
                0x00000000       0x6c ../../../../../..//binary/armv7a/gcc/am335x/drivers/Debug/libdrivers.a(uart_irda_cir.o)
 .text.UARTScratchPadRegWrite
                0x00000000       0x60 ../../../../../..//binary/armv7a/gcc/am335x/drivers/Debug/libdrivers.a(uart_irda_cir.o)
 .text.UARTScratchPadRegRead
                0x00000000       0x30 ../../../../../..//binary/armv7a/gcc/am335x/drivers/Debug/libdrivers.a(uart_irda_cir.o)
 .text.UARTModuleVersionNumberGet
                0x00000000       0x30 ../../../../../..//binary/armv7a/gcc/am335x/drivers/Debug/libdrivers.a(uart_irda_cir.o)
 .text.UARTTxDMAThresholdControl
                0x00000000       0x60 ../../../../../..//binary/armv7a/gcc/am335x/drivers/Debug/libdrivers.a(uart_irda_cir.o)
 .text.UARTTxDMAThresholdValConfig
                0x00000000       0x60 ../../../../../..//binary/armv7a/gcc/am335x/drivers/Debug/libdrivers.a(uart_irda_cir.o)
 .text          0x00000000        0x0 ../../../../../..//binary/armv7a/gcc/utils/Debug/libutils.a(ascii.o)
 .data          0x00000000        0x0 ../../../../../..//binary/armv7a/gcc/utils/Debug/libutils.a(ascii.o)
 .bss           0x00000000        0x0 ../../../../../..//binary/armv7a/gcc/utils/Debug/libutils.a(ascii.o)
 .text.StrToEthrAddr
                0x00000000      0x184 ../../../../../..//binary/armv7a/gcc/utils/Debug/libutils.a(ascii.o)
 .text.EthrAddrToStr
                0x00000000      0x180 ../../../../../..//binary/armv7a/gcc/utils/Debug/libutils.a(ascii.o)
 .text          0x00000000        0x0 ../../../../../..//binary/armv7a/gcc/utils/Debug/libutils.a(board.o)
 .data          0x00000000        0x0 ../../../../../..//binary/armv7a/gcc/utils/Debug/libutils.a(board.o)
 .bss           0x00000000        0x0 ../../../../../..//binary/armv7a/gcc/utils/Debug/libutils.a(board.o)
 .text.BoardIdGet
                0x00000000       0x24 ../../../../../..//binary/armv7a/gcc/utils/Debug/libutils.a(board.o)
 .text          0x00000000        0x0 ../../../../../..//binary/armv7a/gcc/utils/Debug/libutils.a(cmdline.o)
 .data          0x00000000        0x0 ../../../../../..//binary/armv7a/gcc/utils/Debug/libutils.a(cmdline.o)
 .bss           0x00000000        0x0 ../../../../../..//binary/armv7a/gcc/utils/Debug/libutils.a(cmdline.o)
 .text          0x00000000        0x0 ../../../../../..//binary/armv7a/gcc/utils/Debug/libutils.a(consoleUtils.o)
 .data          0x00000000        0x0 ../../../../../..//binary/armv7a/gcc/utils/Debug/libutils.a(consoleUtils.o)
 .bss           0x00000000        0x0 ../../../../../..//binary/armv7a/gcc/utils/Debug/libutils.a(consoleUtils.o)
 .text.ConsoleUtilsGets
                0x00000000       0x74 ../../../../../..//binary/armv7a/gcc/utils/Debug/libutils.a(consoleUtils.o)
 .text.ConsoleUtilsPuts
                0x00000000       0x60 ../../../../../..//binary/armv7a/gcc/utils/Debug/libutils.a(consoleUtils.o)
 .text.ConsoleUtilsGetChar
                0x00000000       0xa8 ../../../../../..//binary/armv7a/gcc/utils/Debug/libutils.a(consoleUtils.o)
 .text.ConsoleUtilsPutChar
                0x00000000       0x60 ../../../../../..//binary/armv7a/gcc/utils/Debug/libutils.a(consoleUtils.o)
 .text          0x00000000        0x0 ../../../../../..//binary/armv7a/gcc/utils/Debug/libutils.a(delay.o)
 .data          0x00000000        0x0 ../../../../../..//binary/armv7a/gcc/utils/Debug/libutils.a(delay.o)
 .bss           0x00000000        0x0 ../../../../../..//binary/armv7a/gcc/utils/Debug/libutils.a(delay.o)
 .text.StartTimer
                0x00000000       0x28 ../../../../../..//binary/armv7a/gcc/utils/Debug/libutils.a(delay.o)
 .text.StopTimer
                0x00000000       0x18 ../../../../../..//binary/armv7a/gcc/utils/Debug/libutils.a(delay.o)
 .text.IsTimerElapsed
                0x00000000       0x20 ../../../../../..//binary/armv7a/gcc/utils/Debug/libutils.a(delay.o)
 .text          0x00000000        0x0 ../../../../../..//binary/armv7a/gcc/utils/Debug/libutils.a(uartStdio.o)
 .data          0x00000000        0x0 ../../../../../..//binary/armv7a/gcc/utils/Debug/libutils.a(uartStdio.o)
 .bss           0x00000000        0x0 ../../../../../..//binary/armv7a/gcc/utils/Debug/libutils.a(uartStdio.o)
 .text.UARTGets
                0x00000000       0xdc ../../../../../..//binary/armv7a/gcc/utils/Debug/libutils.a(uartStdio.o)
 .text.UARTPutNum
                0x00000000      0x178 ../../../../../..//binary/armv7a/gcc/utils/Debug/libutils.a(uartStdio.o)
 .text.UARTPutHexNum
                0x00000000      0x198 ../../../../../..//binary/armv7a/gcc/utils/Debug/libutils.a(uartStdio.o)
 .text.UARTGetNum
                0x00000000      0x118 ../../../../../..//binary/armv7a/gcc/utils/Debug/libutils.a(uartStdio.o)
 .text.UARTGetHexNum
                0x00000000      0x2ec ../../../../../..//binary/armv7a/gcc/utils/Debug/libutils.a(uartStdio.o)
 .text.UARTprintf
                0x00000000      0x6b8 ../../../../../..//binary/armv7a/gcc/utils/Debug/libutils.a(uartStdio.o)
 .text          0x00000000        0x0 ../../../../../..//binary/armv7a/gcc/am335x/beaglebone/platform/Debug/libplatform.a(board.o)
 .data          0x00000000        0x0 ../../../../../..//binary/armv7a/gcc/am335x/beaglebone/platform/Debug/libplatform.a(board.o)
 .bss           0x00000000        0x0 ../../../../../..//binary/armv7a/gcc/am335x/beaglebone/platform/Debug/libplatform.a(board.o)
 .text          0x00000000        0x0 ../../../../../..//binary/armv7a/gcc/am335x/beaglebone/platform/Debug/libplatform.a(cpsw.o)
 .data          0x00000000        0x0 ../../../../../..//binary/armv7a/gcc/am335x/beaglebone/platform/Debug/libplatform.a(cpsw.o)
 .bss           0x00000000        0x0 ../../../../../..//binary/armv7a/gcc/am335x/beaglebone/platform/Debug/libplatform.a(cpsw.o)
 .text.CPSWPinMuxSetup
                0x00000000      0x124 ../../../../../..//binary/armv7a/gcc/am335x/beaglebone/platform/Debug/libplatform.a(cpsw.o)
 .text.CPSWClkEnable
                0x00000000       0x6c ../../../../../..//binary/armv7a/gcc/am335x/beaglebone/platform/Debug/libplatform.a(cpsw.o)
 .text          0x00000000        0x0 ../../../../../..//binary/armv7a/gcc/am335x/beaglebone/platform/Debug/libplatform.a(ctlregcontext.o)
 .data          0x00000000        0x0 ../../../../../..//binary/armv7a/gcc/am335x/beaglebone/platform/Debug/libplatform.a(ctlregcontext.o)
 .bss           0x00000000        0x0 ../../../../../..//binary/armv7a/gcc/am335x/beaglebone/platform/Debug/libplatform.a(ctlregcontext.o)
 .text          0x00000000        0x0 ../../../../../..//binary/armv7a/gcc/am335x/beaglebone/platform/Debug/libplatform.a(dmtimer.o)
 .data          0x00000000        0x0 ../../../../../..//binary/armv7a/gcc/am335x/beaglebone/platform/Debug/libplatform.a(dmtimer.o)
 .bss           0x00000000        0x0 ../../../../../..//binary/armv7a/gcc/am335x/beaglebone/platform/Debug/libplatform.a(dmtimer.o)
 .text.DMTimer3ModuleClkConfig
                0x00000000      0x260 ../../../../../..//binary/armv7a/gcc/am335x/beaglebone/platform/Debug/libplatform.a(dmtimer.o)
 .text.DMTimer4ModuleClkConfig
                0x00000000      0x268 ../../../../../..//binary/armv7a/gcc/am335x/beaglebone/platform/Debug/libplatform.a(dmtimer.o)
 .text          0x00000000        0x0 ../../../../../..//binary/armv7a/gcc/am335x/beaglebone/platform/Debug/libplatform.a(edma.o)
 .data          0x00000000        0x0 ../../../../../..//binary/armv7a/gcc/am335x/beaglebone/platform/Debug/libplatform.a(edma.o)
 .bss           0x00000000        0x0 ../../../../../..//binary/armv7a/gcc/am335x/beaglebone/platform/Debug/libplatform.a(edma.o)
 .text.EDMA3CrossBarChannelMap
                0x00000000      0x12c ../../../../../..//binary/armv7a/gcc/am335x/beaglebone/platform/Debug/libplatform.a(edma.o)
 .text          0x00000000        0x0 ../../../../../..//binary/armv7a/gcc/am335x/beaglebone/platform/Debug/libplatform.a(eeprom.o)
 .data          0x00000000        0x0 ../../../../../..//binary/armv7a/gcc/am335x/beaglebone/platform/Debug/libplatform.a(eeprom.o)
 .bss           0x00000000        0x0 ../../../../../..//binary/armv7a/gcc/am335x/beaglebone/platform/Debug/libplatform.a(eeprom.o)
 .text          0x00000000        0x0 ../../../../../..//binary/armv7a/gcc/am335x/beaglebone/platform/Debug/libplatform.a(gpio.o)
 .data          0x00000000        0x0 ../../../../../..//binary/armv7a/gcc/am335x/beaglebone/platform/Debug/libplatform.a(gpio.o)
 .bss           0x00000000        0x0 ../../../../../..//binary/armv7a/gcc/am335x/beaglebone/platform/Debug/libplatform.a(gpio.o)
 .text.GPIO1PinMuxSetup
                0x00000000       0x38 ../../../../../..//binary/armv7a/gcc/am335x/beaglebone/platform/Debug/libplatform.a(gpio.o)
 .text          0x00000000        0x0 ../../../../../..//binary/armv7a/gcc/am335x/beaglebone/platform/Debug/libplatform.a(hs_mmcsd.o)
 .data          0x00000000        0x0 ../../../../../..//binary/armv7a/gcc/am335x/beaglebone/platform/Debug/libplatform.a(hs_mmcsd.o)
 .bss           0x00000000        0x0 ../../../../../..//binary/armv7a/gcc/am335x/beaglebone/platform/Debug/libplatform.a(hs_mmcsd.o)
 .text.HSMMCSDPinMuxSetup
                0x00000000       0x84 ../../../../../..//binary/armv7a/gcc/am335x/beaglebone/platform/Debug/libplatform.a(hs_mmcsd.o)
 .text          0x00000000        0x0 ../../../../../..//binary/armv7a/gcc/am335x/beaglebone/platform/Debug/libplatform.a(hsi2c.o)
 .data          0x00000000        0x0 ../../../../../..//binary/armv7a/gcc/am335x/beaglebone/platform/Debug/libplatform.a(hsi2c.o)
 .bss           0x00000000        0x0 ../../../../../..//binary/armv7a/gcc/am335x/beaglebone/platform/Debug/libplatform.a(hsi2c.o)
 .text.I2CPinMuxSetup
                0x00000000       0x78 ../../../../../..//binary/armv7a/gcc/am335x/beaglebone/platform/Debug/libplatform.a(hsi2c.o)
 .text.I2C1ModuleClkConfig
                0x00000000      0x24c ../../../../../..//binary/armv7a/gcc/am335x/beaglebone/platform/Debug/libplatform.a(hsi2c.o)
 .text          0x00000000        0x0 ../../../../../..//binary/armv7a/gcc/am335x/beaglebone/platform/Debug/libplatform.a(rtc.o)
 .data          0x00000000        0x0 ../../../../../..//binary/armv7a/gcc/am335x/beaglebone/platform/Debug/libplatform.a(rtc.o)
 .bss           0x00000000        0x0 ../../../../../..//binary/armv7a/gcc/am335x/beaglebone/platform/Debug/libplatform.a(rtc.o)
 .text.RTCModuleClkConfig
                0x00000000      0x3b0 ../../../../../..//binary/armv7a/gcc/am335x/beaglebone/platform/Debug/libplatform.a(rtc.o)
 .text          0x00000000        0x0 ../../../../../..//binary/armv7a/gcc/am335x/beaglebone/platform/Debug/libplatform.a(sysdelay.o)
 .data          0x00000000        0x0 ../../../../../..//binary/armv7a/gcc/am335x/beaglebone/platform/Debug/libplatform.a(sysdelay.o)
 .bss           0x00000000        0x0 ../../../../../..//binary/armv7a/gcc/am335x/beaglebone/platform/Debug/libplatform.a(sysdelay.o)
 .text.SysStartTimer
                0x00000000       0x80 ../../../../../..//binary/armv7a/gcc/am335x/beaglebone/platform/Debug/libplatform.a(sysdelay.o)
 .text.SysStopTimer
                0x00000000       0x38 ../../../../../..//binary/armv7a/gcc/am335x/beaglebone/platform/Debug/libplatform.a(sysdelay.o)
 .text.SysIsTimerElapsed
                0x00000000       0x24 ../../../../../..//binary/armv7a/gcc/am335x/beaglebone/platform/Debug/libplatform.a(sysdelay.o)
 .text          0x00000000        0x0 ../../../../../..//binary/armv7a/gcc/am335x/beaglebone/platform/Debug/libplatform.a(uartConsole.o)
 .data          0x00000000        0x0 ../../../../../..//binary/armv7a/gcc/am335x/beaglebone/platform/Debug/libplatform.a(uartConsole.o)
 .bss           0x00000000        0x0 ../../../../../..//binary/armv7a/gcc/am335x/beaglebone/platform/Debug/libplatform.a(uartConsole.o)
 .text          0x00000000        0x0 ../../../../../..//binary/armv7a/gcc/am335x/beaglebone/platform/Debug/libplatform.a(uart.o)
 .data          0x00000000        0x0 ../../../../../..//binary/armv7a/gcc/am335x/beaglebone/platform/Debug/libplatform.a(uart.o)
 .bss           0x00000000        0x0 ../../../../../..//binary/armv7a/gcc/am335x/beaglebone/platform/Debug/libplatform.a(uart.o)
 .text          0x00000000        0x0 ../../../../../..//binary/armv7a/gcc/mmcsdlib/Debug/libmmcsd.a(hs_mmcsdlib.o)
 .data          0x00000000        0x0 ../../../../../..//binary/armv7a/gcc/mmcsdlib/Debug/libmmcsd.a(hs_mmcsdlib.o)
 .bss           0x00000000        0x0 ../../../../../..//binary/armv7a/gcc/mmcsdlib/Debug/libmmcsd.a(hs_mmcsdlib.o)
 .text          0x00000000        0x0 ../../../../../..//binary/armv7a/gcc/mmcsdlib/Debug/libmmcsd.a(mmcsd_proto.o)
 .data          0x00000000        0x0 ../../../../../..//binary/armv7a/gcc/mmcsdlib/Debug/libmmcsd.a(mmcsd_proto.o)
 .bss           0x00000000        0x0 ../../../../../..//binary/armv7a/gcc/mmcsdlib/Debug/libmmcsd.a(mmcsd_proto.o)
 .text.MMCSDCardPresent
                0x00000000       0x30 ../../../../../..//binary/armv7a/gcc/mmcsdlib/Debug/libmmcsd.a(mmcsd_proto.o)
 .text          0x00000000        0x0 ../../../../../..//binary/armv7a/gcc/am335x/system_config/Debug/libsystem_config.a(cache.o)
 .data          0x00000000        0x0 ../../../../../..//binary/armv7a/gcc/am335x/system_config/Debug/libsystem_config.a(cache.o)
 .bss           0x00000000        0x0 ../../../../../..//binary/armv7a/gcc/am335x/system_config/Debug/libsystem_config.a(cache.o)
 .text.CacheInstInvalidateAll
                0x00000000       0x18 ../../../../../..//binary/armv7a/gcc/am335x/system_config/Debug/libsystem_config.a(cache.o)
 .text.CacheInstInvalidateBuff
                0x00000000       0x30 ../../../../../..//binary/armv7a/gcc/am335x/system_config/Debug/libsystem_config.a(cache.o)
 .text.CacheDataCleanInvalidateAll
                0x00000000       0x18 ../../../../../..//binary/armv7a/gcc/am335x/system_config/Debug/libsystem_config.a(cache.o)
 .text.CacheDataCleanAll
                0x00000000       0x18 ../../../../../..//binary/armv7a/gcc/am335x/system_config/Debug/libsystem_config.a(cache.o)
 .text.CacheDataInvalidateAll
                0x00000000       0x18 ../../../../../..//binary/armv7a/gcc/am335x/system_config/Debug/libsystem_config.a(cache.o)
 .text.CacheDataCleanInvalidateBuff
                0x00000000       0x30 ../../../../../..//binary/armv7a/gcc/am335x/system_config/Debug/libsystem_config.a(cache.o)
 .text          0x00000000        0x0 ../../../../../..//binary/armv7a/gcc/am335x/system_config/Debug/libsystem_config.a(clock.o)
 .data          0x00000000        0x0 ../../../../../..//binary/armv7a/gcc/am335x/system_config/Debug/libsystem_config.a(clock.o)
 .bss           0x00000000        0x0 ../../../../../..//binary/armv7a/gcc/am335x/system_config/Debug/libsystem_config.a(clock.o)
 .text.enableADPLLLowPowerMode
                0x00000000       0x48 ../../../../../..//binary/armv7a/gcc/am335x/system_config/Debug/libsystem_config.a(clock.o)
 .text.disableClockDomain
                0x00000000       0xb0 ../../../../../..//binary/armv7a/gcc/am335x/system_config/Debug/libsystem_config.a(clock.o)
 .text.getGclockGateState
                0x00000000       0x5c ../../../../../..//binary/armv7a/gcc/am335x/system_config/Debug/libsystem_config.a(clock.o)
 .text.getADPLLIdleStatus
                0x00000000       0x5c ../../../../../..//binary/armv7a/gcc/am335x/system_config/Debug/libsystem_config.a(clock.o)
 .text.getDividerClkGateStatus
                0x00000000       0x6c ../../../../../..//binary/armv7a/gcc/am335x/system_config/Debug/libsystem_config.a(clock.o)
 .text.deviceClockDisable
                0x00000000       0xa8 ../../../../../..//binary/armv7a/gcc/am335x/system_config/Debug/libsystem_config.a(clock.o)
 .text.clkdomainGateStatus
                0x00000000       0x60 ../../../../../..//binary/armv7a/gcc/am335x/system_config/Debug/libsystem_config.a(clock.o)
 .text.deviceClockGateStatus
                0x00000000       0xa4 ../../../../../..//binary/armv7a/gcc/am335x/system_config/Debug/libsystem_config.a(clock.o)
 .text.deviceClockEnable
                0x00000000       0x70 ../../../../../..//binary/armv7a/gcc/am335x/system_config/Debug/libsystem_config.a(clock.o)
 .data          0x00000000        0x0 ../../../../../..//binary/armv7a/gcc/am335x/system_config/Debug/libsystem_config.a(cp15.o)
 .bss           0x00000000        0x0 ../../../../../..//binary/armv7a/gcc/am335x/system_config/Debug/libsystem_config.a(cp15.o)
 .text          0x00000000        0x0 ../../../../../..//binary/armv7a/gcc/am335x/system_config/Debug/libsystem_config.a(device.o)
 .data          0x00000000        0x0 ../../../../../..//binary/armv7a/gcc/am335x/system_config/Debug/libsystem_config.a(device.o)
 .bss           0x00000000        0x0 ../../../../../..//binary/armv7a/gcc/am335x/system_config/Debug/libsystem_config.a(device.o)
 .text.SysConfigOppDataGet
                0x00000000       0x2c ../../../../../..//binary/armv7a/gcc/am335x/system_config/Debug/libsystem_config.a(device.o)
 .data          0x00000000        0x0 ../../../../../..//binary/armv7a/gcc/am335x/system_config/Debug/libsystem_config.a(init.o)
 .bss           0x00000000        0x0 ../../../../../..//binary/armv7a/gcc/am335x/system_config/Debug/libsystem_config.a(init.o)
 .text          0x00000000        0x0 ../../../../../..//binary/armv7a/gcc/am335x/system_config/Debug/libsystem_config.a(interrupt.o)
 .data          0x00000000        0x0 ../../../../../..//binary/armv7a/gcc/am335x/system_config/Debug/libsystem_config.a(interrupt.o)
 .bss           0x00000000        0x0 ../../../../../..//binary/armv7a/gcc/am335x/system_config/Debug/libsystem_config.a(interrupt.o)
 .text.IntUnRegister
                0x00000000       0x34 ../../../../../..//binary/armv7a/gcc/am335x/system_config/Debug/libsystem_config.a(interrupt.o)
 .text.IntSystemDisable
                0x00000000       0x4c ../../../../../..//binary/armv7a/gcc/am335x/system_config/Debug/libsystem_config.a(interrupt.o)
 .text.IntIfClkFreeRunSet
                0x00000000       0x30 ../../../../../..//binary/armv7a/gcc/am335x/system_config/Debug/libsystem_config.a(interrupt.o)
 .text.IntIfClkAutoGateSet
                0x00000000       0x30 ../../../../../..//binary/armv7a/gcc/am335x/system_config/Debug/libsystem_config.a(interrupt.o)
 .text.IntActiveIrqNumGet
                0x00000000       0x28 ../../../../../..//binary/armv7a/gcc/am335x/system_config/Debug/libsystem_config.a(interrupt.o)
 .text.IntSpurIrqFlagGet
                0x00000000       0x28 ../../../../../..//binary/armv7a/gcc/am335x/system_config/Debug/libsystem_config.a(interrupt.o)
 .text.IntProtectionEnable
                0x00000000       0x24 ../../../../../..//binary/armv7a/gcc/am335x/system_config/Debug/libsystem_config.a(interrupt.o)
 .text.IntProtectionDisable
                0x00000000       0x30 ../../../../../..//binary/armv7a/gcc/am335x/system_config/Debug/libsystem_config.a(interrupt.o)
 .text.IntSyncClkFreeRunSet
                0x00000000       0x30 ../../../../../..//binary/armv7a/gcc/am335x/system_config/Debug/libsystem_config.a(interrupt.o)
 .text.IntSyncClkAutoGateSet
                0x00000000       0x30 ../../../../../..//binary/armv7a/gcc/am335x/system_config/Debug/libsystem_config.a(interrupt.o)
 .text.IntFuncClkFreeRunSet
                0x00000000       0x30 ../../../../../..//binary/armv7a/gcc/am335x/system_config/Debug/libsystem_config.a(interrupt.o)
 .text.IntFuncClkAutoGateSet
                0x00000000       0x30 ../../../../../..//binary/armv7a/gcc/am335x/system_config/Debug/libsystem_config.a(interrupt.o)
 .text.IntCurrIrqPriorityGet
                0x00000000       0x28 ../../../../../..//binary/armv7a/gcc/am335x/system_config/Debug/libsystem_config.a(interrupt.o)
 .text.IntPriorityThresholdGet
                0x00000000       0x28 ../../../../../..//binary/armv7a/gcc/am335x/system_config/Debug/libsystem_config.a(interrupt.o)
 .text.IntPriorityThresholdSet
                0x00000000       0x30 ../../../../../..//binary/armv7a/gcc/am335x/system_config/Debug/libsystem_config.a(interrupt.o)
 .text.IntRawStatusGet
                0x00000000       0x5c ../../../../../..//binary/armv7a/gcc/am335x/system_config/Debug/libsystem_config.a(interrupt.o)
 .text.IntSoftwareIntSet
                0x00000000       0x48 ../../../../../..//binary/armv7a/gcc/am335x/system_config/Debug/libsystem_config.a(interrupt.o)
 .text.IntSoftwareIntClear
                0x00000000       0x48 ../../../../../..//binary/armv7a/gcc/am335x/system_config/Debug/libsystem_config.a(interrupt.o)
 .text.IntPendingIrqMaskedStatusGet
                0x00000000       0x58 ../../../../../..//binary/armv7a/gcc/am335x/system_config/Debug/libsystem_config.a(interrupt.o)
 .text.IntMasterFIQEnable
                0x00000000       0x18 ../../../../../..//binary/armv7a/gcc/am335x/system_config/Debug/libsystem_config.a(interrupt.o)
 .text.IntMasterFIQDisable
                0x00000000       0x18 ../../../../../..//binary/armv7a/gcc/am335x/system_config/Debug/libsystem_config.a(interrupt.o)
 .text.IntDisable
                0x00000000       0x3c ../../../../../..//binary/armv7a/gcc/am335x/system_config/Debug/libsystem_config.a(interrupt.o)
 .text.IntEnable
                0x00000000       0x38 ../../../../../..//binary/armv7a/gcc/am335x/system_config/Debug/libsystem_config.a(interrupt.o)
 .text          0x00000000        0x0 ../../../../../..//binary/armv7a/gcc/am335x/system_config/Debug/libsystem_config.a(mmu.o)
 .data          0x00000000        0x0 ../../../../../..//binary/armv7a/gcc/am335x/system_config/Debug/libsystem_config.a(mmu.o)
 .bss           0x00000000        0x0 ../../../../../..//binary/armv7a/gcc/am335x/system_config/Debug/libsystem_config.a(mmu.o)
 .text          0x00000000        0x0 ../../../../../..//binary/armv7a/gcc/am335x/system_config/Debug/libsystem_config.a(startup.o)
 .data          0x00000000        0x0 ../../../../../..//binary/armv7a/gcc/am335x/system_config/Debug/libsystem_config.a(startup.o)
 .bss           0x00000000        0x0 ../../../../../..//binary/armv7a/gcc/am335x/system_config/Debug/libsystem_config.a(startup.o)
 .text          0x00000000        0x0 ../../../../../..//binary/armv7a/gcc/am335x/system_config/Debug/libsystem_config.a(cpu.o)
 .data          0x00000000        0x0 ../../../../../..//binary/armv7a/gcc/am335x/system_config/Debug/libsystem_config.a(cpu.o)
 .bss           0x00000000        0x0 ../../../../../..//binary/armv7a/gcc/am335x/system_config/Debug/libsystem_config.a(cpu.o)
 .text.CPUSwitchToPrivilegedMode
                0x00000000       0x18 ../../../../../..//binary/armv7a/gcc/am335x/system_config/Debug/libsystem_config.a(cpu.o)
 .text.CPUSwitchToUserMode
                0x00000000       0x24 ../../../../../..//binary/armv7a/gcc/am335x/system_config/Debug/libsystem_config.a(cpu.o)
 .text.CPUAbortHandler
                0x00000000       0x14 ../../../../../..//binary/armv7a/gcc/am335x/system_config/Debug/libsystem_config.a(cpu.o)
 .text.CPUfiqd  0x00000000       0x24 ../../../../../..//binary/armv7a/gcc/am335x/system_config/Debug/libsystem_config.a(cpu.o)
 .text.CPUfiqe  0x00000000       0x24 ../../../../../..//binary/armv7a/gcc/am335x/system_config/Debug/libsystem_config.a(cpu.o)
 .data          0x00000000        0x0 ../../../../../..//binary/armv7a/gcc/am335x/system_config/Debug/libsystem_config.a(exceptionhandler.o)
 .bss           0x00000000        0x0 ../../../../../..//binary/armv7a/gcc/am335x/system_config/Debug/libsystem_config.a(exceptionhandler.o)
 .text          0x00000000        0x0 /home/sungjae/gcc-arm-none-eabi-4_7-2012q4//arm-none-eabi/lib//libc.a(lib_a-memcmp.o)
 .data          0x00000000        0x0 /home/sungjae/gcc-arm-none-eabi-4_7-2012q4//arm-none-eabi/lib//libc.a(lib_a-memcmp.o)
 .bss           0x00000000        0x0 /home/sungjae/gcc-arm-none-eabi-4_7-2012q4//arm-none-eabi/lib//libc.a(lib_a-memcmp.o)
 .text          0x00000000        0x0 /home/sungjae/gcc-arm-none-eabi-4_7-2012q4//arm-none-eabi/lib//libc.a(lib_a-memcpy.o)
 .data          0x00000000        0x0 /home/sungjae/gcc-arm-none-eabi-4_7-2012q4//arm-none-eabi/lib//libc.a(lib_a-memcpy.o)
 .bss           0x00000000        0x0 /home/sungjae/gcc-arm-none-eabi-4_7-2012q4//arm-none-eabi/lib//libc.a(lib_a-memcpy.o)
 .text          0x00000000        0x0 /home/sungjae/gcc-arm-none-eabi-4_7-2012q4//arm-none-eabi/lib//libc.a(lib_a-memset.o)
 .data          0x00000000        0x0 /home/sungjae/gcc-arm-none-eabi-4_7-2012q4//arm-none-eabi/lib//libc.a(lib_a-memset.o)
 .bss           0x00000000        0x0 /home/sungjae/gcc-arm-none-eabi-4_7-2012q4//arm-none-eabi/lib//libc.a(lib_a-memset.o)
 .text          0x00000000        0x0 /home/sungjae/gcc-arm-none-eabi-4_7-2012q4//arm-none-eabi/lib//libc.a(lib_a-strcat.o)
 .data          0x00000000        0x0 /home/sungjae/gcc-arm-none-eabi-4_7-2012q4//arm-none-eabi/lib//libc.a(lib_a-strcat.o)
 .bss           0x00000000        0x0 /home/sungjae/gcc-arm-none-eabi-4_7-2012q4//arm-none-eabi/lib//libc.a(lib_a-strcat.o)
 .text          0x00000000        0x0 /home/sungjae/gcc-arm-none-eabi-4_7-2012q4//arm-none-eabi/lib//libc.a(lib_a-strchr.o)
 .data          0x00000000        0x0 /home/sungjae/gcc-arm-none-eabi-4_7-2012q4//arm-none-eabi/lib//libc.a(lib_a-strchr.o)
 .bss           0x00000000        0x0 /home/sungjae/gcc-arm-none-eabi-4_7-2012q4//arm-none-eabi/lib//libc.a(lib_a-strchr.o)
 .text          0x00000000        0x0 /home/sungjae/gcc-arm-none-eabi-4_7-2012q4//arm-none-eabi/lib//libc.a(lib_a-strcmp.o)
 .data          0x00000000        0x0 /home/sungjae/gcc-arm-none-eabi-4_7-2012q4//arm-none-eabi/lib//libc.a(lib_a-strcmp.o)
 .bss           0x00000000        0x0 /home/sungjae/gcc-arm-none-eabi-4_7-2012q4//arm-none-eabi/lib//libc.a(lib_a-strcmp.o)
 .text          0x00000000        0x0 /home/sungjae/gcc-arm-none-eabi-4_7-2012q4//arm-none-eabi/lib//libc.a(lib_a-strcpy.o)
 .data          0x00000000        0x0 /home/sungjae/gcc-arm-none-eabi-4_7-2012q4//arm-none-eabi/lib//libc.a(lib_a-strcpy.o)
 .bss           0x00000000        0x0 /home/sungjae/gcc-arm-none-eabi-4_7-2012q4//arm-none-eabi/lib//libc.a(lib_a-strcpy.o)
 .text          0x00000000        0x0 /home/sungjae/gcc-arm-none-eabi-4_7-2012q4//arm-none-eabi/lib//libc.a(lib_a-strlen.o)
 .data          0x00000000        0x0 /home/sungjae/gcc-arm-none-eabi-4_7-2012q4//arm-none-eabi/lib//libc.a(lib_a-strlen.o)
 .bss           0x00000000        0x0 /home/sungjae/gcc-arm-none-eabi-4_7-2012q4//arm-none-eabi/lib//libc.a(lib_a-strlen.o)
 .text          0x00000000        0x0 /home/sungjae/gcc-arm-none-eabi-4_7-2012q4//arm-none-eabi/lib//libc.a(lib_a-strncmp.o)
 .data          0x00000000        0x0 /home/sungjae/gcc-arm-none-eabi-4_7-2012q4//arm-none-eabi/lib//libc.a(lib_a-strncmp.o)
 .bss           0x00000000        0x0 /home/sungjae/gcc-arm-none-eabi-4_7-2012q4//arm-none-eabi/lib//libc.a(lib_a-strncmp.o)
 .text          0x00000000        0x0 /home/sungjae/gcc-arm-none-eabi-4_7-2012q4//arm-none-eabi/lib//libc.a(lib_a-strncpy.o)
 .data          0x00000000        0x0 /home/sungjae/gcc-arm-none-eabi-4_7-2012q4//arm-none-eabi/lib//libc.a(lib_a-strncpy.o)
 .bss           0x00000000        0x0 /home/sungjae/gcc-arm-none-eabi-4_7-2012q4//arm-none-eabi/lib//libc.a(lib_a-strncpy.o)
 .data          0x00000000        0x0 /home/sungjae/gcc-arm-none-eabi-4_7-2012q4//lib/gcc/arm-none-eabi/4.7.3//libgcc.a(_udivsi3.o)
 .bss           0x00000000        0x0 /home/sungjae/gcc-arm-none-eabi-4_7-2012q4//lib/gcc/arm-none-eabi/4.7.3//libgcc.a(_udivsi3.o)
 .data          0x00000000        0x0 /home/sungjae/gcc-arm-none-eabi-4_7-2012q4//lib/gcc/arm-none-eabi/4.7.3//libgcc.a(_divsi3.o)
 .bss           0x00000000        0x0 /home/sungjae/gcc-arm-none-eabi-4_7-2012q4//lib/gcc/arm-none-eabi/4.7.3//libgcc.a(_divsi3.o)
 .data          0x00000000        0x0 /home/sungjae/gcc-arm-none-eabi-4_7-2012q4//lib/gcc/arm-none-eabi/4.7.3//libgcc.a(_dvmd_tls.o)
 .bss           0x00000000        0x0 /home/sungjae/gcc-arm-none-eabi-4_7-2012q4//lib/gcc/arm-none-eabi/4.7.3//libgcc.a(_dvmd_tls.o)

Memory Configuration

Name             Origin             Length             Attributes
OCMC             0x40300000         0x0000ffff
DDR0             0x80000000         0x10000000
*default*        0x00000000         0xffffffff

Linker script and memory map

LOAD Debug/am335x_clock_data.o
LOAD Debug/cm3wkup_proxy.o
LOAD Debug/demoDvfs.o
LOAD Debug/demoEnet.o
LOAD Debug/demoGpio.o
LOAD Debug/demoI2c.o
LOAD Debug/demoLedIf.o
LOAD Debug/demoMain.o
LOAD Debug/demoPwrMgmnt.o
LOAD Debug/demoRtc.o
LOAD Debug/demoSdFs.o
LOAD Debug/demoSdRw.o
LOAD Debug/demoTimer.o
LOAD Debug/demoUart.o
LOAD Debug/fat_mmcsd.o
LOAD Debug/ff.o
LOAD Debug/httpd_io.o
LOAD Debug/lwiplib.o
LOAD Debug/pmic.o
LOAD Debug/slpWkup_gcc.o
LOAD ../../../../../..//binary/armv7a/gcc/am335x/drivers/Debug/libdrivers.a
LOAD ../../../../../..//binary/armv7a/gcc/utils/Debug/libutils.a
LOAD ../../../../../..//binary/armv7a/gcc/am335x/beaglebone/platform/Debug/libplatform.a
LOAD ../../../../../..//binary/armv7a/gcc/mmcsdlib/Debug/libmmcsd.a
LOAD ../../../../../..//binary/armv7a/gcc/am335x/system_config/Debug/libsystem_config.a
LOAD /home/sungjae/gcc-arm-none-eabi-4_7-2012q4//arm-none-eabi/lib//libc.a
LOAD /home/sungjae/gcc-arm-none-eabi-4_7-2012q4//lib/gcc/arm-none-eabi/4.7.3//libgcc.a
LOAD ../../../../../..//binary/armv7a/gcc/am335x/drivers/Debug/libdrivers.a
LOAD ../../../../../..//binary/armv7a/gcc/utils/Debug/libutils.a
LOAD ../../../../../..//binary/armv7a/gcc/am335x/beaglebone/platform/Debug/libplatform.a
LOAD ../../../../../..//binary/armv7a/gcc/mmcsdlib/Debug/libmmcsd.a
LOAD ../../../../../..//binary/armv7a/gcc/am335x/system_config/Debug/libsystem_config.a
LOAD /home/sungjae/gcc-arm-none-eabi-4_7-2012q4//arm-none-eabi/lib//libc.a
LOAD /home/sungjae/gcc-arm-none-eabi-4_7-2012q4//lib/gcc/arm-none-eabi/4.7.3//libgcc.a

.startcode      0x80000000       0xb4
                0x80000000                . = ALIGN (0x4)
 *init.o(.text)
 .text          0x80000000       0xb4 ../../../../../..//binary/armv7a/gcc/am335x/system_config/Debug/libsystem_config.a(init.o)
                0x80000000                Entry

.text           0x800000b4    0x4dec4
                0x800000b4                . = ALIGN (0x4)
 *(.text*)
 .text.configIPCRegs
                0x800000b4       0x8c Debug/cm3wkup_proxy.o
                0x800000b4                configIPCRegs
 .text.readCmdStatus
                0x80000140       0x2c Debug/cm3wkup_proxy.o
                0x80000140                readCmdStatus
 .text.readCM3FWVersion
                0x8000016c       0x28 Debug/cm3wkup_proxy.o
                0x8000016c                readCM3FWVersion
 .text.CM3EventsClear
                0x80000194       0x4c Debug/cm3wkup_proxy.o
                0x80000194                CM3EventsClear
 .text.CM3Isr   0x800001e0       0x28 Debug/cm3wkup_proxy.o
 .text.CM3IntRegister
                0x80000208       0x24 Debug/cm3wkup_proxy.o
                0x80000208                CM3IntRegister
 .text.CM3LoadAndRun
                0x8000022c       0x5c Debug/cm3wkup_proxy.o
                0x8000022c                CM3LoadAndRun
 .text.waitForM3Txevent
                0x80000288       0xa4 Debug/cm3wkup_proxy.o
                0x80000288                waitForM3Txevent
 .text.initializeMailbox
                0x8000032c       0x80 Debug/cm3wkup_proxy.o
                0x8000032c                initializeMailbox
 .text.MailBoxInit
                0x800003ac       0x20 Debug/cm3wkup_proxy.o
                0x800003ac                MailBoxInit
 .text.generateMailboxInt
                0x800003cc       0x34 Debug/cm3wkup_proxy.o
                0x800003cc                generateMailboxInt
 .text.clearMailboxMsg
                0x80000400       0x50 Debug/cm3wkup_proxy.o
                0x80000400                clearMailboxMsg
 .text.syncCm3  0x80000450       0x38 Debug/cm3wkup_proxy.o
                0x80000450                syncCm3
 .text.VddVoltageGet
                0x80000488       0xdc Debug/demoDvfs.o
                0x80000488                VddVoltageGet
 .text.FrequencyGet
                0x80000564       0xdc Debug/demoDvfs.o
                0x80000564                FrequencyGet
 .text.ConfigMinimumOPP
                0x80000640       0x90 Debug/demoDvfs.o
                0x80000640                ConfigMinimumOPP
 .text.ConfigMaximumOPP
                0x800006d0       0x90 Debug/demoDvfs.o
                0x800006d0                ConfigMaximumOPP
 .text.DemoMpuPllConfig
                0x80000760      0x140 Debug/demoDvfs.o
                0x80000760                DemoMpuPllConfig
 .text.PrintConfigDVFS
                0x800008a0      0x124 Debug/demoDvfs.o
                0x800008a0                PrintConfigDVFS
 .text.EnetIntRegister
                0x800009c4       0x6c Debug/demoEnet.o
                0x800009c4                EnetIntRegister
 .text.EnetIfIsUp
                0x80000a30       0x28 Debug/demoEnet.o
                0x80000a30                EnetIfIsUp
 .text.EnetLinkIsUp
                0x80000a58       0x28 Debug/demoEnet.o
                0x80000a58                EnetLinkIsUp
 .text.EnetHttpServerInit
                0x80000a80      0x124 Debug/demoEnet.o
                0x80000a80                EnetHttpServerInit
 .text.ControlCGIHandler
                0x80000ba4      0x1c0 Debug/demoEnet.o
 .text.IpAddrDisplay
                0x80000d64       0x78 Debug/demoEnet.o
                0x80000d64                IpAddrDisplay
 .text.CPSWCore0RxIsr
                0x80000ddc       0x1c Debug/demoEnet.o
 .text.CPSWCore0TxIsr
                0x80000df8       0x1c Debug/demoEnet.o
 .text.EnetDHCPRestart
                0x80000e14      0x104 Debug/demoEnet.o
                0x80000e14                EnetDHCPRestart
 .text.EnetContextSave
                0x80000f18       0xf0 Debug/demoEnet.o
                0x80000f18                EnetContextSave
 .text.EnetReset
                0x80001008       0x70 Debug/demoEnet.o
                0x80001008                EnetReset
 .text._DemoGpioPinConfig
                0x80001078      0x174 Debug/demoGpio.o
                0x80001078                _DemoGpioPinConfig
 .text.gpioStdbyUartIsr
                0x800011ec       0x28 Debug/demoGpio.o
                0x800011ec                gpioStdbyUartIsr
 .text.DemoGpioPinStandbySrcConfig
                0x80001214       0xf8 Debug/demoGpio.o
                0x80001214                DemoGpioPinStandbySrcConfig
 .text.getI2CAddr
                0x8000130c       0x6c Debug/demoI2c.o
                0x8000130c                getI2CAddr
 .text.cleanupInterrupts
                0x80001378       0x68 Debug/demoI2c.o
                0x80001378                cleanupInterrupts
 .text.I2CInit  0x800013e0       0xcc Debug/demoI2c.o
                0x800013e0                I2CInit
 .text.I2CIntRegister
                0x800014ac       0x3c Debug/demoI2c.o
                0x800014ac                I2CIntRegister
 .text.I2C0Isr  0x800014e8      0x230 Debug/demoI2c.o
                0x800014e8                I2C0Isr
 .text.SetupI2CTransmit
                0x80001718      0x144 Debug/demoI2c.o
                0x80001718                SetupI2CTransmit
 .text.SetupReception
                0x8000185c      0x1e0 Debug/demoI2c.o
                0x8000185c                SetupReception
 .text.LedIfConfig
                0x80001a3c       0x50 Debug/demoLedIf.o
                0x80001a3c                LedIfConfig
 .text.LedToggle
                0x80001a8c       0x54 Debug/demoLedIf.o
                0x80001a8c                LedToggle
 .text.LedOff   0x80001ae0       0x28 Debug/demoLedIf.o
                0x80001ae0                LedOff
 .text.LedOn    0x80001b08       0x28 Debug/demoLedIf.o
                0x80001b08                LedOn
 .text.MMUConfigAndEnable
                0x80001b30       0xd8 Debug/demoMain.o
 .text.UpdateUartConsoleHelp
                0x80001c08       0xe4 Debug/demoMain.o
                0x80001c08                UpdateUartConsoleHelp
 .text.UartAction
                0x80001cec       0xe8 Debug/demoMain.o
 .text.PeripheralsSetUp
                0x80001dd4       0x4c Debug/demoMain.o
 .text.ContextReset
                0x80001e20       0x58 Debug/demoMain.o
 .text.ClickAction
                0x80001e78       0x68 Debug/demoMain.o
 .text.main     0x80001ee0      0x848 Debug/demoMain.o
                0x80001ee0                main
 .text.ActionEnetInit
                0x80002728      0x124 Debug/demoMain.o
 .text.ActionMenu
                0x8000284c       0x90 Debug/demoMain.o
 .text.ActionMenuWeb
                0x800028dc       0x90 Debug/demoMain.o
 .text.ActionMenuMMCSD
                0x8000296c       0x74 Debug/demoMain.o
 .text.ActionMenuRTC
                0x800029e0       0x74 Debug/demoMain.o
 .text.ActionMenuTimer
                0x80002a54       0x84 Debug/demoMain.o
 .text.ActionMenuGPIO
                0x80002ad8       0x80 Debug/demoMain.o
 .text.ActionMenuPM
                0x80002b58       0x80 Debug/demoMain.o
 .text.ActionRTC
                0x80002bd8       0x34 Debug/demoMain.o
 .text.ActionMMCSD
                0x80002c0c       0xe4 Debug/demoMain.o
 .text.ActionDeepSleep1
                0x80002cf0       0x54 Debug/demoMain.o
 .text.ActionStandBy
                0x80002d44       0x54 Debug/demoMain.o
 .text.ActionDeepSleep0
                0x80002d98       0x54 Debug/demoMain.o
 .text.ActionWakeOnTimer
                0x80002dec       0x3c Debug/demoMain.o
 .text.ActionWakeOnUart
                0x80002e28       0x3c Debug/demoMain.o
 .text.dummyIsr
                0x80002e64       0x14 Debug/demoMain.o
 .text.uartIsr  0x80002e78       0x54 Debug/demoMain.o
 .text.gpioIsr  0x80002ecc       0x34 Debug/demoMain.o
 .text.PeripheralsHalt
                0x80002f00      0x108 Debug/demoPwrMgmnt.o
 .text.PeripheralsResume
                0x80003008       0xa0 Debug/demoPwrMgmnt.o
 .text.PeripheralsContextSave
                0x800030a8      0x174 Debug/demoPwrMgmnt.o
 .text.HSMMCSDModuleDisable
                0x8000321c       0x4c Debug/demoPwrMgmnt.o
 .text.PeripheralsContextRestore
                0x80003268      0x1bc Debug/demoPwrMgmnt.o
 .text.ConfigIdleMode
                0x80003424      0x240 Debug/demoPwrMgmnt.o
                0x80003424                ConfigIdleMode
 .text.ModuleListConfig
                0x80003664       0xa4 Debug/demoPwrMgmnt.o
 .text.enableStandbyWakeSrc
                0x80003708      0x1b4 Debug/demoPwrMgmnt.o
                0x80003708                enableStandbyWakeSrc
 .text.disableStandbyWakeSrc
                0x800038bc       0x78 Debug/demoPwrMgmnt.o
                0x800038bc                disableStandbyWakeSrc
 .text.enableWakeSource
                0x80003934       0xd8 Debug/demoPwrMgmnt.o
                0x80003934                enableWakeSource
 .text.disableWakeSource
                0x80003a0c       0xc0 Debug/demoPwrMgmnt.o
                0x80003a0c                disableWakeSource
 .text.PowerDownConfig
                0x80003acc      0x1bc Debug/demoPwrMgmnt.o
 .text.PowerSaveModeEnter
                0x80003c88      0x3bc Debug/demoPwrMgmnt.o
                0x80003c88                PowerSaveModeEnter
 .text.RtcIntRegister
                0x80004044       0x24 Debug/demoRtc.o
                0x80004044                RtcIntRegister
 .text.RtcSecIntEnable
                0x80004068       0x24 Debug/demoRtc.o
                0x80004068                RtcSecIntEnable
 .text.RtcInit  0x8000408c       0x64 Debug/demoRtc.o
                0x8000408c                RtcInit
 .text.RtcTimeCalSet
                0x800040f0      0x5f4 Debug/demoRtc.o
                0x800040f0                RtcTimeCalSet
 .text.RtcTimeCalDisplay
                0x800046e4      0x1d0 Debug/demoRtc.o
                0x800046e4                RtcTimeCalDisplay
 .text.RTCIsr   0x800048b4       0x24 Debug/demoRtc.o
 .text.ReadLine
                0x800048d8      0x384 Debug/demoSdFs.o
                0x800048d8                ReadLine
 .text.StringFromFresult
                0x80004c5c       0x90 Debug/demoSdFs.o
                0x80004c5c                StringFromFresult
 .text.Cmd_ls   0x80004cec      0x320 Debug/demoSdFs.o
                0x80004cec                Cmd_ls
 .text.Cmd_cd   0x8000500c      0x2cc Debug/demoSdFs.o
                0x8000500c                Cmd_cd
 .text.Cmd_pwd  0x800052d8       0x40 Debug/demoSdFs.o
                0x800052d8                Cmd_pwd
 .text.Cmd_exit
                0x80005318       0x28 Debug/demoSdFs.o
                0x80005318                Cmd_exit
 .text.Cmd_cat  0x80005340      0x218 Debug/demoSdFs.o
                0x80005340                Cmd_cat
 .text.Cmd_help
                0x80005558       0xa4 Debug/demoSdFs.o
                0x80005558                Cmd_help
 .text.HSMMCSDFsMount
                0x800055fc       0xf8 Debug/demoSdFs.o
                0x800055fc                HSMMCSDFsMount
 .text.HSMMCSDFsProcessCmdLine
                0x800056f4      0x160 Debug/demoSdFs.o
                0x800056f4                HSMMCSDFsProcessCmdLine
 .text.HSMMCSDCmdStatusGet
                0x80005854       0xb0 Debug/demoSdRw.o
 .text.HSMMCSDXferStatusGet
                0x80005904      0x104 Debug/demoSdRw.o
 .text.HSMMCSDRxDmaConfig
                0x80005a08      0x10c Debug/demoSdRw.o
 .text.HSMMCSDTxDmaConfig
                0x80005b14      0x10c Debug/demoSdRw.o
 .text.HSMMCSDXferSetup
                0x80005c20       0xb0 Debug/demoSdRw.o
 .text.callback
                0x80005cd0       0x44 Debug/demoSdRw.o
 .text.Edma3CompletionIsr
                0x80005d14      0x10c Debug/demoSdRw.o
 .text.Edma3CCErrorIsr
                0x80005e20      0x240 Debug/demoSdRw.o
 .text.HSMMCSDIsr
                0x80006060      0x110 Debug/demoSdRw.o
 .text.HSMMCSDIntRegister
                0x80006170       0x54 Debug/demoSdRw.o
                0x80006170                HSMMCSDIntRegister
 .text.HSMMCSDEdmaInit
                0x800061c4       0x98 Debug/demoSdRw.o
 .text.HSMMCSDControllerSetup
                0x8000625c      0x1d0 Debug/demoSdRw.o
 .text.HSMMCSDContolInit
                0x8000642c       0x24 Debug/demoSdRw.o
                0x8000642c                HSMMCSDContolInit
 .text.HSMMCSDCardPresentStat
                0x80006450       0x3c Debug/demoSdRw.o
                0x80006450                HSMMCSDCardPresentStat
 .text.HSMMCSDCardAccessSetup
                0x8000648c       0x58 Debug/demoSdRw.o
                0x8000648c                HSMMCSDCardAccessSetup
 .text.Timer2IntRegister
                0x800064e4       0x24 Debug/demoTimer.o
                0x800064e4                Timer2IntRegister
 .text.Timer2Config
                0x80006508       0x5c Debug/demoTimer.o
                0x80006508                Timer2Config
 .text.Timer2IntEnable
                0x80006564       0x24 Debug/demoTimer.o
                0x80006564                Timer2IntEnable
 .text.Timer2Start
                0x80006588       0x20 Debug/demoTimer.o
                0x80006588                Timer2Start
 .text.Timer2Stop
                0x800065a8       0x20 Debug/demoTimer.o
                0x800065a8                Timer2Stop
 .text.Timer2Isr
                0x800065c8       0xd4 Debug/demoTimer.o
 .text.Timer4IntRegister
                0x8000669c       0x4c Debug/demoTimer.o
                0x8000669c                Timer4IntRegister
 .text.Timer4Config
                0x800066e8       0x60 Debug/demoTimer.o
                0x800066e8                Timer4Config
 .text.Timer4IntEnable
                0x80006748       0x24 Debug/demoTimer.o
                0x80006748                Timer4IntEnable
 .text.Timer4Start
                0x8000676c       0x20 Debug/demoTimer.o
                0x8000676c                Timer4Start
 .text.Timer4Stop
                0x8000678c       0x20 Debug/demoTimer.o
                0x8000678c                Timer4Stop
 .text.Timer4Isr
                0x800067ac       0x34 Debug/demoTimer.o
 .text.Timer6IntRegister
                0x800067e0       0x4c Debug/demoTimer.o
                0x800067e0                Timer6IntRegister
 .text.Timer6Config
                0x8000682c       0x70 Debug/demoTimer.o
                0x8000682c                Timer6Config
 .text.Timer6IntEnable
                0x8000689c       0x24 Debug/demoTimer.o
                0x8000689c                Timer6IntEnable
 .text.Timer6Start
                0x800068c0       0x20 Debug/demoTimer.o
                0x800068c0                Timer6Start
 .text.Timer6Stop
                0x800068e0       0x20 Debug/demoTimer.o
                0x800068e0                Timer6Stop
 .text.Timer6Isr
                0x80006900       0x38 Debug/demoTimer.o
 .text.initializeTimer1
                0x80006938       0x4c Debug/demoTimer.o
                0x80006938                initializeTimer1
 .text.setTimerCount
                0x80006984       0x3c Debug/demoTimer.o
                0x80006984                setTimerCount
 .text.clearTimerInt
                0x800069c0       0x24 Debug/demoTimer.o
                0x800069c0                clearTimerInt
 .text.enableUartWakeup
                0x800069e4       0x54 Debug/demoUart.o
                0x800069e4                enableUartWakeup
 .text.disableUartWakeup
                0x80006a38       0x54 Debug/demoUart.o
                0x80006a38                disableUartWakeup
 .text.disk_initialize
                0x80006a8c      0x158 Debug/fat_mmcsd.o
                0x80006a8c                disk_initialize
 .text.disk_status
                0x80006be4       0x28 Debug/fat_mmcsd.o
                0x80006be4                disk_status
 .text.disk_read
                0x80006c0c       0x9c Debug/fat_mmcsd.o
                0x80006c0c                disk_read
 .text.disk_write
                0x80006ca8       0x9c Debug/fat_mmcsd.o
                0x80006ca8                disk_write
 .text.disk_ioctl
                0x80006d44       0x34 Debug/fat_mmcsd.o
                0x80006d44                disk_ioctl
 .text.get_fattime
                0x80006d78       0x20 Debug/fat_mmcsd.o
                0x80006d78                get_fattime
 .text.move_window
                0x80006d98      0x17c Debug/ff.o
 .text.sync     0x80006f14       0x88 Debug/ff.o
 .text.get_cluster
                0x80006f9c      0x354 Debug/ff.o
 .text.put_cluster
                0x800072f0      0x3dc Debug/ff.o
 .text.remove_chain
                0x800076cc       0xcc Debug/ff.o
 .text.create_chain
                0x80007798      0x1f0 Debug/ff.o
 .text.clust2sect
                0x80007988       0x6c Debug/ff.o
 .text.next_dir_entry
                0x800079f4      0x134 Debug/ff.o
 .text.get_fileinfo
                0x80007b28      0x280 Debug/ff.o
 .text.make_dirfile
                0x80007da8      0x30c Debug/ff.o
 .text.trace_path
                0x800080b4      0x318 Debug/ff.o
 .text.reserve_direntry
                0x800083cc      0x280 Debug/ff.o
 .text.check_fs
                0x8000864c      0x128 Debug/ff.o
 .text.auto_mount
                0x80008774      0x618 Debug/ff.o
 .text.validate
                0x80008d8c       0x80 Debug/ff.o
 .text.f_mount  0x80008e0c       0xac Debug/ff.o
                0x80008e0c                f_mount
 .text.f_open   0x80008eb8      0x5b8 Debug/ff.o
                0x80008eb8                f_open
 .text.f_read   0x80009470      0x454 Debug/ff.o
                0x80009470                f_read
 .text.f_sync   0x800098c4      0x2d8 Debug/ff.o
                0x800098c4                f_sync
 .text.f_close  0x80009b9c       0x50 Debug/ff.o
                0x80009b9c                f_close
 .text.f_opendir
                0x80009bec      0x17c Debug/ff.o
                0x80009bec                f_opendir
 .text.f_readdir
                0x80009d68      0x170 Debug/ff.o
                0x80009d68                f_readdir
 .text.f_getfree
                0x80009ed8      0x2a0 Debug/ff.o
                0x80009ed8                f_getfree
 .text.fs_malloc
                0x8000a178       0xcc Debug/httpd_io.o
 .text.fs_free  0x8000a244       0xac Debug/httpd_io.o
 .text.fs_open  0x8000a2f0       0xf8 Debug/httpd_io.o
                0x8000a2f0                fs_open
 .text.fs_close
                0x8000a3e8       0x28 Debug/httpd_io.o
                0x8000a3e8                fs_close
 .text.fs_bytes_left
                0x8000a410       0x34 Debug/httpd_io.o
                0x8000a410                fs_bytes_left
 .text.strnstr  0x8000a444       0xe4 Debug/httpd_io.o
 .text.http_state_alloc
                0x8000a528       0x54 Debug/httpd_io.o
 .text.http_state_free
                0x8000a57c       0x68 Debug/httpd_io.o
 .text.http_write
                0x8000a5e4       0xc8 Debug/httpd_io.o
 .text.http_close_conn
                0x8000a6ac       0xd4 Debug/httpd_io.o
 .text.extract_uri_parameters
                0x8000a780      0x174 Debug/httpd_io.o
 .text.http_send_data
                0x8000a8f4      0x26c Debug/httpd_io.o
 .text.http_get_404_file
                0x8000ab60       0xd4 Debug/httpd_io.o
 .text.http_parse_request
                0x8000ac34      0x214 Debug/httpd_io.o
 .text.http_find_file
                0x8000ae48      0x2b4 Debug/httpd_io.o
 .text.http_init_file
                0x8000b0fc      0x154 Debug/httpd_io.o
 .text.http_err
                0x8000b250       0x44 Debug/httpd_io.o
 .text.http_sent
                0x8000b294       0x6c Debug/httpd_io.o
 .text.http_poll
                0x8000b300       0xe8 Debug/httpd_io.o
 .text.http_recv
                0x8000b3e8      0x170 Debug/httpd_io.o
 .text.http_accept
                0x8000b558       0xe8 Debug/httpd_io.o
 .text.httpd_init_addr
                0x8000b640       0xa0 Debug/httpd_io.o
 .text.httpd_init
                0x8000b6e0       0x20 Debug/httpd_io.o
                0x8000b6e0                httpd_init
 .text.http_set_cgi_handlers
                0x8000b700       0x40 Debug/httpd_io.o
                0x8000b700                http_set_cgi_handlers
 .text.lwip_htons
                0x8000b740       0x4c Debug/lwiplib.o
                0x8000b740                lwip_htons
 .text.lwip_ntohs
                0x8000b78c       0x38 Debug/lwiplib.o
                0x8000b78c                lwip_ntohs
 .text.lwip_htonl
                0x8000b7c4       0x54 Debug/lwiplib.o
                0x8000b7c4                lwip_htonl
 .text.lwip_ntohl
                0x8000b818       0x30 Debug/lwiplib.o
                0x8000b818                lwip_ntohl
 .text.tcp_timer_needed
                0x8000b848       0x14 Debug/lwiplib.o
                0x8000b848                tcp_timer_needed
 .text.dhcp_handle_nak
                0x8000b85c       0xa0 Debug/lwiplib.o
 .text.dhcp_handle_offer
                0x8000b8fc       0x84 Debug/lwiplib.o
 .text.dhcp_select
                0x8000b980      0x298 Debug/lwiplib.o
 .text.dhcp_handle_ack
                0x8000bc18      0x188 Debug/lwiplib.o
 .text.dhcp_start
                0x8000bda0      0x230 Debug/lwiplib.o
                0x8000bda0                dhcp_start
 .text.dhcp_discover
                0x8000bfd0      0x21c Debug/lwiplib.o
 .text.dhcp_bind
                0x8000c1ec      0x238 Debug/lwiplib.o
 .text.dhcp_stop
                0x8000c424       0x9c Debug/lwiplib.o
                0x8000c424                dhcp_stop
 .text.dhcp_set_state
                0x8000c4c0       0x5c Debug/lwiplib.o
 .text.dhcp_option
                0x8000c51c       0x9c Debug/lwiplib.o
 .text.dhcp_option_byte
                0x8000c5b8       0x5c Debug/lwiplib.o
 .text.dhcp_option_short
                0x8000c614       0xa4 Debug/lwiplib.o
 .text.dhcp_option_long
                0x8000c6b8      0x124 Debug/lwiplib.o
 .text.dhcp_parse_reply
                0x8000c7dc      0x608 Debug/lwiplib.o
 .text.dhcp_recv
                0x8000cde4      0x2a0 Debug/lwiplib.o
 .text.dhcp_create_msg
                0x8000d084      0x43c Debug/lwiplib.o
 .text.dhcp_delete_msg
                0x8000d4c0       0x64 Debug/lwiplib.o
 .text.dhcp_option_trailer
                0x8000d524       0xc0 Debug/lwiplib.o
 .text.lwip_init
                0x8000d5e4       0x3c Debug/lwiplib.o
                0x8000d5e4                lwip_init
 .text.plug_holes
                0x8000d620      0x17c Debug/lwiplib.o
 .text.mem_init
                0x8000d79c       0xec Debug/lwiplib.o
                0x8000d79c                mem_init
 .text.mem_free
                0x8000d888      0x14c Debug/lwiplib.o
                0x8000d888                mem_free
 .text.mem_trim
                0x8000d9d4      0x378 Debug/lwiplib.o
                0x8000d9d4                mem_trim
 .text.mem_malloc
                0x8000dd4c      0x37c Debug/lwiplib.o
                0x8000dd4c                mem_malloc
 .text.memp_init
                0x8000e0c8      0x1b4 Debug/lwiplib.o
                0x8000e0c8                memp_init
 .text.memp_malloc
                0x8000e27c      0x1c4 Debug/lwiplib.o
                0x8000e27c                memp_malloc
 .text.memp_free
                0x8000e440       0xd8 Debug/lwiplib.o
                0x8000e440                memp_free
 .text.netif_init
                0x8000e518       0x14 Debug/lwiplib.o
                0x8000e518                netif_init
 .text.netif_add
                0x8000e52c      0x10c Debug/lwiplib.o
                0x8000e52c                netif_add
 .text.netif_set_addr
                0x8000e638       0x60 Debug/lwiplib.o
                0x8000e638                netif_set_addr
 .text.netif_set_ipaddr
                0x8000e698      0x148 Debug/lwiplib.o
                0x8000e698                netif_set_ipaddr
 .text.netif_set_gw
                0x8000e7e0       0x44 Debug/lwiplib.o
                0x8000e7e0                netif_set_gw
 .text.netif_set_netmask
                0x8000e824       0x44 Debug/lwiplib.o
                0x8000e824                netif_set_netmask
 .text.netif_set_default
                0x8000e868       0x2c Debug/lwiplib.o
                0x8000e868                netif_set_default
 .text.netif_set_up
                0x8000e894       0x88 Debug/lwiplib.o
                0x8000e894                netif_set_up
 .text.netif_set_down
                0x8000e91c       0x48 Debug/lwiplib.o
                0x8000e91c                netif_set_down
 .text.pbuf_alloc
                0x8000e964      0x38c Debug/lwiplib.o
                0x8000e964                pbuf_alloc
 .text.pbuf_realloc
                0x8000ecf0      0x194 Debug/lwiplib.o
                0x8000ecf0                pbuf_realloc
 .text.pbuf_header
                0x8000ee84      0x1a0 Debug/lwiplib.o
                0x8000ee84                pbuf_header
 .text.pbuf_free
                0x8000f024      0x16c Debug/lwiplib.o
                0x8000f024                pbuf_free
 .text.pbuf_clen
                0x8000f190       0x54 Debug/lwiplib.o
                0x8000f190                pbuf_clen
 .text.pbuf_ref
                0x8000f1e4       0x64 Debug/lwiplib.o
                0x8000f1e4                pbuf_ref
 .text.pbuf_cat
                0x8000f248       0xac Debug/lwiplib.o
                0x8000f248                pbuf_cat
 .text.pbuf_chain
                0x8000f2f4       0x40 Debug/lwiplib.o
                0x8000f2f4                pbuf_chain
 .text.pbuf_copy
                0x8000f334      0x1fc Debug/lwiplib.o
                0x8000f334                pbuf_copy
 .text.pbuf_copy_partial
                0x8000f530      0x188 Debug/lwiplib.o
                0x8000f530                pbuf_copy_partial
 .text.raw_input
                0x8000f6b8      0x170 Debug/lwiplib.o
                0x8000f6b8                raw_input
 .text.stats_init
                0x8000f828       0x14 Debug/lwiplib.o
                0x8000f828                stats_init
 .text.tcp_close_shutdown
                0x8000f83c      0x468 Debug/lwiplib.o
 .text.tcp_close
                0x8000fca4       0x5c Debug/lwiplib.o
                0x8000fca4                tcp_close
 .text.tcp_abandon
                0x8000fd00      0x1b4 Debug/lwiplib.o
                0x8000fd00                tcp_abandon
 .text.tcp_abort
                0x8000feb4       0x2c Debug/lwiplib.o
                0x8000feb4                tcp_abort
 .text.tcp_bind
                0x8000fee0      0x1a0 Debug/lwiplib.o
                0x8000fee0                tcp_bind
 .text.tcp_accept_null
                0x80010080       0x34 Debug/lwiplib.o
 .text.tcp_listen_with_backlog
                0x800100b4      0x240 Debug/lwiplib.o
                0x800100b4                tcp_listen_with_backlog
 .text.tcp_update_rcv_ann_wnd
                0x800102f4       0xf4 Debug/lwiplib.o
                0x800102f4                tcp_update_rcv_ann_wnd
 .text.tcp_recved
                0x800103e8       0xac Debug/lwiplib.o
                0x800103e8                tcp_recved
 .text.tcp_new_port
                0x80010494       0xf0 Debug/lwiplib.o
 .text.tcp_segs_free
                0x80010584       0x4c Debug/lwiplib.o
                0x80010584                tcp_segs_free
 .text.tcp_seg_free
                0x800105d0       0x60 Debug/lwiplib.o
                0x800105d0                tcp_seg_free
 .text.tcp_setprio
                0x80010630       0x30 Debug/lwiplib.o
                0x80010630                tcp_setprio
 .text.tcp_seg_copy
                0x80010660       0x78 Debug/lwiplib.o
                0x80010660                tcp_seg_copy
 .text.tcp_recv_null
                0x800106d8       0x90 Debug/lwiplib.o
                0x800106d8                tcp_recv_null
 .text.tcp_kill_prio
                0x80010768       0xf8 Debug/lwiplib.o
 .text.tcp_kill_timewait
                0x80010860       0xb4 Debug/lwiplib.o
 .text.tcp_alloc
                0x80010914      0x23c Debug/lwiplib.o
                0x80010914                tcp_alloc
 .text.tcp_new  0x80010b50       0x24 Debug/lwiplib.o
                0x80010b50                tcp_new
 .text.tcp_arg  0x80010b74       0x2c Debug/lwiplib.o
                0x80010b74                tcp_arg
 .text.tcp_recv
                0x80010ba0       0x2c Debug/lwiplib.o
                0x80010ba0                tcp_recv
 .text.tcp_sent
                0x80010bcc       0x2c Debug/lwiplib.o
                0x80010bcc                tcp_sent
 .text.tcp_err  0x80010bf8       0x2c Debug/lwiplib.o
                0x80010bf8                tcp_err
 .text.tcp_accept
                0x80010c24       0x2c Debug/lwiplib.o
                0x80010c24                tcp_accept
 .text.tcp_poll
                0x80010c50       0x40 Debug/lwiplib.o
                0x80010c50                tcp_poll
 .text.tcp_pcb_purge
                0x80010c90      0x104 Debug/lwiplib.o
                0x80010c90                tcp_pcb_purge
 .text.tcp_pcb_remove
                0x80010d94      0x158 Debug/lwiplib.o
                0x80010d94                tcp_pcb_remove
 .text.tcp_next_iss
                0x80010eec       0x4c Debug/lwiplib.o
                0x80010eec                tcp_next_iss
 .text.tcp_eff_send_mss
                0x80010f38       0x7c Debug/lwiplib.o
                0x80010f38                tcp_eff_send_mss
 .text.tcp_input
                0x80010fb4      0xe40 Debug/lwiplib.o
                0x80010fb4                tcp_input
 .text.tcp_listen_input
                0x80011df4      0x300 Debug/lwiplib.o
 .text.tcp_timewait_input
                0x800120f4      0x1a0 Debug/lwiplib.o
 .text.tcp_process
                0x80012294      0xd20 Debug/lwiplib.o
 .text.tcp_oos_insert_segment
                0x80012fb4      0x1e0 Debug/lwiplib.o
 .text.tcp_receive
                0x80013194     0x1bfc Debug/lwiplib.o
 .text.tcp_parseopt
                0x80014d90      0x208 Debug/lwiplib.o
 .text.tcp_output_alloc_header
                0x80014f98      0x1a8 Debug/lwiplib.o
 .text.tcp_send_fin
                0x80015140       0xe4 Debug/lwiplib.o
                0x80015140                tcp_send_fin
 .text.tcp_create_segment
                0x80015224      0x22c Debug/lwiplib.o
 .text.tcp_pbuf_prealloc
                0x80015450      0x12c Debug/lwiplib.o
 .text.tcp_write_checks
                0x8001557c      0x158 Debug/lwiplib.o
 .text.tcp_write
                0x800156d4      0x864 Debug/lwiplib.o
                0x800156d4                tcp_write
 .text.tcp_enqueue_flags
                0x80015f38      0x34c Debug/lwiplib.o
                0x80015f38                tcp_enqueue_flags
 .text.tcp_send_empty_ack
                0x80016284      0x130 Debug/lwiplib.o
                0x80016284                tcp_send_empty_ack
 .text.tcp_output
                0x800163b4      0x598 Debug/lwiplib.o
                0x800163b4                tcp_output
 .text.tcp_output_segment
                0x8001694c      0x2d0 Debug/lwiplib.o
 .text.tcp_rst  0x80016c1c      0x1dc Debug/lwiplib.o
                0x80016c1c                tcp_rst
 .text.tcp_rexmit
                0x80016df8      0x108 Debug/lwiplib.o
                0x80016df8                tcp_rexmit
 .text.tcp_rexmit_fast
                0x80016f00      0x118 Debug/lwiplib.o
                0x80016f00                tcp_rexmit_fast
 .text.udp_input
                0x80017018      0x6ac Debug/lwiplib.o
                0x80017018                udp_input
 .text.udp_sendto_if
                0x800176c4      0x300 Debug/lwiplib.o
                0x800176c4                udp_sendto_if
 .text.udp_bind
                0x800179c4      0x1e8 Debug/lwiplib.o
                0x800179c4                udp_bind
 .text.udp_connect
                0x80017bac      0x130 Debug/lwiplib.o
                0x80017bac                udp_connect
 .text.udp_recv
                0x80017cdc       0x3c Debug/lwiplib.o
                0x80017cdc                udp_recv
 .text.udp_remove
                0x80017d18       0xc4 Debug/lwiplib.o
                0x80017d18                udp_remove
 .text.udp_new  0x80017ddc       0x60 Debug/lwiplib.o
                0x80017ddc                udp_new
 .text.icmp_input
                0x80017e3c      0x54c Debug/lwiplib.o
                0x80017e3c                icmp_input
 .text.icmp_dest_unreach
                0x80018388       0x3c Debug/lwiplib.o
                0x80018388                icmp_dest_unreach
 .text.icmp_send_response
                0x800183c4      0x180 Debug/lwiplib.o
 .text.lwip_standard_chksum
                0x80018544      0x16c Debug/lwiplib.o
 .text.inet_chksum_pseudo
                0x800186b0      0x228 Debug/lwiplib.o
                0x800186b0                inet_chksum_pseudo
 .text.inet_chksum
                0x800188d8       0x48 Debug/lwiplib.o
                0x800188d8                inet_chksum
 .text.inet_chksum_pbuf
                0x80018920      0x128 Debug/lwiplib.o
                0x80018920                inet_chksum_pbuf
 .text.ip_route
                0x80018a48       0xf4 Debug/lwiplib.o
                0x80018a48                ip_route
 .text.ip_input
                0x80018b3c      0x690 Debug/lwiplib.o
                0x80018b3c                ip_input
 .text.ip_output_if
                0x800191cc      0x354 Debug/lwiplib.o
                0x800191cc                ip_output_if
 .text.ip_output
                0x80019520       0xac Debug/lwiplib.o
                0x80019520                ip_output
 .text.ip4_addr_isbroadcast
                0x800195cc       0xdc Debug/lwiplib.o
                0x800195cc                ip4_addr_isbroadcast
 .text.free_entry
                0x800196a8       0x88 Debug/lwiplib.o
 .text.etharp_tmr
                0x80019730      0x13c Debug/lwiplib.o
                0x80019730                etharp_tmr
 .text.find_entry
                0x8001986c      0x370 Debug/lwiplib.o
 .text.etharp_send_ip
                0x80019bdc       0xa0 Debug/lwiplib.o
 .text.update_arp_entry
                0x80019c7c      0x1ac Debug/lwiplib.o
 .text.etharp_arp_input
                0x80019e28      0x3b4 Debug/lwiplib.o
 .text.etharp_output
                0x8001a1dc      0x2b0 Debug/lwiplib.o
                0x8001a1dc                etharp_output
 .text.etharp_query
                0x8001a48c      0x3e4 Debug/lwiplib.o
                0x8001a48c                etharp_query
 .text.etharp_raw
                0x8001a870      0x238 Debug/lwiplib.o
 .text.etharp_request
                0x8001aaa8       0x7c Debug/lwiplib.o
                0x8001aaa8                etharp_request
 .text.ethernet_input
                0x8001ab24      0x1cc Debug/lwiplib.o
                0x8001ab24                ethernet_input
 .text.sys_arch_protect
                0x8001acf0       0x3c Debug/lwiplib.o
                0x8001acf0                sys_arch_protect
 .text.sys_arch_unprotect
                0x8001ad2c       0x38 Debug/lwiplib.o
                0x8001ad2c                sys_arch_unprotect
 .text.cpswif_inst_config
                0x8001ad64      0x118 Debug/lwiplib.o
 .text.cpswif_ale_entry_match_free
                0x8001ae7c       0x98 Debug/lwiplib.o
 .text.cpswif_port_to_host_vlan_cfg
                0x8001af14      0x1c4 Debug/lwiplib.o
 .text.cpswif_autoneg_config
                0x8001b0d8      0x3c8 Debug/lwiplib.o
 .text.cpswif_rxbd_alloc
                0x8001b4a0      0x1dc Debug/lwiplib.o
 .text.cpswif_transmit
                0x8001b67c      0x280 Debug/lwiplib.o
 .text.cpswif_output
                0x8001b8fc       0xec Debug/lwiplib.o
 .text.cpswif_phylink_config
                0x8001b9e8      0x228 Debug/lwiplib.o
 .text.cpswif_port_init
                0x8001bc10      0x188 Debug/lwiplib.o
 .text.cpswif_cpdma_init
                0x8001bd98      0x1d0 Debug/lwiplib.o
 .text.cpswif_inst_init
                0x8001bf68      0x2a8 Debug/lwiplib.o
 .text.cpswif_init
                0x8001c210      0x124 Debug/lwiplib.o
                0x8001c210                cpswif_init
 .text.cpswif_rx_inthandler
                0x8001c334      0x228 Debug/lwiplib.o
                0x8001c334                cpswif_rx_inthandler
 .text.cpswif_tx_inthandler
                0x8001c55c      0x22c Debug/lwiplib.o
                0x8001c55c                cpswif_tx_inthandler
 .text.cpswif_netif_status
                0x8001c788       0x2c Debug/lwiplib.o
                0x8001c788                cpswif_netif_status
 .text.cpswif_link_status
                0x8001c7b4       0x84 Debug/lwiplib.o
                0x8001c7b4                cpswif_link_status
 .text.lwIPDHCPComplete
                0x8001c838      0x134 Debug/lwiplib.o
 .text.lwIPInit
                0x8001c96c      0x2fc Debug/lwiplib.o
                0x8001c96c                lwIPInit
 .text.lwIPNetIfStatusGet
                0x8001cc68       0x64 Debug/lwiplib.o
                0x8001cc68                lwIPNetIfStatusGet
 .text.lwIPLinkStatusGet
                0x8001cccc       0x38 Debug/lwiplib.o
                0x8001cccc                lwIPLinkStatusGet
 .text.lwIPRxIntHandler
                0x8001cd04       0x30 Debug/lwiplib.o
                0x8001cd04                lwIPRxIntHandler
 .text.lwIPTxIntHandler
                0x8001cd34       0x28 Debug/lwiplib.o
                0x8001cd34                lwIPTxIntHandler
 .text.lwIPDHCPStart
                0x8001cd5c       0x70 Debug/lwiplib.o
                0x8001cd5c                lwIPDHCPStart
 .text.TPS65217RegWrite
                0x8001cdcc      0x208 Debug/pmic.o
                0x8001cdcc                TPS65217RegWrite
 .text.TPS65217VoltageUpdate
                0x8001cfd4       0x64 Debug/pmic.o
                0x8001cfd4                TPS65217VoltageUpdate
 .text.configVddOpVoltage
                0x8001d038       0x78 Debug/pmic.o
                0x8001d038                configVddOpVoltage
 .text.setVdd1OpVoltage
                0x8001d0b0       0x4c Debug/pmic.o
                0x8001d0b0                setVdd1OpVoltage
 .text.CPSWSSReset
                0x8001d0fc       0x48 ../../../../../..//binary/armv7a/gcc/am335x/drivers/Debug/libdrivers.a(cpsw.o)
                0x8001d0fc                CPSWSSReset
 .text.CPSWSlTransferModeSet
                0x8001d144       0x5c ../../../../../..//binary/armv7a/gcc/am335x/drivers/Debug/libdrivers.a(cpsw.o)
                0x8001d144                CPSWSlTransferModeSet
 .text.CPSWSlReset
                0x8001d1a0       0x48 ../../../../../..//binary/armv7a/gcc/am335x/drivers/Debug/libdrivers.a(cpsw.o)
                0x8001d1a0                CPSWSlReset
 .text.CPSWSlRGMIIEnable
                0x8001d1e8       0x40 ../../../../../..//binary/armv7a/gcc/am335x/drivers/Debug/libdrivers.a(cpsw.o)
                0x8001d1e8                CPSWSlRGMIIEnable
 .text.CPSWWrReset
                0x8001d228       0x48 ../../../../../..//binary/armv7a/gcc/am335x/drivers/Debug/libdrivers.a(cpsw.o)
                0x8001d228                CPSWWrReset
 .text.CPSWWrControlRegReset
                0x8001d270       0x2c ../../../../../..//binary/armv7a/gcc/am335x/drivers/Debug/libdrivers.a(cpsw.o)
                0x8001d270                CPSWWrControlRegReset
 .text.CPSWWrCoreIntEnable
                0x8001d29c       0x78 ../../../../../..//binary/armv7a/gcc/am335x/drivers/Debug/libdrivers.a(cpsw.o)
                0x8001d29c                CPSWWrCoreIntEnable
 .text.CPSWALEInit
                0x8001d314       0x2c ../../../../../..//binary/armv7a/gcc/am335x/drivers/Debug/libdrivers.a(cpsw.o)
                0x8001d314                CPSWALEInit
 .text.CPSWALEPortStateSet
                0x8001d340       0x90 ../../../../../..//binary/armv7a/gcc/am335x/drivers/Debug/libdrivers.a(cpsw.o)
                0x8001d340                CPSWALEPortStateSet
 .text.CPSWALEVLANAwareSet
                0x8001d3d0       0x38 ../../../../../..//binary/armv7a/gcc/am335x/drivers/Debug/libdrivers.a(cpsw.o)
                0x8001d3d0                CPSWALEVLANAwareSet
 .text.CPSWALETableEntrySet
                0x8001d408       0x98 ../../../../../..//binary/armv7a/gcc/am335x/drivers/Debug/libdrivers.a(cpsw.o)
                0x8001d408                CPSWALETableEntrySet
 .text.CPSWALETableEntryGet
                0x8001d4a0       0x94 ../../../../../..//binary/armv7a/gcc/am335x/drivers/Debug/libdrivers.a(cpsw.o)
                0x8001d4a0                CPSWALETableEntryGet
 .text.CPSWStatisticsEnable
                0x8001d534       0x2c ../../../../../..//binary/armv7a/gcc/am335x/drivers/Debug/libdrivers.a(cpsw.o)
                0x8001d534                CPSWStatisticsEnable
 .text.CPSWPortSrcAddrSet
                0x8001d560       0xa4 ../../../../../..//binary/armv7a/gcc/am335x/drivers/Debug/libdrivers.a(cpsw.o)
                0x8001d560                CPSWPortSrcAddrSet
 .text.CPSWHostPortDualMacModeSet
                0x8001d604       0x54 ../../../../../..//binary/armv7a/gcc/am335x/drivers/Debug/libdrivers.a(cpsw.o)
                0x8001d604                CPSWHostPortDualMacModeSet
 .text.CPSWPortVLANConfig
                0x8001d658       0x50 ../../../../../..//binary/armv7a/gcc/am335x/drivers/Debug/libdrivers.a(cpsw.o)
                0x8001d658                CPSWPortVLANConfig
 .text.CPSWCPDMAReset
                0x8001d6a8       0xdc ../../../../../..//binary/armv7a/gcc/am335x/drivers/Debug/libdrivers.a(cpsw.o)
                0x8001d6a8                CPSWCPDMAReset
 .text.CPSWCPDMATxIntEnable
                0x8001d784       0x48 ../../../../../..//binary/armv7a/gcc/am335x/drivers/Debug/libdrivers.a(cpsw.o)
                0x8001d784                CPSWCPDMATxIntEnable
 .text.CPSWCPDMARxIntEnable
                0x8001d7cc       0x48 ../../../../../..//binary/armv7a/gcc/am335x/drivers/Debug/libdrivers.a(cpsw.o)
                0x8001d7cc                CPSWCPDMARxIntEnable
 .text.CPSWCPDMATxEnable
                0x8001d814       0x2c ../../../../../..//binary/armv7a/gcc/am335x/drivers/Debug/libdrivers.a(cpsw.o)
                0x8001d814                CPSWCPDMATxEnable
 .text.CPSWCPDMARxEnable
                0x8001d840       0x2c ../../../../../..//binary/armv7a/gcc/am335x/drivers/Debug/libdrivers.a(cpsw.o)
                0x8001d840                CPSWCPDMARxEnable
 .text.CPSWCPDMATxHdrDescPtrWrite
                0x8001d86c       0x40 ../../../../../..//binary/armv7a/gcc/am335x/drivers/Debug/libdrivers.a(cpsw.o)
                0x8001d86c                CPSWCPDMATxHdrDescPtrWrite
 .text.CPSWCPDMARxHdrDescPtrWrite
                0x8001d8ac       0x40 ../../../../../..//binary/armv7a/gcc/am335x/drivers/Debug/libdrivers.a(cpsw.o)
                0x8001d8ac                CPSWCPDMARxHdrDescPtrWrite
 .text.CPSWCPDMAEndOfIntVectorWrite
                0x8001d8ec       0x30 ../../../../../..//binary/armv7a/gcc/am335x/drivers/Debug/libdrivers.a(cpsw.o)
                0x8001d8ec                CPSWCPDMAEndOfIntVectorWrite
 .text.CPSWCPDMATxCPWrite
                0x8001d91c       0x40 ../../../../../..//binary/armv7a/gcc/am335x/drivers/Debug/libdrivers.a(cpsw.o)
                0x8001d91c                CPSWCPDMATxCPWrite
 .text.CPSWCPDMARxCPWrite
                0x8001d95c       0x40 ../../../../../..//binary/armv7a/gcc/am335x/drivers/Debug/libdrivers.a(cpsw.o)
                0x8001d95c                CPSWCPDMARxCPWrite
 .text.CPSWCPDMACmdIdleEnable
                0x8001d99c       0x50 ../../../../../..//binary/armv7a/gcc/am335x/drivers/Debug/libdrivers.a(cpsw.o)
                0x8001d99c                CPSWCPDMACmdIdleEnable
 .text.CPSWCPDMACmdIdleDisable
                0x8001d9ec       0x38 ../../../../../..//binary/armv7a/gcc/am335x/drivers/Debug/libdrivers.a(cpsw.o)
                0x8001d9ec                CPSWCPDMACmdIdleDisable
 .text.CPSWContextSave
                0x8001da24      0x368 ../../../../../..//binary/armv7a/gcc/am335x/drivers/Debug/libdrivers.a(cpsw.o)
                0x8001da24                CPSWContextSave
 .text.CPSWContextRestore
                0x8001dd8c      0x350 ../../../../../..//binary/armv7a/gcc/am335x/drivers/Debug/libdrivers.a(cpsw.o)
                0x8001dd8c                CPSWContextRestore
 .text.DMTimerEnable
                0x8001e0dc       0x6c ../../../../../..//binary/armv7a/gcc/am335x/drivers/Debug/libdrivers.a(dmtimer.o)
                0x8001e0dc                DMTimerEnable
 .text.DMTimerDisable
                0x8001e148       0x6c ../../../../../..//binary/armv7a/gcc/am335x/drivers/Debug/libdrivers.a(dmtimer.o)
                0x8001e148                DMTimerDisable
 .text.DMTimerModeConfigure
                0x8001e1b4       0xcc ../../../../../..//binary/armv7a/gcc/am335x/drivers/Debug/libdrivers.a(dmtimer.o)
                0x8001e1b4                DMTimerModeConfigure
 .text.DMTimerCounterSet
                0x8001e280       0x64 ../../../../../..//binary/armv7a/gcc/am335x/drivers/Debug/libdrivers.a(dmtimer.o)
                0x8001e280                DMTimerCounterSet
 .text.DMTimerReloadSet
                0x8001e2e4       0x64 ../../../../../..//binary/armv7a/gcc/am335x/drivers/Debug/libdrivers.a(dmtimer.o)
                0x8001e2e4                DMTimerReloadSet
 .text.DMTimerIntStatusClear
                0x8001e348       0x34 ../../../../../..//binary/armv7a/gcc/am335x/drivers/Debug/libdrivers.a(dmtimer.o)
                0x8001e348                DMTimerIntStatusClear
 .text.DMTimerIntEnable
                0x8001e37c       0x34 ../../../../../..//binary/armv7a/gcc/am335x/drivers/Debug/libdrivers.a(dmtimer.o)
                0x8001e37c                DMTimerIntEnable
 .text.DMTimerIntDisable
                0x8001e3b0       0x34 ../../../../../..//binary/armv7a/gcc/am335x/drivers/Debug/libdrivers.a(dmtimer.o)
                0x8001e3b0                DMTimerIntDisable
 .text.DMTimerContextSave
                0x8001e3e4       0xb8 ../../../../../..//binary/armv7a/gcc/am335x/drivers/Debug/libdrivers.a(dmtimer.o)
                0x8001e3e4                DMTimerContextSave
 .text.DMTimerContextRestore
                0x8001e49c      0x160 ../../../../../..//binary/armv7a/gcc/am335x/drivers/Debug/libdrivers.a(dmtimer.o)
                0x8001e49c                DMTimerContextRestore
 .text.DMTimerWritePostedStatusGet
                0x8001e5fc       0x2c ../../../../../..//binary/armv7a/gcc/am335x/drivers/Debug/libdrivers.a(dmtimer.o)
                0x8001e5fc                DMTimerWritePostedStatusGet
 .text.EDMA3Init
                0x8001e628      0x294 ../../../../../..//binary/armv7a/gcc/am335x/drivers/Debug/libdrivers.a(edma.o)
                0x8001e628                EDMA3Init
 .text.EDMA3EnableChInShadowReg
                0x8001e8bc      0x150 ../../../../../..//binary/armv7a/gcc/am335x/drivers/Debug/libdrivers.a(edma.o)
                0x8001e8bc                EDMA3EnableChInShadowReg
 .text.EDMA3MapChToEvtQ
                0x8001ea0c      0x11c ../../../../../..//binary/armv7a/gcc/am335x/drivers/Debug/libdrivers.a(edma.o)
                0x8001ea0c                EDMA3MapChToEvtQ
 .text.EDMA3ClrMissEvt
                0x8001eb28       0xe4 ../../../../../..//binary/armv7a/gcc/am335x/drivers/Debug/libdrivers.a(edma.o)
                0x8001eb28                EDMA3ClrMissEvt
 .text.EDMA3SetEvt
                0x8001ec0c       0xec ../../../../../..//binary/armv7a/gcc/am335x/drivers/Debug/libdrivers.a(edma.o)
                0x8001ec0c                EDMA3SetEvt
 .text.EDMA3ClrEvt
                0x8001ecf8       0xec ../../../../../..//binary/armv7a/gcc/am335x/drivers/Debug/libdrivers.a(edma.o)
                0x8001ecf8                EDMA3ClrEvt
 .text.EDMA3EnableDmaEvt
                0x8001ede4       0xec ../../../../../..//binary/armv7a/gcc/am335x/drivers/Debug/libdrivers.a(edma.o)
                0x8001ede4                EDMA3EnableDmaEvt
 .text.EDMA3DisableDmaEvt
                0x8001eed0       0xe8 ../../../../../..//binary/armv7a/gcc/am335x/drivers/Debug/libdrivers.a(edma.o)
                0x8001eed0                EDMA3DisableDmaEvt
 .text.EDMA3EnableQdmaEvt
                0x8001efb8       0x50 ../../../../../..//binary/armv7a/gcc/am335x/drivers/Debug/libdrivers.a(edma.o)
                0x8001efb8                EDMA3EnableQdmaEvt
 .text.EDMA3DisableQdmaEvt
                0x8001f008       0x50 ../../../../../..//binary/armv7a/gcc/am335x/drivers/Debug/libdrivers.a(edma.o)
                0x8001f008                EDMA3DisableQdmaEvt
 .text.EDMA3EnableEvtIntr
                0x8001f058       0xec ../../../../../..//binary/armv7a/gcc/am335x/drivers/Debug/libdrivers.a(edma.o)
                0x8001f058                EDMA3EnableEvtIntr
 .text.EDMA3GetPaRAM
                0x8001f144       0x98 ../../../../../..//binary/armv7a/gcc/am335x/drivers/Debug/libdrivers.a(edma.o)
                0x8001f144                EDMA3GetPaRAM
 .text.EDMA3SetPaRAM
                0x8001f1dc       0xa0 ../../../../../..//binary/armv7a/gcc/am335x/drivers/Debug/libdrivers.a(edma.o)
                0x8001f1dc                EDMA3SetPaRAM
 .text.EDMA3RequestChannel
                0x8001f27c      0x1c8 ../../../../../..//binary/armv7a/gcc/am335x/drivers/Debug/libdrivers.a(edma.o)
                0x8001f27c                EDMA3RequestChannel
 .text.EDMA3EnableTransfer
                0x8001f444      0x108 ../../../../../..//binary/armv7a/gcc/am335x/drivers/Debug/libdrivers.a(edma.o)
                0x8001f444                EDMA3EnableTransfer
 .text.EDMA3DisableTransfer
                0x8001f54c      0x108 ../../../../../..//binary/armv7a/gcc/am335x/drivers/Debug/libdrivers.a(edma.o)
                0x8001f54c                EDMA3DisableTransfer
 .text.EDMA3ContextSave
                0x8001f654      0x1e4 ../../../../../..//binary/armv7a/gcc/am335x/drivers/Debug/libdrivers.a(edma.o)
                0x8001f654                EDMA3ContextSave
 .text.EDMA3ContextRestore
                0x8001f838      0x1e4 ../../../../../..//binary/armv7a/gcc/am335x/drivers/Debug/libdrivers.a(edma.o)
                0x8001f838                EDMA3ContextRestore
 .text.GPIOModuleReset
                0x8001fa1c       0x54 ../../../../../..//binary/armv7a/gcc/am335x/drivers/Debug/libdrivers.a(gpio_v2.o)
                0x8001fa1c                GPIOModuleReset
 .text.GPIOModuleEnable
                0x8001fa70       0x38 ../../../../../..//binary/armv7a/gcc/am335x/drivers/Debug/libdrivers.a(gpio_v2.o)
                0x8001fa70                GPIOModuleEnable
 .text.GPIODirModeSet
                0x8001faa8       0x88 ../../../../../..//binary/armv7a/gcc/am335x/drivers/Debug/libdrivers.a(gpio_v2.o)
                0x8001faa8                GPIODirModeSet
 .text.GPIOPinWrite
                0x8001fb30       0x64 ../../../../../..//binary/armv7a/gcc/am335x/drivers/Debug/libdrivers.a(gpio_v2.o)
                0x8001fb30                GPIOPinWrite
 .text.GPIOPinIntEnable
                0x8001fb94       0x64 ../../../../../..//binary/armv7a/gcc/am335x/drivers/Debug/libdrivers.a(gpio_v2.o)
                0x8001fb94                GPIOPinIntEnable
 .text.GPIOPinIntDisable
                0x8001fbf8       0x64 ../../../../../..//binary/armv7a/gcc/am335x/drivers/Debug/libdrivers.a(gpio_v2.o)
                0x8001fbf8                GPIOPinIntDisable
 .text.GPIOIntTypeSet
                0x8001fc5c      0x564 ../../../../../..//binary/armv7a/gcc/am335x/drivers/Debug/libdrivers.a(gpio_v2.o)
                0x8001fc5c                GPIOIntTypeSet
 .text.GPIOPinIntClear
                0x800201c0       0x64 ../../../../../..//binary/armv7a/gcc/am335x/drivers/Debug/libdrivers.a(gpio_v2.o)
                0x800201c0                GPIOPinIntClear
 .text.GPIOWakeupGlobalEnable
                0x80020224       0x38 ../../../../../..//binary/armv7a/gcc/am335x/drivers/Debug/libdrivers.a(gpio_v2.o)
                0x80020224                GPIOWakeupGlobalEnable
 .text.GPIOWakeupGlobalDisable
                0x8002025c       0x38 ../../../../../..//binary/armv7a/gcc/am335x/drivers/Debug/libdrivers.a(gpio_v2.o)
                0x8002025c                GPIOWakeupGlobalDisable
 .text.GPIOPinIntWakeUpEnable
                0x80020294       0x84 ../../../../../..//binary/armv7a/gcc/am335x/drivers/Debug/libdrivers.a(gpio_v2.o)
                0x80020294                GPIOPinIntWakeUpEnable
 .text.GPIOPinIntWakeUpDisable
                0x80020318       0x8c ../../../../../..//binary/armv7a/gcc/am335x/drivers/Debug/libdrivers.a(gpio_v2.o)
                0x80020318                GPIOPinIntWakeUpDisable
 .text.GPIODebounceFuncControl
                0x800203a4       0x78 ../../../../../..//binary/armv7a/gcc/am335x/drivers/Debug/libdrivers.a(gpio_v2.o)
                0x800203a4                GPIODebounceFuncControl
 .text.GPIODebounceTimeConfig
                0x8002041c       0x34 ../../../../../..//binary/armv7a/gcc/am335x/drivers/Debug/libdrivers.a(gpio_v2.o)
                0x8002041c                GPIODebounceTimeConfig
 .text.gpioContextSave
                0x80020450       0x5c ../../../../../..//binary/armv7a/gcc/am335x/drivers/Debug/libdrivers.a(gpio_v2.o)
                0x80020450                gpioContextSave
 .text.gpioContextRestore
                0x800204ac       0x5c ../../../../../..//binary/armv7a/gcc/am335x/drivers/Debug/libdrivers.a(gpio_v2.o)
                0x800204ac                gpioContextRestore
 .text.GPMCIdleModeSelect
                0x80020508       0x64 ../../../../../..//binary/armv7a/gcc/am335x/drivers/Debug/libdrivers.a(gpmc.o)
                0x80020508                GPMCIdleModeSelect
 .text.HSMMCSDSoftReset
                0x8002056c       0xa0 ../../../../../..//binary/armv7a/gcc/am335x/drivers/Debug/libdrivers.a(hs_mmcsd.o)
                0x8002056c                HSMMCSDSoftReset
 .text.HSMMCSDLinesReset
                0x8002060c       0xb0 ../../../../../..//binary/armv7a/gcc/am335x/drivers/Debug/libdrivers.a(hs_mmcsd.o)
                0x8002060c                HSMMCSDLinesReset
 .text.HSMMCSDSystemConfig
                0x800206bc       0x64 ../../../../../..//binary/armv7a/gcc/am335x/drivers/Debug/libdrivers.a(hs_mmcsd.o)
                0x800206bc                HSMMCSDSystemConfig
 .text.HSMMCSDBusWidthSet
                0x80020720       0xf0 ../../../../../..//binary/armv7a/gcc/am335x/drivers/Debug/libdrivers.a(hs_mmcsd.o)
                0x80020720                HSMMCSDBusWidthSet
 .text.HSMMCSDBusVoltSet
                0x80020810       0x5c ../../../../../..//binary/armv7a/gcc/am335x/drivers/Debug/libdrivers.a(hs_mmcsd.o)
                0x80020810                HSMMCSDBusVoltSet
 .text.HSMMCSDBusPower
                0x8002086c       0xbc ../../../../../..//binary/armv7a/gcc/am335x/drivers/Debug/libdrivers.a(hs_mmcsd.o)
                0x8002086c                HSMMCSDBusPower
 .text.HSMMCSDIntClock
                0x80020928       0x7c ../../../../../..//binary/armv7a/gcc/am335x/drivers/Debug/libdrivers.a(hs_mmcsd.o)
                0x80020928                HSMMCSDIntClock
 .text.HSMMCSDIsIntClockStable
                0x800209a4       0x88 ../../../../../..//binary/armv7a/gcc/am335x/drivers/Debug/libdrivers.a(hs_mmcsd.o)
                0x800209a4                HSMMCSDIsIntClockStable
 .text.HSMMCSDSupportedVoltSet
                0x80020a2c       0x5c ../../../../../..//binary/armv7a/gcc/am335x/drivers/Debug/libdrivers.a(hs_mmcsd.o)
                0x80020a2c                HSMMCSDSupportedVoltSet
 .text.HSMMCSDDataTimeoutSet
                0x80020a88       0x5c ../../../../../..//binary/armv7a/gcc/am335x/drivers/Debug/libdrivers.a(hs_mmcsd.o)
                0x80020a88                HSMMCSDDataTimeoutSet
 .text.HSMMCSDBusFreqSet
                0x80020ae4      0x194 ../../../../../..//binary/armv7a/gcc/am335x/drivers/Debug/libdrivers.a(hs_mmcsd.o)
                0x80020ae4                HSMMCSDBusFreqSet
 .text.HSMMCSDInitStreamSend
                0x80020c78       0xa8 ../../../../../..//binary/armv7a/gcc/am335x/drivers/Debug/libdrivers.a(hs_mmcsd.o)
                0x80020c78                HSMMCSDInitStreamSend
 .text.HSMMCSDIntrStatusEnable
                0x80020d20       0x40 ../../../../../..//binary/armv7a/gcc/am335x/drivers/Debug/libdrivers.a(hs_mmcsd.o)
                0x80020d20                HSMMCSDIntrStatusEnable
 .text.HSMMCSDIntrEnable
                0x80020d60       0x50 ../../../../../..//binary/armv7a/gcc/am335x/drivers/Debug/libdrivers.a(hs_mmcsd.o)
                0x80020d60                HSMMCSDIntrEnable
 .text.HSMMCSDIntrStatusGet
                0x80020db0       0x38 ../../../../../..//binary/armv7a/gcc/am335x/drivers/Debug/libdrivers.a(hs_mmcsd.o)
                0x80020db0                HSMMCSDIntrStatusGet
 .text.HSMMCSDIntrStatusClear
                0x80020de8       0x30 ../../../../../..//binary/armv7a/gcc/am335x/drivers/Debug/libdrivers.a(hs_mmcsd.o)
                0x80020de8                HSMMCSDIntrStatusClear
 .text.HSMMCSDIsCmdComplete
                0x80020e18       0x84 ../../../../../..//binary/armv7a/gcc/am335x/drivers/Debug/libdrivers.a(hs_mmcsd.o)
                0x80020e18                HSMMCSDIsCmdComplete
 .text.HSMMCSDBlkLenSet
                0x80020e9c       0x64 ../../../../../..//binary/armv7a/gcc/am335x/drivers/Debug/libdrivers.a(hs_mmcsd.o)
                0x80020e9c                HSMMCSDBlkLenSet
 .text.HSMMCSDCommandSend
                0x80020f00       0xc4 ../../../../../..//binary/armv7a/gcc/am335x/drivers/Debug/libdrivers.a(hs_mmcsd.o)
                0x80020f00                HSMMCSDCommandSend
 .text.HSMMCSDResponseGet
                0x80020fc4       0x70 ../../../../../..//binary/armv7a/gcc/am335x/drivers/Debug/libdrivers.a(hs_mmcsd.o)
                0x80020fc4                HSMMCSDResponseGet
 .text.HSMMCSDIsCardInserted
                0x80021034       0x34 ../../../../../..//binary/armv7a/gcc/am335x/drivers/Debug/libdrivers.a(hs_mmcsd.o)
                0x80021034                HSMMCSDIsCardInserted
 .text.MMCSDContextSave
                0x80021068       0x98 ../../../../../..//binary/armv7a/gcc/am335x/drivers/Debug/libdrivers.a(hs_mmcsd.o)
                0x80021068                MMCSDContextSave
 .text.MMCSDContextRestore
                0x80021100       0x98 ../../../../../..//binary/armv7a/gcc/am335x/drivers/Debug/libdrivers.a(hs_mmcsd.o)
                0x80021100                MMCSDContextRestore
 .text.I2CMasterInitExpClk
                0x80021198       0xa4 ../../../../../..//binary/armv7a/gcc/am335x/drivers/Debug/libdrivers.a(hsi2c.o)
                0x80021198                I2CMasterInitExpClk
 .text.I2CMasterEnable
                0x8002123c       0x38 ../../../../../..//binary/armv7a/gcc/am335x/drivers/Debug/libdrivers.a(hsi2c.o)
                0x8002123c                I2CMasterEnable
 .text.I2CMasterDisable
                0x80021274       0x38 ../../../../../..//binary/armv7a/gcc/am335x/drivers/Debug/libdrivers.a(hsi2c.o)
                0x80021274                I2CMasterDisable
 .text.I2CMasterBusBusy
                0x800212ac       0x50 ../../../../../..//binary/armv7a/gcc/am335x/drivers/Debug/libdrivers.a(hsi2c.o)
                0x800212ac                I2CMasterBusBusy
 .text.I2CMasterBusy
                0x800212fc       0x30 ../../../../../..//binary/armv7a/gcc/am335x/drivers/Debug/libdrivers.a(hsi2c.o)
                0x800212fc                I2CMasterBusy
 .text.I2CMasterControl
                0x8002132c       0x34 ../../../../../..//binary/armv7a/gcc/am335x/drivers/Debug/libdrivers.a(hsi2c.o)
                0x8002132c                I2CMasterControl
 .text.I2CMasterStart
                0x80021360       0x38 ../../../../../..//binary/armv7a/gcc/am335x/drivers/Debug/libdrivers.a(hsi2c.o)
                0x80021360                I2CMasterStart
 .text.I2CMasterStop
                0x80021398       0x38 ../../../../../..//binary/armv7a/gcc/am335x/drivers/Debug/libdrivers.a(hsi2c.o)
                0x80021398                I2CMasterStop
 .text.I2CMasterIntEnableEx
                0x800213d0       0x40 ../../../../../..//binary/armv7a/gcc/am335x/drivers/Debug/libdrivers.a(hsi2c.o)
                0x800213d0                I2CMasterIntEnableEx
 .text.I2CMasterIntDisableEx
                0x80021410       0x30 ../../../../../..//binary/armv7a/gcc/am335x/drivers/Debug/libdrivers.a(hsi2c.o)
                0x80021410                I2CMasterIntDisableEx
 .text.I2CMasterIntStatus
                0x80021440       0x2c ../../../../../..//binary/armv7a/gcc/am335x/drivers/Debug/libdrivers.a(hsi2c.o)
                0x80021440                I2CMasterIntStatus
 .text.I2CMasterIntRawStatus
                0x8002146c       0x2c ../../../../../..//binary/armv7a/gcc/am335x/drivers/Debug/libdrivers.a(hsi2c.o)
                0x8002146c                I2CMasterIntRawStatus
 .text.I2CMasterIntRawStatusEx
                0x80021498       0x38 ../../../../../..//binary/armv7a/gcc/am335x/drivers/Debug/libdrivers.a(hsi2c.o)
                0x80021498                I2CMasterIntRawStatusEx
 .text.I2CMasterIntClearEx
                0x800214d0       0x30 ../../../../../..//binary/armv7a/gcc/am335x/drivers/Debug/libdrivers.a(hsi2c.o)
                0x800214d0                I2CMasterIntClearEx
 .text.I2CMasterSlaveAddrSet
                0x80021500       0x30 ../../../../../..//binary/armv7a/gcc/am335x/drivers/Debug/libdrivers.a(hsi2c.o)
                0x80021500                I2CMasterSlaveAddrSet
 .text.I2CSetDataCount
                0x80021530       0x30 ../../../../../..//binary/armv7a/gcc/am335x/drivers/Debug/libdrivers.a(hsi2c.o)
                0x80021530                I2CSetDataCount
 .text.I2CDataCountGet
                0x80021560       0x2c ../../../../../..//binary/armv7a/gcc/am335x/drivers/Debug/libdrivers.a(hsi2c.o)
                0x80021560                I2CDataCountGet
 .text.I2COwnAddressSet
                0x8002158c       0x84 ../../../../../..//binary/armv7a/gcc/am335x/drivers/Debug/libdrivers.a(hsi2c.o)
                0x8002158c                I2COwnAddressSet
 .text.I2CSoftReset
                0x80021610       0x38 ../../../../../..//binary/armv7a/gcc/am335x/drivers/Debug/libdrivers.a(hsi2c.o)
                0x80021610                I2CSoftReset
 .text.I2CAutoIdleDisable
                0x80021648       0x38 ../../../../../..//binary/armv7a/gcc/am335x/drivers/Debug/libdrivers.a(hsi2c.o)
                0x80021648                I2CAutoIdleDisable
 .text.I2CSystemStatusGet
                0x80021680       0x30 ../../../../../..//binary/armv7a/gcc/am335x/drivers/Debug/libdrivers.a(hsi2c.o)
                0x80021680                I2CSystemStatusGet
 .text.I2CMasterDataPut
                0x800216b0       0x34 ../../../../../..//binary/armv7a/gcc/am335x/drivers/Debug/libdrivers.a(hsi2c.o)
                0x800216b0                I2CMasterDataPut
 .text.I2CMasterDataGet
                0x800216e4       0x34 ../../../../../..//binary/armv7a/gcc/am335x/drivers/Debug/libdrivers.a(hsi2c.o)
                0x800216e4                I2CMasterDataGet
 .text.MBresetMailbox
                0x80021718       0x48 ../../../../../..//binary/armv7a/gcc/am335x/drivers/Debug/libdrivers.a(mailbox.o)
                0x80021718                MBresetMailbox
 .text.MBconfigIdleMode
                0x80021760       0x34 ../../../../../..//binary/armv7a/gcc/am335x/drivers/Debug/libdrivers.a(mailbox.o)
                0x80021760                MBconfigIdleMode
 .text.MBgetMessage
                0x80021794       0x78 ../../../../../..//binary/armv7a/gcc/am335x/drivers/Debug/libdrivers.a(mailbox.o)
                0x80021794                MBgetMessage
 .text.MBsendMessage
                0x8002180c       0x94 ../../../../../..//binary/armv7a/gcc/am335x/drivers/Debug/libdrivers.a(mailbox.o)
                0x8002180c                MBsendMessage
 .text.MBenableNewMsgInt
                0x800218a0       0x58 ../../../../../..//binary/armv7a/gcc/am335x/drivers/Debug/libdrivers.a(mailbox.o)
                0x800218a0                MBenableNewMsgInt
 .text.MBclrNewMsgStatus
                0x800218f8       0x58 ../../../../../..//binary/armv7a/gcc/am335x/drivers/Debug/libdrivers.a(mailbox.o)
                0x800218f8                MBclrNewMsgStatus
 .text.MDIOPhyRegRead
                0x80021950       0xc4 ../../../../../..//binary/armv7a/gcc/am335x/drivers/Debug/libdrivers.a(mdio.o)
                0x80021950                MDIOPhyRegRead
 .text.MDIOPhyRegWrite
                0x80021a14       0x8c ../../../../../..//binary/armv7a/gcc/am335x/drivers/Debug/libdrivers.a(mdio.o)
                0x80021a14                MDIOPhyRegWrite
 .text.MDIOPhyAliveStatusGet
                0x80021aa0       0x2c ../../../../../..//binary/armv7a/gcc/am335x/drivers/Debug/libdrivers.a(mdio.o)
                0x80021aa0                MDIOPhyAliveStatusGet
 .text.MDIOInit
                0x80021acc       0x64 ../../../../../..//binary/armv7a/gcc/am335x/drivers/Debug/libdrivers.a(mdio.o)
                0x80021acc                MDIOInit
 .text.MDIOContextSave
                0x80021b30       0x34 ../../../../../..//binary/armv7a/gcc/am335x/drivers/Debug/libdrivers.a(mdio.o)
                0x80021b30                MDIOContextSave
 .text.MDIOContextRestore
                0x80021b64       0x34 ../../../../../..//binary/armv7a/gcc/am335x/drivers/Debug/libdrivers.a(mdio.o)
                0x80021b64                MDIOContextRestore
 .text.PhyAutoNegotiate
                0x80021b98      0x1f4 ../../../../../..//binary/armv7a/gcc/am335x/drivers/Debug/libdrivers.a(phy.o)
                0x80021b98                PhyAutoNegotiate
 .text.PhyAutoNegStatusGet
                0x80021d8c       0x5c ../../../../../..//binary/armv7a/gcc/am335x/drivers/Debug/libdrivers.a(phy.o)
                0x80021d8c                PhyAutoNegStatusGet
 .text.PhyPartnerAbilityGet
                0x80021de8       0x88 ../../../../../..//binary/armv7a/gcc/am335x/drivers/Debug/libdrivers.a(phy.o)
                0x80021de8                PhyPartnerAbilityGet
 .text.PhyLinkStatusGet
                0x80021e70       0x88 ../../../../../..//binary/armv7a/gcc/am335x/drivers/Debug/libdrivers.a(phy.o)
                0x80021e70                PhyLinkStatusGet
 .text.RTCRun   0x80021ef8       0x64 ../../../../../..//binary/armv7a/gcc/am335x/drivers/Debug/libdrivers.a(rtc.o)
                0x80021ef8                RTCRun
 .text.RTCWriteProtectDisable
                0x80021f5c       0x4c ../../../../../..//binary/armv7a/gcc/am335x/drivers/Debug/libdrivers.a(rtc.o)
                0x80021f5c                RTCWriteProtectDisable
 .text.RTCIntTimerEnable
                0x80021fa8       0x7c ../../../../../..//binary/armv7a/gcc/am335x/drivers/Debug/libdrivers.a(rtc.o)
                0x80021fa8                RTCIntTimerEnable
 .text.RTCEnable
                0x80022024       0x98 ../../../../../..//binary/armv7a/gcc/am335x/drivers/Debug/libdrivers.a(rtc.o)
                0x80022024                RTCEnable
 .text.RTCTimeSet
                0x800220bc       0xcc ../../../../../..//binary/armv7a/gcc/am335x/drivers/Debug/libdrivers.a(rtc.o)
                0x800220bc                RTCTimeSet
 .text.RTCTimeGet
                0x80022188       0xcc ../../../../../..//binary/armv7a/gcc/am335x/drivers/Debug/libdrivers.a(rtc.o)
                0x80022188                RTCTimeGet
 .text.RTCCalendarSet
                0x80022254       0x98 ../../../../../..//binary/armv7a/gcc/am335x/drivers/Debug/libdrivers.a(rtc.o)
                0x80022254                RTCCalendarSet
 .text.RTCCalendarGet
                0x800222ec       0xa4 ../../../../../..//binary/armv7a/gcc/am335x/drivers/Debug/libdrivers.a(rtc.o)
                0x800222ec                RTCCalendarGet
 .text.RTC32KClkSourceSelect
                0x80022390       0x88 ../../../../../..//binary/armv7a/gcc/am335x/drivers/Debug/libdrivers.a(rtc.o)
                0x80022390                RTC32KClkSourceSelect
 .text.RTC32KClkClockControl
                0x80022418       0x60 ../../../../../..//binary/armv7a/gcc/am335x/drivers/Debug/libdrivers.a(rtc.o)
                0x80022418                RTC32KClkClockControl
 .text.UARTOperatingModeSelect
                0x80022478       0x84 ../../../../../..//binary/armv7a/gcc/am335x/drivers/Debug/libdrivers.a(uart_irda_cir.o)
                0x80022478                UARTOperatingModeSelect
 .text.UARTDivisorValCompute
                0x800224fc      0x104 ../../../../../..//binary/armv7a/gcc/am335x/drivers/Debug/libdrivers.a(uart_irda_cir.o)
                0x800224fc                UARTDivisorValCompute
 .text.UARTDivisorLatchWrite
                0x80022600      0x210 ../../../../../..//binary/armv7a/gcc/am335x/drivers/Debug/libdrivers.a(uart_irda_cir.o)
                0x80022600                UARTDivisorLatchWrite
 .text.UARTDivisorLatchDisable
                0x80022810       0x38 ../../../../../..//binary/armv7a/gcc/am335x/drivers/Debug/libdrivers.a(uart_irda_cir.o)
                0x80022810                UARTDivisorLatchDisable
 .text.UARTRegConfigModeEnable
                0x80022848       0x9c ../../../../../..//binary/armv7a/gcc/am335x/drivers/Debug/libdrivers.a(uart_irda_cir.o)
                0x80022848                UARTRegConfigModeEnable
 .text.UARTBreakCtl
                0x800228e4       0x60 ../../../../../..//binary/armv7a/gcc/am335x/drivers/Debug/libdrivers.a(uart_irda_cir.o)
                0x800228e4                UARTBreakCtl
 .text.UARTLineCharacConfig
                0x80022944       0xa4 ../../../../../..//binary/armv7a/gcc/am335x/drivers/Debug/libdrivers.a(uart_irda_cir.o)
                0x80022944                UARTLineCharacConfig
 .text.UARTFIFOConfig
                0x800229e8      0x480 ../../../../../..//binary/armv7a/gcc/am335x/drivers/Debug/libdrivers.a(uart_irda_cir.o)
                0x800229e8                UARTFIFOConfig
 .text.UARTFIFORegisterWrite
                0x80022e68       0xc0 ../../../../../..//binary/armv7a/gcc/am335x/drivers/Debug/libdrivers.a(uart_irda_cir.o)
                0x80022e68                UARTFIFORegisterWrite
 .text.UARTEnhanFuncEnable
                0x80022f28       0x88 ../../../../../..//binary/armv7a/gcc/am335x/drivers/Debug/libdrivers.a(uart_irda_cir.o)
                0x80022f28                UARTEnhanFuncEnable
 .text.UARTEnhanFuncBitValRestore
                0x80022fb0       0x8c ../../../../../..//binary/armv7a/gcc/am335x/drivers/Debug/libdrivers.a(uart_irda_cir.o)
                0x80022fb0                UARTEnhanFuncBitValRestore
 .text.UARTSubConfigTCRTLRModeEn
                0x8002303c      0x124 ../../../../../..//binary/armv7a/gcc/am335x/drivers/Debug/libdrivers.a(uart_irda_cir.o)
                0x8002303c                UARTSubConfigTCRTLRModeEn
 .text.UARTTCRTLRBitValRestore
                0x80023160      0x128 ../../../../../..//binary/armv7a/gcc/am335x/drivers/Debug/libdrivers.a(uart_irda_cir.o)
                0x80023160                UARTTCRTLRBitValRestore
 .text.UARTIntEnable
                0x80023288      0x130 ../../../../../..//binary/armv7a/gcc/am335x/drivers/Debug/libdrivers.a(uart_irda_cir.o)
                0x80023288                UARTIntEnable
 .text.UARTIntDisable
                0x800233b8      0x110 ../../../../../..//binary/armv7a/gcc/am335x/drivers/Debug/libdrivers.a(uart_irda_cir.o)
                0x800233b8                UARTIntDisable
 .text.UARTCharsAvail
                0x800234c8       0x78 ../../../../../..//binary/armv7a/gcc/am335x/drivers/Debug/libdrivers.a(uart_irda_cir.o)
                0x800234c8                UARTCharsAvail
 .text.UARTCharPutNonBlocking
                0x80023540       0x8c ../../../../../..//binary/armv7a/gcc/am335x/drivers/Debug/libdrivers.a(uart_irda_cir.o)
                0x80023540                UARTCharPutNonBlocking
 .text.UARTCharGetNonBlocking
                0x800235cc       0x80 ../../../../../..//binary/armv7a/gcc/am335x/drivers/Debug/libdrivers.a(uart_irda_cir.o)
                0x800235cc                UARTCharGetNonBlocking
 .text.UARTCharGet
                0x8002364c       0x84 ../../../../../..//binary/armv7a/gcc/am335x/drivers/Debug/libdrivers.a(uart_irda_cir.o)
                0x8002364c                UARTCharGet
 .text.UARTCharPut
                0x800236d0       0x78 ../../../../../..//binary/armv7a/gcc/am335x/drivers/Debug/libdrivers.a(uart_irda_cir.o)
                0x800236d0                UARTCharPut
 .text.UARTModuleReset
                0x80023748       0x54 ../../../../../..//binary/armv7a/gcc/am335x/drivers/Debug/libdrivers.a(uart_irda_cir.o)
                0x80023748                UARTModuleReset
 .text.UARTIdleModeConfigure
                0x8002379c       0x60 ../../../../../..//binary/armv7a/gcc/am335x/drivers/Debug/libdrivers.a(uart_irda_cir.o)
                0x8002379c                UARTIdleModeConfigure
 .text.UARTWakeUpControl
                0x800237fc       0x60 ../../../../../..//binary/armv7a/gcc/am335x/drivers/Debug/libdrivers.a(uart_irda_cir.o)
                0x800237fc                UARTWakeUpControl
 .text.ASCIIToDigit
                0x8002385c       0xe8 ../../../../../..//binary/armv7a/gcc/utils/Debug/libutils.a(ascii.o)
                0x8002385c                ASCIIToDigit
 .text.DigitToASCII
                0x80023944       0xb8 ../../../../../..//binary/armv7a/gcc/utils/Debug/libutils.a(ascii.o)
                0x80023944                DigitToASCII
 .text.TimeToStr
                0x800239fc      0x18c ../../../../../..//binary/armv7a/gcc/utils/Debug/libutils.a(ascii.o)
                0x800239fc                TimeToStr
 .text.DateToStr
                0x80023b88      0x18c ../../../../../..//binary/armv7a/gcc/utils/Debug/libutils.a(ascii.o)
                0x80023b88                DateToStr
 .text.BoardVersionGet
                0x80023d14       0x20 ../../../../../..//binary/armv7a/gcc/utils/Debug/libutils.a(board.o)
                0x80023d14                BoardVersionGet
 .text.BoardNameGet
                0x80023d34       0x20 ../../../../../..//binary/armv7a/gcc/utils/Debug/libutils.a(board.o)
                0x80023d34                BoardNameGet
 .text.BoardInfoInit
                0x80023d54      0x154 ../../../../../..//binary/armv7a/gcc/utils/Debug/libutils.a(board.o)
                0x80023d54                BoardInfoInit
 .text.CmdLineProcess
                0x80023ea8      0x158 ../../../../../..//binary/armv7a/gcc/utils/Debug/libutils.a(cmdline.o)
                0x80023ea8                CmdLineProcess
 .text.ConsoleUtilsInit
                0x80024000       0x18 ../../../../../..//binary/armv7a/gcc/utils/Debug/libutils.a(consoleUtils.o)
                0x80024000                ConsoleUtilsInit
 .text.ConsoleUtilsSetType
                0x80024018       0x54 ../../../../../..//binary/armv7a/gcc/utils/Debug/libutils.a(consoleUtils.o)
                0x80024018                ConsoleUtilsSetType
 .text.ConsoleUtilsPrintf
                0x8002406c       0x6c ../../../../../..//binary/armv7a/gcc/utils/Debug/libutils.a(consoleUtils.o)
                0x8002406c                ConsoleUtilsPrintf
 .text.ConsoleUtilsScanf
                0x800240d8       0x80 ../../../../../..//binary/armv7a/gcc/utils/Debug/libutils.a(consoleUtils.o)
                0x800240d8                ConsoleUtilsScanf
 .text.DelayTimerSetup
                0x80024158       0x18 ../../../../../..//binary/armv7a/gcc/utils/Debug/libutils.a(delay.o)
                0x80024158                DelayTimerSetup
 .text.delay    0x80024170       0x28 ../../../../../..//binary/armv7a/gcc/utils/Debug/libutils.a(delay.o)
                0x80024170                delay
 .text.UARTStdioInit
                0x80024198       0x18 ../../../../../..//binary/armv7a/gcc/utils/Debug/libutils.a(uartStdio.o)
                0x80024198                UARTStdioInit
 .text.UARTStdioRead
                0x800241b0       0xd0 ../../../../../..//binary/armv7a/gcc/utils/Debug/libutils.a(uartStdio.o)
 .text.UARTPuts
                0x80024280       0xec ../../../../../..//binary/armv7a/gcc/utils/Debug/libutils.a(uartStdio.o)
                0x80024280                UARTPuts
 .text.UARTPutc
                0x8002436c       0x30 ../../../../../..//binary/armv7a/gcc/utils/Debug/libutils.a(uartStdio.o)
                0x8002436c                UARTPutc
 .text.UARTGetc
                0x8002439c       0x20 ../../../../../..//binary/armv7a/gcc/utils/Debug/libutils.a(uartStdio.o)
                0x8002439c                UARTGetc
 .text.UARTwrite
                0x800243bc       0x94 ../../../../../..//binary/armv7a/gcc/utils/Debug/libutils.a(uartStdio.o)
                0x800243bc                UARTwrite
 .text.UARTScanf
                0x80024450      0xa68 ../../../../../..//binary/armv7a/gcc/utils/Debug/libutils.a(uartStdio.o)
                0x80024450                UARTScanf
 .text.UARTPrintf
                0x80024eb8      0x6ac ../../../../../..//binary/armv7a/gcc/utils/Debug/libutils.a(uartStdio.o)
                0x80024eb8                UARTPrintf
 .text.BoardInfoCheck
                0x80025564      0x12c ../../../../../..//binary/armv7a/gcc/am335x/beaglebone/platform/Debug/libplatform.a(board.o)
                0x80025564                BoardInfoCheck
 .text.EVMPortMIIModeSelect
                0x80025690       0x24 ../../../../../..//binary/armv7a/gcc/am335x/beaglebone/platform/Debug/libplatform.a(cpsw.o)
                0x80025690                EVMPortMIIModeSelect
 .text.EVMMACAddrGet
                0x800256b4      0x11c ../../../../../..//binary/armv7a/gcc/am335x/beaglebone/platform/Debug/libplatform.a(cpsw.o)
                0x800256b4                EVMMACAddrGet
 .text.ControlRegContextSave
                0x800257d0       0x90 ../../../../../..//binary/armv7a/gcc/am335x/beaglebone/platform/Debug/libplatform.a(ctlregcontext.o)
                0x800257d0                ControlRegContextSave
 .text.ControlRegContextRestore
                0x80025860       0x90 ../../../../../..//binary/armv7a/gcc/am335x/beaglebone/platform/Debug/libplatform.a(ctlregcontext.o)
                0x80025860                ControlRegContextRestore
 .text.IOPadContextSave
                0x800258f0       0x58 ../../../../../..//binary/armv7a/gcc/am335x/beaglebone/platform/Debug/libplatform.a(ctlregcontext.o)
                0x800258f0                IOPadContextSave
 .text.IOPadContextRestore
                0x80025948       0x58 ../../../../../..//binary/armv7a/gcc/am335x/beaglebone/platform/Debug/libplatform.a(ctlregcontext.o)
                0x80025948                IOPadContextRestore
 .text.IOPadConfigure
                0x800259a0       0x4c ../../../../../..//binary/armv7a/gcc/am335x/beaglebone/platform/Debug/libplatform.a(ctlregcontext.o)
                0x800259a0                IOPadConfigure
 .text.IOPadSel
                0x800259ec       0x8c ../../../../../..//binary/armv7a/gcc/am335x/beaglebone/platform/Debug/libplatform.a(ctlregcontext.o)
                0x800259ec                IOPadSel
 .text.IOPadSelConfigure
                0x80025a78       0x90 ../../../../../..//binary/armv7a/gcc/am335x/beaglebone/platform/Debug/libplatform.a(ctlregcontext.o)
                0x80025a78                IOPadSelConfigure
 .text.DMTimer2ModuleClkConfig
                0x80025b08      0x260 ../../../../../..//binary/armv7a/gcc/am335x/beaglebone/platform/Debug/libplatform.a(dmtimer.o)
                0x80025b08                DMTimer2ModuleClkConfig
 .text.DMTimer6ModuleClkConfig
                0x80025d68       0xc4 ../../../../../..//binary/armv7a/gcc/am335x/beaglebone/platform/Debug/libplatform.a(dmtimer.o)
                0x80025d68                DMTimer6ModuleClkConfig
 .text.DMTimer7ModuleClkConfig
                0x80025e2c      0x260 ../../../../../..//binary/armv7a/gcc/am335x/beaglebone/platform/Debug/libplatform.a(dmtimer.o)
                0x80025e2c                DMTimer7ModuleClkConfig
 .text.DMTimer1msModuleClkConfig
                0x8002608c       0xd8 ../../../../../..//binary/armv7a/gcc/am335x/beaglebone/platform/Debug/libplatform.a(dmtimer.o)
                0x8002608c                DMTimer1msModuleClkConfig
 .text.EDMAVersionGet
                0x80026164       0x1c ../../../../../..//binary/armv7a/gcc/am335x/beaglebone/platform/Debug/libplatform.a(edma.o)
                0x80026164                EDMAVersionGet
 .text.EDMAModuleClkConfig
                0x80026180      0x1e8 ../../../../../..//binary/armv7a/gcc/am335x/beaglebone/platform/Debug/libplatform.a(edma.o)
                0x80026180                EDMAModuleClkConfig
 .text.EEPROMI2CSetUp
                0x80026368       0xec ../../../../../..//binary/armv7a/gcc/am335x/beaglebone/platform/Debug/libplatform.a(eeprom.o)
                0x80026368                EEPROMI2CSetUp
 .text.EEPROMI2CRead
                0x80026454      0x294 ../../../../../..//binary/armv7a/gcc/am335x/beaglebone/platform/Debug/libplatform.a(eeprom.o)
                0x80026454                EEPROMI2CRead
 .text.StatusClear
                0x800266e8       0x24 ../../../../../..//binary/armv7a/gcc/am335x/beaglebone/platform/Debug/libplatform.a(eeprom.o)
 .text.I2C0PinMux
                0x8002670c       0x34 ../../../../../..//binary/armv7a/gcc/am335x/beaglebone/platform/Debug/libplatform.a(eeprom.o)
 .text.BoardInfoRead
                0x80026740       0x40 ../../../../../..//binary/armv7a/gcc/am335x/beaglebone/platform/Debug/libplatform.a(eeprom.o)
                0x80026740                BoardInfoRead
 .text.GPIO1Pin23PinMuxSetup
                0x80026780       0x24 ../../../../../..//binary/armv7a/gcc/am335x/beaglebone/platform/Debug/libplatform.a(gpio.o)
                0x80026780                GPIO1Pin23PinMuxSetup
 .text.GPIO0ModuleClkConfig
                0x800267a4      0x148 ../../../../../..//binary/armv7a/gcc/am335x/beaglebone/platform/Debug/libplatform.a(gpio.o)
                0x800267a4                GPIO0ModuleClkConfig
 .text.GPIO1ModuleClkConfig
                0x800268ec       0xbc ../../../../../..//binary/armv7a/gcc/am335x/beaglebone/platform/Debug/libplatform.a(gpio.o)
                0x800268ec                GPIO1ModuleClkConfig
 .text.GpioPinMuxSetup
                0x800269a8       0x34 ../../../../../..//binary/armv7a/gcc/am335x/beaglebone/platform/Debug/libplatform.a(gpio.o)
                0x800269a8                GpioPinMuxSetup
 .text.HSMMCSDModuleClkConfig
                0x800269dc       0x4c ../../../../../..//binary/armv7a/gcc/am335x/beaglebone/platform/Debug/libplatform.a(hs_mmcsd.o)
                0x800269dc                HSMMCSDModuleClkConfig
 .text.I2C0ModuleClkConfig
                0x80026a28      0x35c ../../../../../..//binary/armv7a/gcc/am335x/beaglebone/platform/Debug/libplatform.a(hsi2c.o)
                0x80026a28                I2C0ModuleClkConfig
 .text.RtcVersionGet
                0x80026d84       0x1c ../../../../../..//binary/armv7a/gcc/am335x/beaglebone/platform/Debug/libplatform.a(rtc.o)
                0x80026d84                RtcVersionGet
 .text.SysDelayTimerSetup
                0x80026da0       0x88 ../../../../../..//binary/armv7a/gcc/am335x/beaglebone/platform/Debug/libplatform.a(sysdelay.o)
                0x80026da0                SysDelayTimerSetup
 .text.Sysdelay
                0x80026e28       0xb0 ../../../../../..//binary/armv7a/gcc/am335x/beaglebone/platform/Debug/libplatform.a(sysdelay.o)
                0x80026e28                Sysdelay
 .text.DMTimerIsr
                0x80026ed8       0x48 ../../../../../..//binary/armv7a/gcc/am335x/beaglebone/platform/Debug/libplatform.a(sysdelay.o)
 .text.UARTStdioInitExpClk
                0x80026f20       0xd0 ../../../../../..//binary/armv7a/gcc/am335x/beaglebone/platform/Debug/libplatform.a(uartConsole.o)
 .text.UartFIFOConfigure
                0x80026ff0       0x64 ../../../../../..//binary/armv7a/gcc/am335x/beaglebone/platform/Debug/libplatform.a(uartConsole.o)
 .text.UartBaudRateSet
                0x80027054       0x5c ../../../../../..//binary/armv7a/gcc/am335x/beaglebone/platform/Debug/libplatform.a(uartConsole.o)
 .text.UARTConsoleInit
                0x800270b0       0x44 ../../../../../..//binary/armv7a/gcc/am335x/beaglebone/platform/Debug/libplatform.a(uartConsole.o)
                0x800270b0                UARTConsoleInit
 .text.UARTConsolePutc
                0x800270f4       0x38 ../../../../../..//binary/armv7a/gcc/am335x/beaglebone/platform/Debug/libplatform.a(uartConsole.o)
                0x800270f4                UARTConsolePutc
 .text.UARTConsoleGetc
                0x8002712c       0x2c ../../../../../..//binary/armv7a/gcc/am335x/beaglebone/platform/Debug/libplatform.a(uartConsole.o)
                0x8002712c                UARTConsoleGetc
 .text.UARTPinMuxSetup
                0x80027158       0x48 ../../../../../..//binary/armv7a/gcc/am335x/beaglebone/platform/Debug/libplatform.a(uart.o)
                0x80027158                UARTPinMuxSetup
 .text.UART0ModuleClkConfig
                0x800271a0      0x35c ../../../../../..//binary/armv7a/gcc/am335x/beaglebone/platform/Debug/libplatform.a(uart.o)
                0x800271a0                UART0ModuleClkConfig
 .text.HSMMCSDCardPresent
                0x800274fc       0x38 ../../../../../..//binary/armv7a/gcc/mmcsdlib/Debug/libmmcsd.a(hs_mmcsdlib.o)
                0x800274fc                HSMMCSDCardPresent
 .text.HSMMCSDIntEnable
                0x80027534       0x3c ../../../../../..//binary/armv7a/gcc/mmcsdlib/Debug/libmmcsd.a(hs_mmcsdlib.o)
                0x80027534                HSMMCSDIntEnable
 .text.HSMMCSDControllerInit
                0x80027570      0x1c4 ../../../../../..//binary/armv7a/gcc/mmcsdlib/Debug/libmmcsd.a(hs_mmcsdlib.o)
                0x80027570                HSMMCSDControllerInit
 .text.HSMMCSDCmdSend
                0x80027734      0x258 ../../../../../..//binary/armv7a/gcc/mmcsdlib/Debug/libmmcsd.a(hs_mmcsdlib.o)
                0x80027734                HSMMCSDCmdSend
 .text.HSMMCSDBusWidthConfig
                0x8002798c       0x64 ../../../../../..//binary/armv7a/gcc/mmcsdlib/Debug/libmmcsd.a(hs_mmcsdlib.o)
                0x8002798c                HSMMCSDBusWidthConfig
 .text.HSMMCSDBusFreqConfig
                0x800279f0       0x50 ../../../../../..//binary/armv7a/gcc/mmcsdlib/Debug/libmmcsd.a(hs_mmcsdlib.o)
                0x800279f0                HSMMCSDBusFreqConfig
 .text.MMCSDCmdSend
                0x80027a40       0x38 ../../../../../..//binary/armv7a/gcc/mmcsdlib/Debug/libmmcsd.a(mmcsd_proto.o)
                0x80027a40                MMCSDCmdSend
 .text.MMCSDAppCmdSend
                0x80027a78       0x98 ../../../../../..//binary/armv7a/gcc/mmcsdlib/Debug/libmmcsd.a(mmcsd_proto.o)
                0x80027a78                MMCSDAppCmdSend
 .text.MMCSDBusWidthSet
                0x80027b10       0xe8 ../../../../../..//binary/armv7a/gcc/mmcsdlib/Debug/libmmcsd.a(mmcsd_proto.o)
                0x80027b10                MMCSDBusWidthSet
 .text.MMCSDTranSpeedSet
                0x80027bf8      0x1ac ../../../../../..//binary/armv7a/gcc/mmcsdlib/Debug/libmmcsd.a(mmcsd_proto.o)
                0x80027bf8                MMCSDTranSpeedSet
 .text.MMCSDCardReset
                0x80027da4       0x5c ../../../../../..//binary/armv7a/gcc/mmcsdlib/Debug/libmmcsd.a(mmcsd_proto.o)
                0x80027da4                MMCSDCardReset
 .text.MMCSDStopCmdSend
                0x80027e00       0x6c ../../../../../..//binary/armv7a/gcc/mmcsdlib/Debug/libmmcsd.a(mmcsd_proto.o)
                0x80027e00                MMCSDStopCmdSend
 .text.MMCSDCardTypeCheck
                0x80027e6c       0x54 ../../../../../..//binary/armv7a/gcc/mmcsdlib/Debug/libmmcsd.a(mmcsd_proto.o)
                0x80027e6c                MMCSDCardTypeCheck
 .text.MMCSDCtrlInit
                0x80027ec0       0x30 ../../../../../..//binary/armv7a/gcc/mmcsdlib/Debug/libmmcsd.a(mmcsd_proto.o)
                0x80027ec0                MMCSDCtrlInit
 .text.MMCSDIntEnable
                0x80027ef0       0x2c ../../../../../..//binary/armv7a/gcc/mmcsdlib/Debug/libmmcsd.a(mmcsd_proto.o)
                0x80027ef0                MMCSDIntEnable
 .text.MMCSDCardInit
                0x80027f1c      0x784 ../../../../../..//binary/armv7a/gcc/mmcsdlib/Debug/libmmcsd.a(mmcsd_proto.o)
                0x80027f1c                MMCSDCardInit
 .text.MMCSDWriteCmdSend
                0x800286a0      0x184 ../../../../../..//binary/armv7a/gcc/mmcsdlib/Debug/libmmcsd.a(mmcsd_proto.o)
                0x800286a0                MMCSDWriteCmdSend
 .text.MMCSDReadCmdSend
                0x80028824      0x184 ../../../../../..//binary/armv7a/gcc/mmcsdlib/Debug/libmmcsd.a(mmcsd_proto.o)
                0x80028824                MMCSDReadCmdSend
 .text.CacheDisable
                0x800289a8       0x7c ../../../../../..//binary/armv7a/gcc/am335x/system_config/Debug/libsystem_config.a(cache.o)
                0x800289a8                CacheDisable
 .text.CacheEnable
                0x80028a24       0x94 ../../../../../..//binary/armv7a/gcc/am335x/system_config/Debug/libsystem_config.a(cache.o)
                0x80028a24                CacheEnable
 .text.CacheDataCleanBuff
                0x80028ab8       0x30 ../../../../../..//binary/armv7a/gcc/am335x/system_config/Debug/libsystem_config.a(cache.o)
                0x80028ab8                CacheDataCleanBuff
 .text.CacheDataInvalidateBuff
                0x80028ae8       0x30 ../../../../../..//binary/armv7a/gcc/am335x/system_config/Debug/libsystem_config.a(cache.o)
                0x80028ae8                CacheDataInvalidateBuff
 .text.setDividerAutoGateCtrl
                0x80028b18       0x50 ../../../../../..//binary/armv7a/gcc/am335x/system_config/Debug/libsystem_config.a(clock.o)
 .text.setDividerAutoPDCtrl
                0x80028b68       0x60 ../../../../../..//binary/armv7a/gcc/am335x/system_config/Debug/libsystem_config.a(clock.o)
 .text.updateClockDivider
                0x80028bc8       0x5c ../../../../../..//binary/armv7a/gcc/am335x/system_config/Debug/libsystem_config.a(clock.o)
 .text.configClkDiv
                0x80028c24       0x50 ../../../../../..//binary/armv7a/gcc/am335x/system_config/Debug/libsystem_config.a(clock.o)
 .text.configADPLLAutoIdleCtrl
                0x80028c74       0x30 ../../../../../..//binary/armv7a/gcc/am335x/system_config/Debug/libsystem_config.a(clock.o)
 .text.setBypassClockSource
                0x80028ca4       0x50 ../../../../../..//binary/armv7a/gcc/am335x/system_config/Debug/libsystem_config.a(clock.o)
 .text.setClkMultDiv
                0x80028cf4       0xe4 ../../../../../..//binary/armv7a/gcc/am335x/system_config/Debug/libsystem_config.a(clock.o)
 .text.setLPBypassMode
                0x80028dd8      0x100 ../../../../../..//binary/armv7a/gcc/am335x/system_config/Debug/libsystem_config.a(clock.o)
                0x80028dd8                setLPBypassMode
 .text.setRelockRampCtrl
                0x80028ed8       0x50 ../../../../../..//binary/armv7a/gcc/am335x/system_config/Debug/libsystem_config.a(clock.o)
 .text.configADPLL
                0x80028f28      0x104 ../../../../../..//binary/armv7a/gcc/am335x/system_config/Debug/libsystem_config.a(clock.o)
                0x80028f28                configADPLL
 .text.initClockDomain
                0x8002902c       0x70 ../../../../../..//binary/armv7a/gcc/am335x/system_config/Debug/libsystem_config.a(clock.o)
                0x8002902c                initClockDomain
 .text.enableClock
                0x8002909c      0x158 ../../../../../..//binary/armv7a/gcc/am335x/system_config/Debug/libsystem_config.a(clock.o)
 .text.enableModule
                0x800291f4       0x88 ../../../../../..//binary/armv7a/gcc/am335x/system_config/Debug/libsystem_config.a(clock.o)
                0x800291f4                enableModule
 .text.disableModule
                0x8002927c       0x64 ../../../../../..//binary/armv7a/gcc/am335x/system_config/Debug/libsystem_config.a(clock.o)
                0x8002927c                disableModule
 .text.enableModuleClock
                0x800292e0      0x19c ../../../../../..//binary/armv7a/gcc/am335x/system_config/Debug/libsystem_config.a(clock.o)
                0x800292e0                enableModuleClock
 .text.disableClock
                0x8002947c       0x5c ../../../../../..//binary/armv7a/gcc/am335x/system_config/Debug/libsystem_config.a(clock.o)
 .text.disableModuleClock
                0x800294d8      0x1e8 ../../../../../..//binary/armv7a/gcc/am335x/system_config/Debug/libsystem_config.a(clock.o)
                0x800294d8                disableModuleClock
 .text.getModuleState
                0x800296c0       0x58 ../../../../../..//binary/armv7a/gcc/am335x/system_config/Debug/libsystem_config.a(clock.o)
                0x800296c0                getModuleState
 .text.disableSelModuleClock
                0x80029718       0xb4 ../../../../../..//binary/armv7a/gcc/am335x/system_config/Debug/libsystem_config.a(clock.o)
                0x80029718                disableSelModuleClock
 .text.enableSelModuleClock
                0x800297cc       0xa4 ../../../../../..//binary/armv7a/gcc/am335x/system_config/Debug/libsystem_config.a(clock.o)
                0x800297cc                enableSelModuleClock
 .text          0x80029870      0x488 ../../../../../..//binary/armv7a/gcc/am335x/system_config/Debug/libsystem_config.a(cp15.o)
                0x80029870                CP15ICacheDisable
                0x8002988c                CP15DCacheDisable
                0x800298a8                CP15ICacheEnable
                0x800298b8                CP15DCacheEnable
                0x800298c8                CP15DCacheFlush
                0x8002995c                CP15DCacheClean
                0x800299f0                CP15DCacheCleanFlush
                0x80029a84                CP15ICacheFlush
                0x80029a94                CP15DCacheCleanBuff
                0x80029ae8                CP15DCacheCleanFlushBuff
                0x80029b3c                CP15DCacheFlushBuff
                0x80029ba0                CP15ICacheFlushBuff
                0x80029bf4                CP15Ttb0Set
                0x80029c00                CP15TlbInvalidate
                0x80029c0c                CP15MMUDisable
                0x80029c24                CP15MMUEnable
                0x80029c38                CP15VectorBaseAddrSet
                0x80029c44                CP15BranchPredictorInvalidate
                0x80029c50                CP15BranchPredictionEnable
                0x80029c60                CP15BranchPredictionDisable
                0x80029c70                CP15DomainAccessClientSet
                0x80029c80                CP15ControlFeatureDisable
                0x80029c94                CP15ControlFeatureEnable
                0x80029ca8                CP15TtbCtlTtb0Config
                0x80029cb8                CP15AuxControlFeatureEnable
                0x80029ccc                CP15AuxControlFeatureDisable
                0x80029ce0                CP15MainIdPrimPartNumGet
 .text.DeviceVersionGet
                0x80029cf8       0x34 ../../../../../..//binary/armv7a/gcc/am335x/system_config/Debug/libsystem_config.a(device.o)
                0x80029cf8                DeviceVersionGet
 .text.IntDefaultHandler
                0x80029d2c       0x14 ../../../../../..//binary/armv7a/gcc/am335x/system_config/Debug/libsystem_config.a(interrupt.o)
 .text.IntRegister
                0x80029d40       0x34 ../../../../../..//binary/armv7a/gcc/am335x/system_config/Debug/libsystem_config.a(interrupt.o)
                0x80029d40                IntRegister
 .text.IntAINTCInit
                0x80029d74       0x90 ../../../../../..//binary/armv7a/gcc/am335x/system_config/Debug/libsystem_config.a(interrupt.o)
                0x80029d74                IntAINTCInit
 .text.IntPrioritySet
                0x80029e04       0x50 ../../../../../..//binary/armv7a/gcc/am335x/system_config/Debug/libsystem_config.a(interrupt.o)
                0x80029e04                IntPrioritySet
 .text.IntSystemEnable
                0x80029e54       0x4c ../../../../../..//binary/armv7a/gcc/am335x/system_config/Debug/libsystem_config.a(interrupt.o)
                0x80029e54                IntSystemEnable
 .text.IntMasterIRQEnable
                0x80029ea0       0x18 ../../../../../..//binary/armv7a/gcc/am335x/system_config/Debug/libsystem_config.a(interrupt.o)
                0x80029ea0                IntMasterIRQEnable
 .text.IntMasterIRQDisable
                0x80029eb8       0x18 ../../../../../..//binary/armv7a/gcc/am335x/system_config/Debug/libsystem_config.a(interrupt.o)
                0x80029eb8                IntMasterIRQDisable
 .text.IntMasterStatusGet
                0x80029ed0       0x20 ../../../../../..//binary/armv7a/gcc/am335x/system_config/Debug/libsystem_config.a(interrupt.o)
                0x80029ed0                IntMasterStatusGet
 .text.MMUInit  0x80029ef0       0x88 ../../../../../..//binary/armv7a/gcc/am335x/system_config/Debug/libsystem_config.a(mmu.o)
                0x80029ef0                MMUInit
 .text.MMUMemRegionMap
                0x80029f78      0x110 ../../../../../..//binary/armv7a/gcc/am335x/system_config/Debug/libsystem_config.a(mmu.o)
                0x80029f78                MMUMemRegionMap
 .text.MMUEnable
                0x8002a088       0x38 ../../../../../..//binary/armv7a/gcc/am335x/system_config/Debug/libsystem_config.a(mmu.o)
                0x8002a088                MMUEnable
 .text.start_boot
                0x8002a0c0       0x24 ../../../../../..//binary/armv7a/gcc/am335x/system_config/Debug/libsystem_config.a(startup.o)
                0x8002a0c0                start_boot
 .text.CopyVectorTable
                0x8002a0e4       0x98 ../../../../../..//binary/armv7a/gcc/am335x/system_config/Debug/libsystem_config.a(startup.o)
 .text.CPUIntStatus
                0x8002a17c       0x2c ../../../../../..//binary/armv7a/gcc/am335x/system_config/Debug/libsystem_config.a(cpu.o)
                0x8002a17c                CPUIntStatus
 .text.CPUirqd  0x8002a1a8       0x24 ../../../../../..//binary/armv7a/gcc/am335x/system_config/Debug/libsystem_config.a(cpu.o)
                0x8002a1a8                CPUirqd
 .text.CPUirqe  0x8002a1cc       0x24 ../../../../../..//binary/armv7a/gcc/am335x/system_config/Debug/libsystem_config.a(cpu.o)
                0x8002a1cc                CPUirqe
 .text          0x8002a1f0       0xf0 ../../../../../..//binary/armv7a/gcc/am335x/system_config/Debug/libsystem_config.a(exceptionhandler.o)
                0x8002a1f0                SVC_Handler
                0x8002a218                IRQHandler
                0x8002a2c4                FIQHandler
                0x8002a2c8                UndefInstHandler
                0x8002a2c8                AbortHandler
 .text.memcmp   0x8002a2e0       0xb4 /home/sungjae/gcc-arm-none-eabi-4_7-2012q4//arm-none-eabi/lib//libc.a(lib_a-memcmp.o)
                0x8002a2e0                memcmp
 .text.memcpy   0x8002a394       0xf4 /home/sungjae/gcc-arm-none-eabi-4_7-2012q4//arm-none-eabi/lib//libc.a(lib_a-memcpy.o)
                0x8002a394                memcpy
 .text.memset   0x8002a488       0xf8 /home/sungjae/gcc-arm-none-eabi-4_7-2012q4//arm-none-eabi/lib//libc.a(lib_a-memset.o)
                0x8002a488                memset
 .text.strcat   0x8002a580       0xa0 /home/sungjae/gcc-arm-none-eabi-4_7-2012q4//arm-none-eabi/lib//libc.a(lib_a-strcat.o)
                0x8002a580                strcat
 .text.strchr   0x8002a620      0x1dc /home/sungjae/gcc-arm-none-eabi-4_7-2012q4//arm-none-eabi/lib//libc.a(lib_a-strchr.o)
                0x8002a620                strchr
 .text.strcmp   0x8002a7fc       0x94 /home/sungjae/gcc-arm-none-eabi-4_7-2012q4//arm-none-eabi/lib//libc.a(lib_a-strcmp.o)
                0x8002a7fc                strcmp
 .text.strcmp_unaligned
                0x8002a890      0x19c /home/sungjae/gcc-arm-none-eabi-4_7-2012q4//arm-none-eabi/lib//libc.a(lib_a-strcmp.o)
 .text.strcpy   0x8002aa2c       0xf0 /home/sungjae/gcc-arm-none-eabi-4_7-2012q4//arm-none-eabi/lib//libc.a(lib_a-strcpy.o)
                0x8002aa2c                strcpy
 .text.strlen   0x8002ab1c       0x60 /home/sungjae/gcc-arm-none-eabi-4_7-2012q4//arm-none-eabi/lib//libc.a(lib_a-strlen.o)
                0x8002ab1c                strlen
 .text.strncmp  0x8002ab7c      0x140 /home/sungjae/gcc-arm-none-eabi-4_7-2012q4//arm-none-eabi/lib//libc.a(lib_a-strncmp.o)
                0x8002ab7c                strncmp
 .text.strncpy  0x8002acbc       0xc8 /home/sungjae/gcc-arm-none-eabi-4_7-2012q4//arm-none-eabi/lib//libc.a(lib_a-strncpy.o)
                0x8002acbc                strncpy
 .text          0x8002ad84      0x114 /home/sungjae/gcc-arm-none-eabi-4_7-2012q4//lib/gcc/arm-none-eabi/4.7.3//libgcc.a(_udivsi3.o)
                0x8002ad84                __udivsi3
                0x8002ad84                __aeabi_uidiv
                0x8002ae78                __aeabi_uidivmod
 .text          0x8002ae98      0x148 /home/sungjae/gcc-arm-none-eabi-4_7-2012q4//lib/gcc/arm-none-eabi/4.7.3//libgcc.a(_divsi3.o)
                0x8002ae98                __aeabi_idiv
                0x8002ae98                __divsi3
                0x8002afc0                __aeabi_idivmod
 .text          0x8002afe0        0x4 /home/sungjae/gcc-arm-none-eabi-4_7-2012q4//lib/gcc/arm-none-eabi/4.7.3//libgcc.a(_dvmd_tls.o)
                0x8002afe0                __aeabi_ldiv0
                0x8002afe0                __aeabi_idiv0
 *(.rodata*)
 .rodata.cm3image
                0x8002afe4     0x2df4 Debug/cm3wkup_proxy.o
                0x8002afe4                cm3image
 .rodata        0x8002ddd8       0x14 Debug/cm3wkup_proxy.o
 .rodata        0x8002ddec       0x7c Debug/demoDvfs.o
 .rodata        0x8002de68      0x170 Debug/demoEnet.o
 .rodata.g_psConfigCGIURIs
                0x8002dfd8        0x8 Debug/demoEnet.o
 .rodata        0x8002dfe0      0x378 Debug/demoMain.o
 .rodata.pageNavSpecMenu
                0x8002e358       0x30 Debug/demoMain.o
 .rodata.pageNavSpecWeb
                0x8002e388       0x20 Debug/demoMain.o
 .rodata.pageNavSpecRtc
                0x8002e3a8       0x20 Debug/demoMain.o
 .rodata.pageNavSpecGPIO
                0x8002e3c8       0x18 Debug/demoMain.o
 .rodata.pageNavSpecTimer
                0x8002e3e0       0x18 Debug/demoMain.o
 .rodata.pageNavSpecMMCSD
                0x8002e3f8       0x20 Debug/demoMain.o
 .rodata.pageNavSpecPM
                0x8002e418       0x40 Debug/demoMain.o
 .rodata        0x8002e458       0xdc Debug/demoPwrMgmnt.o
 .rodata        0x8002e534      0x194 Debug/demoRtc.o
 .rodata        0x8002e6c8      0x410 Debug/demoSdFs.o
 .rodata        0x8002ead8       0x18 Debug/fat_mmcsd.o
 .rodata        0x8002eaf0        0xc Debug/ff.o
 .rodata.data_ti_script_js
                0x8002eafc     0x2084 Debug/httpd_io.o
 .rodata.data_jquery_1_6_4_min_js
                0x80030b80    0x166a0 Debug/httpd_io.o
 .rodata.data_tip_png
                0x80047220      0x154 Debug/httpd_io.o
 .rodata.data_button_png
                0x80047374      0x1a4 Debug/httpd_io.o
 .rodata.data_hdr_ti_logo_gif
                0x80047518     0x11f4 Debug/httpd_io.o
 .rodata.data_up_png
                0x8004870c      0x458 Debug/httpd_io.o
 .rodata.data_index_html
                0x80048b64      0x6e0 Debug/httpd_io.o
 .rodata.data_splash_png
                0x80049244      0x2fc Debug/httpd_io.o
 .rodata.data_canvas_png
                0x80049540      0x368 Debug/httpd_io.o
 .rodata.data_button_dim_png
                0x800498a8      0x1a8 Debug/httpd_io.o
 .rodata.data_button_dim_sel_png
                0x80049a50      0x1c4 Debug/httpd_io.o
 .rodata.data_board_js
                0x80049c14      0xdb4 Debug/httpd_io.o
 .rodata.data_theme_css
                0x8004a9c8      0xdc4 Debug/httpd_io.o
 .rodata.data_gradient_header_png
                0x8004b78c      0x2d0 Debug/httpd_io.o
 .rodata.data_style_css
                0x8004ba5c     0x1108 Debug/httpd_io.o
 .rodata.data_button_sel_png
                0x8004cb64      0x1c0 Debug/httpd_io.o
 .rodata.data_prev_png
                0x8004cd24      0x49c Debug/httpd_io.o
 .rodata.data_next_png
                0x8004d1c0      0x4b8 Debug/httpd_io.o
 .rodata.file_next_png
                0x8004d678       0x14 Debug/httpd_io.o
                0x8004d678                file_next_png
 .rodata.file_prev_png
                0x8004d68c       0x14 Debug/httpd_io.o
                0x8004d68c                file_prev_png
 .rodata.file_button_sel_png
                0x8004d6a0       0x14 Debug/httpd_io.o
                0x8004d6a0                file_button_sel_png
 .rodata.file_style_css
                0x8004d6b4       0x14 Debug/httpd_io.o
                0x8004d6b4                file_style_css
 .rodata.file_gradient_header_png
                0x8004d6c8       0x14 Debug/httpd_io.o
                0x8004d6c8                file_gradient_header_png
 .rodata.file_theme_css
                0x8004d6dc       0x14 Debug/httpd_io.o
                0x8004d6dc                file_theme_css
 .rodata.file_board_js
                0x8004d6f0       0x14 Debug/httpd_io.o
                0x8004d6f0                file_board_js
 .rodata.file_button_dim_sel_png
                0x8004d704       0x14 Debug/httpd_io.o
                0x8004d704                file_button_dim_sel_png
 .rodata.file_button_dim_png
                0x8004d718       0x14 Debug/httpd_io.o
                0x8004d718                file_button_dim_png
 .rodata.file_canvas_png
                0x8004d72c       0x14 Debug/httpd_io.o
                0x8004d72c                file_canvas_png
 .rodata.file_splash_png
                0x8004d740       0x14 Debug/httpd_io.o
                0x8004d740                file_splash_png
 .rodata.file_index_html
                0x8004d754       0x14 Debug/httpd_io.o
                0x8004d754                file_index_html
 .rodata.file_up_png
                0x8004d768       0x14 Debug/httpd_io.o
                0x8004d768                file_up_png
 .rodata.file_hdr_ti_logo_gif
                0x8004d77c       0x14 Debug/httpd_io.o
                0x8004d77c                file_hdr_ti_logo_gif
 .rodata.file_button_png
                0x8004d790       0x14 Debug/httpd_io.o
                0x8004d790                file_button_png
 .rodata.file_tip_png
                0x8004d7a4       0x14 Debug/httpd_io.o
                0x8004d7a4                file_tip_png
 .rodata.file_jquery_1_6_4_min_js
                0x8004d7b8       0x14 Debug/httpd_io.o
                0x8004d7b8                file_jquery_1_6_4_min_js
 .rodata.file_ti_script_js
                0x8004d7cc       0x14 Debug/httpd_io.o
                0x8004d7cc                file_ti_script_js
 .rodata        0x8004d7e0       0x7c Debug/httpd_io.o
 .rodata.g_psDefaultFilenames
                0x8004d85c       0x28 Debug/httpd_io.o
                0x8004d85c                g_psDefaultFilenames
 .rodata.memp_sizes
                0x8004d884       0x10 Debug/lwiplib.o
 .rodata.memp_num
                0x8004d894       0x10 Debug/lwiplib.o
 .rodata.memp_bases
                0x8004d8a4       0x1c Debug/lwiplib.o
 .rodata        0x8004d8c0      0x510 Debug/lwiplib.o
 .rodata.tcp_pcb_lists
                0x8004ddd0       0x10 Debug/lwiplib.o
                0x8004ddd0                tcp_pcb_lists
 .rodata.ip_addr_any
                0x8004dde0        0x4 Debug/lwiplib.o
                0x8004dde0                ip_addr_any
 .rodata.ip_addr_broadcast
                0x8004dde4        0x4 Debug/lwiplib.o
                0x8004dde4                ip_addr_broadcast
 .rodata.ethbroadcast
                0x8004dde8        0x8 Debug/lwiplib.o
                0x8004dde8                ethbroadcast
 .rodata.ethzero
                0x8004ddf0        0x8 Debug/lwiplib.o
                0x8004ddf0                ethzero
 .rodata        0x8004ddf8       0x50 ../../../../../..//binary/armv7a/gcc/utils/Debug/libutils.a(consoleUtils.o)
 .rodata        0x8004de48       0x60 ../../../../../..//binary/armv7a/gcc/utils/Debug/libutils.a(uartStdio.o)
 .rodata.g_pcHex
                0x8004dea8        0x4 ../../../../../..//binary/armv7a/gcc/utils/Debug/libutils.a(uartStdio.o)
 .rodata        0x8004deac       0x30 ../../../../../..//binary/armv7a/gcc/am335x/beaglebone/platform/Debug/libplatform.a(board.o)
 .rodata        0x8004dedc       0x60 ../../../../../..//binary/armv7a/gcc/mmcsdlib/Debug/libmmcsd.a(hs_mmcsdlib.o)
 .rodata.AM335X_VECTOR_BASE
                0x8004df3c        0x4 ../../../../../..//binary/armv7a/gcc/am335x/system_config/Debug/libsystem_config.a(startup.o)
                0x8004df3c                AM335X_VECTOR_BASE
 .rodata.vecTbl
                0x8004df40       0x38 ../../../../../..//binary/armv7a/gcc/am335x/system_config/Debug/libsystem_config.a(startup.o)

.glue_7         0x8004df78        0x0
 .glue_7        0x00000000        0x0 linker stubs

.glue_7t        0x8004df78        0x0
 .glue_7t       0x00000000        0x0 linker stubs

.vfp11_veneer   0x8004df78        0x0
 .vfp11_veneer  0x00000000        0x0 linker stubs

.v4_bx          0x8004df78        0x0
 .v4_bx         0x00000000        0x0 linker stubs

.iplt           0x8004df78        0x0
 .iplt          0x00000000        0x0 Debug/am335x_clock_data.o

.rel.dyn        0x8004df78        0x0
 .rel.iplt      0x00000000        0x0 Debug/am335x_clock_data.o

.data           0x8004df78     0x4bfc
                0x8004df78                . = ALIGN (0x4)
 *(.data*)
 .data.l4lsClkDomain
                0x8004df78      0x154 Debug/am335x_clock_data.o
                0x8004df78                l4lsClkDomain
 .data.lcdcGclkClock
                0x8004e0cc       0x58 Debug/am335x_clock_data.o
                0x8004e0cc                lcdcGclkClock
 .data.gpio3GclkClock
                0x8004e124       0x58 Debug/am335x_clock_data.o
                0x8004e124                gpio3GclkClock
 .data.i2cGclkClock
                0x8004e17c       0x58 Debug/am335x_clock_data.o
                0x8004e17c                i2cGclkClock
 .data.spiGclkClock
                0x8004e1d4       0x58 Debug/am335x_clock_data.o
                0x8004e1d4                spiGclkClock
 .data.uartGclkClock
                0x8004e22c       0x58 Debug/am335x_clock_data.o
                0x8004e22c                uartGclkClock
 .data.rtc32kGclkClock
                0x8004e284       0x58 Debug/am335x_clock_data.o
                0x8004e284                rtc32kGclkClock
 .data.wdt1GclkClock
                0x8004e2dc       0x58 Debug/am335x_clock_data.o
                0x8004e2dc                wdt1GclkClock
 .data.adcFclkClock
                0x8004e334       0x58 Debug/am335x_clock_data.o
                0x8004e334                adcFclkClock
 .data.l4WkupGclkClock
                0x8004e38c       0x58 Debug/am335x_clock_data.o
                0x8004e38c                l4WkupGclkClock
 .data.uart0GclkClock
                0x8004e3e4       0x58 Debug/am335x_clock_data.o
                0x8004e3e4                uart0GclkClock
 .data.mcaspGclkClock
                0x8004e43c       0x58 Debug/am335x_clock_data.o
                0x8004e43c                mcaspGclkClock
 .data.cpswCptsRftGclkClock
                0x8004e494       0x58 Debug/am335x_clock_data.o
                0x8004e494                cpswCptsRftGclkClock
 .data.emifGclkClock
                0x8004e4ec       0x58 Debug/am335x_clock_data.o
                0x8004e4ec                emifGclkClock
 .data.l4WkupAonGclkClock
                0x8004e544       0x58 Debug/am335x_clock_data.o
                0x8004e544                l4WkupAonGclkClock
 .data.mpuIclkClock
                0x8004e59c       0x58 Debug/am335x_clock_data.o
                0x8004e59c                mpuIclkClock
 .data.lcdcL3IclkClock
                0x8004e5f4       0x58 Debug/am335x_clock_data.o
                0x8004e5f4                lcdcL3IclkClock
 .data.lcdcL4IclkClock
                0x8004e64c       0x58 Debug/am335x_clock_data.o
                0x8004e64c                lcdcL4IclkClock
 .data.core100MClock
                0x8004e6a4       0x58 Debug/am335x_clock_data.o
                0x8004e6a4                core100MClock
 .data.l3GclkClock
                0x8004e6fc       0x58 Debug/am335x_clock_data.o
                0x8004e6fc                l3GclkClock
 .data.l4fwGclkClock
                0x8004e754       0x58 Debug/am335x_clock_data.o
                0x8004e754                l4fwGclkClock
 .data.l3sGclkClock
                0x8004e7ac       0x58 Debug/am335x_clock_data.o
                0x8004e7ac                l3sGclkClock
 .data.cpsw125MhzGclkClock
                0x8004e804       0x58 Debug/am335x_clock_data.o
                0x8004e804                cpsw125MhzGclkClock
 .data.cpsw5MhzGclkClock
                0x8004e85c       0x58 Debug/am335x_clock_data.o
                0x8004e85c                cpsw5MhzGclkClock
 .data.i2c0GclkClock
                0x8004e8b4       0x58 Debug/am335x_clock_data.o
                0x8004e8b4                i2c0GclkClock
 .data.gpio0GclkClock
                0x8004e90c       0x58 Debug/am335x_clock_data.o
                0x8004e90c                gpio0GclkClock
 .data.timer1IclkClock
                0x8004e964       0x58 Debug/am335x_clock_data.o
                0x8004e964                timer1IclkClock
 .data.wkupClkDomain
                0x8004e9bc      0x154 Debug/am335x_clock_data.o
                0x8004e9bc                wkupClkDomain
 .data.dpllCore
                0x8004eb10       0x80 Debug/am335x_clock_data.o
                0x8004eb10                dpllCore
 .data.dpllMpu  0x8004eb90       0x80 Debug/am335x_clock_data.o
                0x8004eb90                dpllMpu
 .data.dpllPer  0x8004ec10       0x80 Debug/am335x_clock_data.o
                0x8004ec10                dpllPer
 .data.dpllDDR  0x8004ec90       0x80 Debug/am335x_clock_data.o
                0x8004ec90                dpllDDR
 .data.sysClkInClock
                0x8004ed10       0x58 Debug/am335x_clock_data.o
                0x8004ed10                sysClkInClock
 .data.clk32768Clock
                0x8004ed68       0x58 Debug/am335x_clock_data.o
                0x8004ed68                clk32768Clock
 .data.dpllPerClock
                0x8004edc0       0x58 Debug/am335x_clock_data.o
                0x8004edc0                dpllPerClock
 .data.clk32KhzClock
                0x8004ee18       0x58 Debug/am335x_clock_data.o
                0x8004ee18                clk32KhzClock
 .data.dpllCoreClock
                0x8004ee70       0x58 Debug/am335x_clock_data.o
                0x8004ee70                dpllCoreClock
 .data.dpllCoreM4ClkDivider
                0x8004eec8       0x3c Debug/am335x_clock_data.o
                0x8004eec8                dpllCoreM4ClkDivider
 .data.corePllM4Clock
                0x8004ef04       0x58 Debug/am335x_clock_data.o
                0x8004ef04                corePllM4Clock
 .data.sysclk1Clock
                0x8004ef5c       0x58 Debug/am335x_clock_data.o
                0x8004ef5c                sysclk1Clock
 .data.dpllMpuClock
                0x8004efb4       0x58 Debug/am335x_clock_data.o
                0x8004efb4                dpllMpuClock
 .data.dpllDdrClock
                0x8004f00c       0x58 Debug/am335x_clock_data.o
                0x8004f00c                dpllDdrClock
 .data.dpllDdrM2ClkDivider
                0x8004f064       0x3c Debug/am335x_clock_data.o
                0x8004f064                dpllDdrM2ClkDivider
 .data.ddrPllM2Clock
                0x8004f0a0       0x58 Debug/am335x_clock_data.o
                0x8004f0a0                ddrPllM2Clock
 .data.clk32KhzTimerClock
                0x8004f0f8       0x58 Debug/am335x_clock_data.o
                0x8004f0f8                clk32KhzTimerClock
 .data.timer2ClkClock
                0x8004f150       0x58 Debug/am335x_clock_data.o
                0x8004f150                timer2ClkClock
 .data.timer3ClkClock
                0x8004f1a8       0x58 Debug/am335x_clock_data.o
                0x8004f1a8                timer3ClkClock
 .data.timer4ClkClock
                0x8004f200       0x58 Debug/am335x_clock_data.o
                0x8004f200                timer4ClkClock
 .data.timer6ClkClock
                0x8004f258       0x58 Debug/am335x_clock_data.o
                0x8004f258                timer6ClkClock
 .data.timer7ClkClock
                0x8004f2b0       0x58 Debug/am335x_clock_data.o
                0x8004f2b0                timer7ClkClock
 .data.timer2GclkClock
                0x8004f308       0x58 Debug/am335x_clock_data.o
                0x8004f308                timer2GclkClock
 .data.timer3GclkClock
                0x8004f360       0x58 Debug/am335x_clock_data.o
                0x8004f360                timer3GclkClock
 .data.timer4GclkClock
                0x8004f3b8       0x58 Debug/am335x_clock_data.o
                0x8004f3b8                timer4GclkClock
 .data.timer6GclkClock
                0x8004f410       0x58 Debug/am335x_clock_data.o
                0x8004f410                timer6GclkClock
 .data.timer7GclkClock
                0x8004f468       0x58 Debug/am335x_clock_data.o
                0x8004f468                timer7GclkClock
 .data.timer2FclkClock
                0x8004f4c0       0x58 Debug/am335x_clock_data.o
                0x8004f4c0                timer2FclkClock
 .data.timer3FclkClock
                0x8004f518       0x58 Debug/am335x_clock_data.o
                0x8004f518                timer3FclkClock
 .data.timer4FclkClock
                0x8004f570       0x58 Debug/am335x_clock_data.o
                0x8004f570                timer4FclkClock
 .data.timer6FclkClock
                0x8004f5c8       0x58 Debug/am335x_clock_data.o
                0x8004f5c8                timer6FclkClock
 .data.timer7FclkClock
                0x8004f620       0x58 Debug/am335x_clock_data.o
                0x8004f620                timer7FclkClock
 .data.timer1GclkClock
                0x8004f678       0x58 Debug/am335x_clock_data.o
                0x8004f678                timer1GclkClock
 .data.timer1FclkClock
                0x8004f6d0       0x58 Debug/am335x_clock_data.o
                0x8004f6d0                timer1FclkClock
 .data.rtcClkDomain
                0x8004f728      0x154 Debug/am335x_clock_data.o
                0x8004f728                rtcClkDomain
 .data.rtcFclkClock
                0x8004f87c       0x58 Debug/am335x_clock_data.o
                0x8004f87c                rtcFclkClock
 .data.dpllPerM2ClkDivider
                0x8004f8d4       0x3c Debug/am335x_clock_data.o
                0x8004f8d4                dpllPerM2ClkDivider
 .data.clk192MhzClock
                0x8004f910       0x58 Debug/am335x_clock_data.o
                0x8004f910                clk192MhzClock
 .data.wdt1ClkClock
                0x8004f968       0x58 Debug/am335x_clock_data.o
                0x8004f968                wdt1ClkClock
 .data.wdt1FclkClock
                0x8004f9c0       0x58 Debug/am335x_clock_data.o
                0x8004f9c0                wdt1FclkClock
 .data.perL3ClkDomain
                0x8004fa18      0x154 Debug/am335x_clock_data.o
                0x8004fa18                perL3ClkDomain
 .data.mcasp1FclkClock
                0x8004fb6c       0x58 Debug/am335x_clock_data.o
                0x8004fb6c                mcasp1FclkClock
 .data.dpllPerClkdcoldoDivider
                0x8004fbc4       0x3c Debug/am335x_clock_data.o
                0x8004fbc4                dpllPerClkdcoldoDivider
 .data.perPllClkdcoldoClock
                0x8004fc00       0x58 Debug/am335x_clock_data.o
                0x8004fc00                perPllClkdcoldoClock
 .data.usbPllclkClock
                0x8004fc58       0x58 Debug/am335x_clock_data.o
                0x8004fc58                usbPllclkClock
 .data.l4RtcGclkIclkClock
                0x8004fcb0       0x58 Debug/am335x_clock_data.o
                0x8004fcb0                l4RtcGclkIclkClock
 .data.rtcIclkClock
                0x8004fd08       0x58 Debug/am335x_clock_data.o
                0x8004fd08                rtcIclkClock
 .data.adcTscIclkClock
                0x8004fd60       0x58 Debug/am335x_clock_data.o
                0x8004fd60                adcTscIclkClock
 .data.wdt1IclkClock
                0x8004fdb8       0x58 Debug/am335x_clock_data.o
                0x8004fdb8                wdt1IclkClock
 .data.uart0IclkClock
                0x8004fe10       0x58 Debug/am335x_clock_data.o
                0x8004fe10                uart0IclkClock
 .data.l4WkupAonClkDomain
                0x8004fe68      0x154 Debug/am335x_clock_data.o
                0x8004fe68                l4WkupAonClkDomain
 .data.wkupM3IclkClock
                0x8004ffbc       0x58 Debug/am335x_clock_data.o
                0x8004ffbc                wkupM3IclkClock
 .data.l4WkupIclkClock
                0x80050014       0x58 Debug/am335x_clock_data.o
                0x80050014                l4WkupIclkClock
 .data.mpuClkDomain
                0x8005006c      0x154 Debug/am335x_clock_data.o
                0x8005006c                mpuClkDomain
 .data.dpllMpuM2ClkDivider
                0x800501c0       0x3c Debug/am335x_clock_data.o
                0x800501c0                dpllMpuM2ClkDivider
 .data.mpuPllM2Clock
                0x800501fc       0x58 Debug/am335x_clock_data.o
                0x800501fc                mpuPllM2Clock
 .data.dpllCoreM5ClkDivider
                0x80050254       0x3c Debug/am335x_clock_data.o
                0x80050254                dpllCoreM5ClkDivider
 .data.corePllM5Clock
                0x80050290       0x58 Debug/am335x_clock_data.o
                0x80050290                corePllM5Clock
 .data.sysclk2Clock
                0x800502e8       0x58 Debug/am335x_clock_data.o
                0x800502e8                sysclk2Clock
 .data.cpswCptsRftMuxClock
                0x80050340       0x58 Debug/am335x_clock_data.o
                0x80050340                cpswCptsRftMuxClock
 .data.lcdcMuxClock
                0x80050398       0x58 Debug/am335x_clock_data.o
                0x80050398                lcdcMuxClock
 .data.lcdcFclkClock
                0x800503f0       0x58 Debug/am335x_clock_data.o
                0x800503f0                lcdcFclkClock
 .data.lcdcClkDomain
                0x80050448      0x154 Debug/am335x_clock_data.o
                0x80050448                lcdcClkDomain
 .data.lcdL3GclkClock
                0x8005059c       0x58 Debug/am335x_clock_data.o
                0x8005059c                lcdL3GclkClock
 .data.lcdL4sGclkClock
                0x800505f4       0x58 Debug/am335x_clock_data.o
                0x800505f4                lcdL4sGclkClock
 .data.lcdcL4ClkEnableClock
                0x8005064c       0x58 Debug/am335x_clock_data.o
                0x8005064c                lcdcL4ClkEnableClock
 .data.l3IclkClock
                0x800506a4       0x58 Debug/am335x_clock_data.o
                0x800506a4                l3IclkClock
 .data.ocmcramIclkClock
                0x800506fc       0x58 Debug/am335x_clock_data.o
                0x800506fc                ocmcramIclkClock
 .data.tpccIclkClock
                0x80050754       0x58 Debug/am335x_clock_data.o
                0x80050754                tpccIclkClock
 .data.tptc0IclkClock
                0x800507ac       0x58 Debug/am335x_clock_data.o
                0x800507ac                tptc0IclkClock
 .data.tptc1IclkClock
                0x80050804       0x58 Debug/am335x_clock_data.o
                0x80050804                tptc1IclkClock
 .data.tptc2IclkClock
                0x8005085c       0x58 Debug/am335x_clock_data.o
                0x8005085c                tptc2IclkClock
 .data.emifIclkClock
                0x800508b4       0x58 Debug/am335x_clock_data.o
                0x800508b4                emifIclkClock
 .data.l4fwClkDomain
                0x8005090c      0x154 Debug/am335x_clock_data.o
                0x8005090c                l4fwClkDomain
 .data.l4fwIclkClock
                0x80050a60       0x58 Debug/am335x_clock_data.o
                0x80050a60                l4fwIclkClock
 .data.l3sClkDomain
                0x80050ab8      0x154 Debug/am335x_clock_data.o
                0x80050ab8                l3sClkDomain
 .data.usb0IclkClock
                0x80050c0c       0x58 Debug/am335x_clock_data.o
                0x80050c0c                usb0IclkClock
 .data.gpmcIclkClock
                0x80050c64       0x58 Debug/am335x_clock_data.o
                0x80050c64                gpmcIclkClock
 .data.l3l4IcEnableClock
                0x80050cbc       0x58 Debug/am335x_clock_data.o
                0x80050cbc                l3l4IcEnableClock
 .data.mcasp1IclkClock
                0x80050d14       0x58 Debug/am335x_clock_data.o
                0x80050d14                mcasp1IclkClock
 .data.l4lsGclkClock
                0x80050d6c       0x58 Debug/am335x_clock_data.o
                0x80050d6c                l4lsGclkClock
 .data.l4lsIclkClock
                0x80050dc4       0x58 Debug/am335x_clock_data.o
                0x80050dc4                l4lsIclkClock
 .data.mailbox0IclkClock
                0x80050e1c       0x58 Debug/am335x_clock_data.o
                0x80050e1c                mailbox0IclkClock
 .data.epwmss0IclkClock
                0x80050e74       0x58 Debug/am335x_clock_data.o
                0x80050e74                epwmss0IclkClock
 .data.gpio3IclkClock
                0x80050ecc       0x58 Debug/am335x_clock_data.o
                0x80050ecc                gpio3IclkClock
 .data.gpio1IclkClock
                0x80050f24       0x58 Debug/am335x_clock_data.o
                0x80050f24                gpio1IclkClock
 .data.spi0IclkClock
                0x80050f7c       0x58 Debug/am335x_clock_data.o
                0x80050f7c                spi0IclkClock
 .data.i2c1IclkClock
                0x80050fd4       0x58 Debug/am335x_clock_data.o
                0x80050fd4                i2c1IclkClock
 .data.i2c0IclkClock
                0x8005102c       0x58 Debug/am335x_clock_data.o
                0x8005102c                i2c0IclkClock
 .data.gpio0IclkClock
                0x80051084       0x58 Debug/am335x_clock_data.o
                0x80051084                gpio0IclkClock
 .data.timer2IclkClock
                0x800510dc       0x58 Debug/am335x_clock_data.o
                0x800510dc                timer2IclkClock
 .data.timer3IclkClock
                0x80051134       0x58 Debug/am335x_clock_data.o
                0x80051134                timer3IclkClock
 .data.timer4IclkClock
                0x8005118c       0x58 Debug/am335x_clock_data.o
                0x8005118c                timer4IclkClock
 .data.timer6IclkClock
                0x800511e4       0x58 Debug/am335x_clock_data.o
                0x800511e4                timer6IclkClock
 .data.timer7IclkClock
                0x8005123c       0x58 Debug/am335x_clock_data.o
                0x8005123c                timer7IclkClock
 .data.cpsw125MhzClkDomain
                0x80051294      0x154 Debug/am335x_clock_data.o
                0x80051294                cpsw125MhzClkDomain
 .data.cpsw125MhzIclkClock
                0x800513e8       0x58 Debug/am335x_clock_data.o
                0x800513e8                cpsw125MhzIclkClock
 .data.cpswMuxClock
                0x80051440       0x58 Debug/am335x_clock_data.o
                0x80051440                cpswMuxClock
 .data.l4hsClkDomain
                0x80051498      0x154 Debug/am335x_clock_data.o
                0x80051498                l4hsClkDomain
 .data.cpsw5MhzFclkClock
                0x800515ec       0x58 Debug/am335x_clock_data.o
                0x800515ec                cpsw5MhzFclkClock
 .data.cpsw50MhzGclkClock
                0x80051644       0x58 Debug/am335x_clock_data.o
                0x80051644                cpsw50MhzGclkClock
 .data.cpsw50MhzFclkClock
                0x8005169c       0x58 Debug/am335x_clock_data.o
                0x8005169c                cpsw50MhzFclkClock
 .data.cpsw250MhzGclkClock
                0x800516f4       0x58 Debug/am335x_clock_data.o
                0x800516f4                cpsw250MhzGclkClock
 .data.cpsw250MhzFclkClock
                0x8005174c       0x58 Debug/am335x_clock_data.o
                0x8005174c                cpsw250MhzFclkClock
 .data.cpswCptsFclkClock
                0x800517a4       0x58 Debug/am335x_clock_data.o
                0x800517a4                cpswCptsFclkClock
 .data.emifFclkClock
                0x800517fc       0x58 Debug/am335x_clock_data.o
                0x800517fc                emifFclkClock
 .data.gpio1GclkClock
                0x80051854       0x58 Debug/am335x_clock_data.o
                0x80051854                gpio1GclkClock
 .data.gpio3OptClock
                0x800518ac       0x58 Debug/am335x_clock_data.o
                0x800518ac                gpio3OptClock
 .data.gpio1OptClock
                0x80051904       0x58 Debug/am335x_clock_data.o
                0x80051904                gpio1OptClock
 .data.i2c1FclkClock
                0x8005195c       0x58 Debug/am335x_clock_data.o
                0x8005195c                i2c1FclkClock
 .data.i2c0FclkClock
                0x800519b4       0x58 Debug/am335x_clock_data.o
                0x800519b4                i2c0FclkClock
 .data.gpio0OptClock
                0x80051a0c       0x58 Debug/am335x_clock_data.o
                0x80051a0c                gpio0OptClock
 .data.spi0FclkClock
                0x80051a64       0x58 Debug/am335x_clock_data.o
                0x80051a64                spi0FclkClock
 .data.uart0FclkClock
                0x80051abc       0x58 Debug/am335x_clock_data.o
                0x80051abc                uart0FclkClock
 .data.mpuModClock
                0x80051b14       0x50 Debug/am335x_clock_data.o
                0x80051b14                mpuModClock
 .data.emifModClock
                0x80051b64       0x50 Debug/am335x_clock_data.o
                0x80051b64                emifModClock
 .data.timer2ModClock
                0x80051bb4       0x50 Debug/am335x_clock_data.o
                0x80051bb4                timer2ModClock
 .data.timer3ModClock
                0x80051c04       0x50 Debug/am335x_clock_data.o
                0x80051c04                timer3ModClock
 .data.timer4ModClock
                0x80051c54       0x50 Debug/am335x_clock_data.o
                0x80051c54                timer4ModClock
 .data.timer6ModClock
                0x80051ca4       0x50 Debug/am335x_clock_data.o
                0x80051ca4                timer6ModClock
 .data.timer7ModClock
                0x80051cf4       0x50 Debug/am335x_clock_data.o
                0x80051cf4                timer7ModClock
 .data.timer1ModClock
                0x80051d44       0x50 Debug/am335x_clock_data.o
                0x80051d44                timer1ModClock
 .data.i2c1ModClock
                0x80051d94       0x50 Debug/am335x_clock_data.o
                0x80051d94                i2c1ModClock
 .data.gpio3ModClock
                0x80051de4       0x50 Debug/am335x_clock_data.o
                0x80051de4                gpio3ModClock
 .data.spi0ModClock
                0x80051e34       0x50 Debug/am335x_clock_data.o
                0x80051e34                spi0ModClock
 .data.uart0ModClock
                0x80051e84       0x50 Debug/am335x_clock_data.o
                0x80051e84                uart0ModClock
 .data.mailbox0ModClock
                0x80051ed4       0x50 Debug/am335x_clock_data.o
                0x80051ed4                mailbox0ModClock
 .data.epwmss0ModClock
                0x80051f24       0x50 Debug/am335x_clock_data.o
                0x80051f24                epwmss0ModClock
 .data.rtcModClock
                0x80051f74       0x50 Debug/am335x_clock_data.o
                0x80051f74                rtcModClock
 .data.l4lsModClock
                0x80051fc4       0x50 Debug/am335x_clock_data.o
                0x80051fc4                l4lsModClock
 .data.wdt1ModClock
                0x80052014       0x50 Debug/am335x_clock_data.o
                0x80052014                wdt1ModClock
 .data.adcTscModClock
                0x80052064       0x50 Debug/am335x_clock_data.o
                0x80052064                adcTscModClock
 .data.lcdcModClock
                0x800520b4       0x50 Debug/am335x_clock_data.o
                0x800520b4                lcdcModClock
 .data.wkupM3ModClock
                0x80052104       0x50 Debug/am335x_clock_data.o
                0x80052104                wkupM3ModClock
 .data.l4WkupModClock
                0x80052154       0x50 Debug/am335x_clock_data.o
                0x80052154                l4WkupModClock
 .data.mcasp1ModClock
                0x800521a4       0x50 Debug/am335x_clock_data.o
                0x800521a4                mcasp1ModClock
 .data.ocmcramModClock
                0x800521f4       0x50 Debug/am335x_clock_data.o
                0x800521f4                ocmcramModClock
 .data.tpccModClock
                0x80052244       0x50 Debug/am335x_clock_data.o
                0x80052244                tpccModClock
 .data.tptc0ModClock
                0x80052294       0x50 Debug/am335x_clock_data.o
                0x80052294                tptc0ModClock
 .data.tptc1ModClock
                0x800522e4       0x50 Debug/am335x_clock_data.o
                0x800522e4                tptc1ModClock
 .data.tptc2ModClock
                0x80052334       0x50 Debug/am335x_clock_data.o
                0x80052334                tptc2ModClock
 .data.l3ModClock
                0x80052384       0x50 Debug/am335x_clock_data.o
                0x80052384                l3ModClock
 .data.gpmcModClock
                0x800523d4       0x50 Debug/am335x_clock_data.o
                0x800523d4                gpmcModClock
 .data.usbModClock
                0x80052424       0x50 Debug/am335x_clock_data.o
                0x80052424                usbModClock
 .data.l4fwModClock
                0x80052474       0x50 Debug/am335x_clock_data.o
                0x80052474                l4fwModClock
 .data.cpgmac0ModClock
                0x800524c4       0x50 Debug/am335x_clock_data.o
                0x800524c4                cpgmac0ModClock
 .data.i2c0ModClock
                0x80052514       0x50 Debug/am335x_clock_data.o
                0x80052514                i2c0ModClock
 .data.gpio0ModClock
                0x80052564       0x50 Debug/am335x_clock_data.o
                0x80052564                gpio0ModClock
 .data.gpio1ModClock
                0x800525b4       0x50 Debug/am335x_clock_data.o
                0x800525b4                gpio1ModClock
 .data.ModuleClockList
                0x80052604       0x8c Debug/am335x_clock_data.o
                0x80052604                ModuleClockList
 .data.ds0Data  0x80052690       0x10 Debug/cm3wkup_proxy.o
                0x80052690                ds0Data
 .data.ds1Data  0x800526a0       0x10 Debug/cm3wkup_proxy.o
                0x800526a0                ds1Data
 .data.standbyData
                0x800526b0       0x10 Debug/cm3wkup_proxy.o
                0x800526b0                standbyData
 .data.dsDataM3reset
                0x800526c0       0x10 Debug/cm3wkup_proxy.o
                0x800526c0                dsDataM3reset
 .data.oppTable
                0x800526d0       0x20 Debug/demoDvfs.o
                0x800526d0                oppTable
 .data.oppStrMap
                0x800526f0       0x28 Debug/demoDvfs.o
                0x800526f0                oppStrMap
 .data.freqStrMap
                0x80052718       0x28 Debug/demoDvfs.o
                0x80052718                freqStrMap
 .data.voltStrMap
                0x80052740       0x20 Debug/demoDvfs.o
                0x80052740                voltStrMap
 .data.flag     0x80052760        0xc Debug/demoI2c.o
                0x80052760                flag
 .data.contextInfo
                0x8005276c       0x38 Debug/demoMain.o
                0x8005276c                contextInfo
 .data.wakeSource
                0x800527a4        0x4 Debug/demoPwrMgmnt.o
                0x800527a4                wakeSource
 .data.pmModuleList
                0x800527a8       0x80 Debug/demoPwrMgmnt.o
                0x800527a8                pmModuleList
 .data.sleepModeStrMap
                0x80052828       0x28 Debug/demoPwrMgmnt.o
                0x80052828                sleepModeStrMap
 .data.g_sFresultStrings
                0x80052850       0x70 Debug/demoSdFs.o
                0x80052850                g_sFresultStrings
 .data.g_cCwdBuf
                0x800528c0      0x200 Debug/demoSdFs.o
 .data.g_sCmdTable
                0x80052ac0       0x78 Debug/demoSdFs.o
                0x80052ac0                g_sCmdTable
 .data.timerCount
                0x80052b38       0x28 Debug/demoTimer.o
                0x80052b38                timerCount
 .data.iss.7016
                0x80052b60        0x4 Debug/lwiplib.o
 .data.port.6880
                0x80052b64        0x2 Debug/lwiplib.o
 *fill*         0x80052b66        0x2 00
 .data.xid.6296
                0x80052b68        0x4 Debug/lwiplib.o
 .data.boardId  0x80052b6c        0x4 ../../../../../..//binary/armv7a/gcc/utils/Debug/libutils.a(board.o)
                0x80052b6c                boardId
 .data.flagIsr  0x80052b70        0x4 ../../../../../..//binary/armv7a/gcc/am335x/beaglebone/platform/Debug/libplatform.a(sysdelay.o)
                0x80052b74                iram_start = (ADDR (.data) + SIZEOF (.data))

.igot.plt       0x80052b74        0x0
 .igot.plt      0x00000000        0x0 Debug/am335x_clock_data.o

.reloc_iram     0x40300000      0x648 load address 0x80052b74
                0x40300000                . = ALIGN (0x4)
                0x40300000                relocstart = .
 *(IRAM_CODE)
 IRAM_CODE      0x40300000      0x52c Debug/slpWkup_gcc.o
                0x40300000                saveRestoreContext
                0x40300214                romRestoreLocation
 *fill*         0x4030052c        0x4 00
 IRAM_CODE.stub
                0x40300530        0x8 linker stubs
 *(IRAM_DATA)
 IRAM_DATA      0x40300538      0x110 Debug/slpWkup_gcc.o
                0x40300648                relocend = .
                0x40300648                . = ALIGN (0x4)

.bss            0x80054000    0x897e4
                0x80054000                . = ALIGN (0x4)
                0x80054000                _bss_start = .
 *(.bss*)
 .bss.isM3IntReceived
                0x80054000        0x4 Debug/cm3wkup_proxy.o
                0x80054000                isM3IntReceived
 .bss.enetInitFlag
                0x80054004        0x4 Debug/demoEnet.o
                0x80054004                enetInitFlag
 .bss.ledState  0x80054008        0x1 Debug/demoLedIf.o
 *fill*         0x80054009        0x3 00
 .bss.clickIdx  0x8005400c        0x4 Debug/demoMain.o
                0x8005400c                clickIdx
 .bss.deviceVersion
                0x80054010        0x4 Debug/demoMain.o
                0x80054010                deviceVersion
 .bss.prevAction
                0x80054014        0x4 Debug/demoMain.o
                0x80054014                prevAction
 .bss.pageIndex
                0x80054018        0x4 Debug/demoMain.o
                0x80054018                pageIndex
 *fill*         0x8005401c     0x3fe4 00
 .bss.pageTable
                0x80058000     0x4000 Debug/demoMain.o
 .bss.pmFlag    0x8005c000        0x4 Debug/demoPwrMgmnt.o
                0x8005c000                pmFlag
 .bss.rtcSetFlag
                0x8005c004        0x4 Debug/demoRtc.o
                0x8005c004                rtcSetFlag
 .bss.rtcSecUpdate
                0x8005c008        0x4 Debug/demoRtc.o
                0x8005c008                rtcSecUpdate
 *fill*         0x8005c00c       0x74 00
 .bss.g_sFatFs  0x8005c080      0x280 Debug/demoSdFs.o
 .bss.g_sDirObject
                0x8005c300       0x14 Debug/demoSdFs.o
 .bss.g_sFileInfo
                0x8005c314       0x18 Debug/demoSdFs.o
 *fill*         0x8005c32c       0x54 00
 .bss.g_sFileObject
                0x8005c380      0x280 Debug/demoSdFs.o
 .bss.sdCardAccessFlag
                0x8005c600        0x4 Debug/demoSdFs.o
                0x8005c600                sdCardAccessFlag
 .bss.sdCardState
                0x8005c604        0x4 Debug/demoSdFs.o
 *fill*         0x8005c608       0x78 00
 .bss.g_cTmpBuf
                0x8005c680      0x200 Debug/demoSdFs.o
 .bss.g_cCmdBuf
                0x8005c880      0x200 Debug/demoSdFs.o
 .bss.g_sPState
                0x8005ca80        0x4 Debug/demoSdFs.o
                0x8005ca80                g_sPState
 .bss.g_sCState
                0x8005ca84        0x4 Debug/demoSdFs.o
                0x8005ca84                g_sCState
 .bss.cb_Fxn    0x8005ca88      0x100 Debug/demoSdRw.o
 .bss.callbackOccured
                0x8005cb88        0x4 Debug/demoSdRw.o
                0x8005cb88                callbackOccured
 .bss.xferCompFlag
                0x8005cb8c        0x4 Debug/demoSdRw.o
                0x8005cb8c                xferCompFlag
 .bss.dataTimeout
                0x8005cb90        0x4 Debug/demoSdRw.o
                0x8005cb90                dataTimeout
 .bss.cmdCompFlag
                0x8005cb94        0x4 Debug/demoSdRw.o
                0x8005cb94                cmdCompFlag
 .bss.cmdTimeout
                0x8005cb98        0x4 Debug/demoSdRw.o
                0x8005cb98                cmdTimeout
 .bss.errFlag   0x8005cb9c        0x4 Debug/demoSdRw.o
                0x8005cb9c                errFlag
 .bss.tmrFlag   0x8005cba0        0x4 Debug/demoTimer.o
                0x8005cba0                tmrFlag
 .bss.tmrClick  0x8005cba4        0x4 Debug/demoTimer.o
                0x8005cba4                tmrClick
 .bss.tmr4Flag  0x8005cba8        0x4 Debug/demoTimer.o
                0x8005cba8                tmr4Flag
 .bss.index.5339
                0x8005cbac        0x4 Debug/demoTimer.o
 .bss.FatFs     0x8005cbb0        0x8 Debug/ff.o
 .bss.fsid      0x8005cbb8        0x2 Debug/ff.o
 *fill*         0x8005cbba        0x2 00
 .bss.g_pCGIs   0x8005cbbc        0x4 Debug/httpd_io.o
                0x8005cbbc                g_pCGIs
 .bss.g_iNumCGIs
                0x8005cbc0        0x4 Debug/httpd_io.o
                0x8005cbc0                g_iNumCGIs
 .bss.ram       0x8005cbc4        0x4 Debug/lwiplib.o
 .bss.ram_end   0x8005cbc8        0x4 Debug/lwiplib.o
 .bss.lfree     0x8005cbcc        0x4 Debug/lwiplib.o
 .bss.memp_tab  0x8005cbd0       0x1c Debug/lwiplib.o
 .bss.raw_pcbs  0x8005cbec        0x4 Debug/lwiplib.o
 .bss.inseg     0x8005cbf0       0x10 Debug/lwiplib.o
 .bss.tcphdr    0x8005cc00        0x4 Debug/lwiplib.o
 .bss.iphdr     0x8005cc04        0x4 Debug/lwiplib.o
 .bss.seqno     0x8005cc08        0x4 Debug/lwiplib.o
 .bss.ackno     0x8005cc0c        0x4 Debug/lwiplib.o
 .bss.flags     0x8005cc10        0x1 Debug/lwiplib.o
 *fill*         0x8005cc11        0x1 00
 .bss.tcplen    0x8005cc12        0x2 Debug/lwiplib.o
 .bss.recv_flags
                0x8005cc14        0x1 Debug/lwiplib.o
 *fill*         0x8005cc15        0x3 00
 .bss.recv_data
                0x8005cc18        0x4 Debug/lwiplib.o
 .bss.ip_id     0x8005cc1c        0x2 Debug/lwiplib.o
 *fill*         0x8005cc1e        0x2 00
 .bss.arp_table
                0x8005cc20       0xa0 Debug/lwiplib.o
 .bss.etharp_cached_entry
                0x8005ccc0        0x1 Debug/lwiplib.o
 *fill*         0x8005ccc1        0x3 00
 .bss.cpsw_inst_data
                0x8005ccc4       0x5c Debug/lwiplib.o
 .bss.cpswNetIF
                0x8005cd20       0x68 Debug/lwiplib.o
 .bss.cpswPortIf
                0x8005cd88       0x20 Debug/lwiplib.o
 .bss.lwipInitFlag.8565
                0x8005cda8        0x4 Debug/lwiplib.o
 .bss.inst_init_flag.8448
                0x8005cdac        0x4 Debug/lwiplib.o
 .bss.netifnum.6499
                0x8005cdb0        0x1 Debug/lwiplib.o
 *fill*         0x8005cdb1        0x3 00
 .bss.argv.4396
                0x8005cdb4       0x24 ../../../../../..//binary/armv7a/gcc/utils/Debug/libutils.a(cmdline.o)
 .bss.ConsoleType
                0x8005cdd8        0x1 ../../../../../..//binary/armv7a/gcc/utils/Debug/libutils.a(consoleUtils.o)
 *fill*         0x8005cdd9       0x27 00
 .bss.dataBuffer
                0x8005ce00       0x80 ../../../../../..//binary/armv7a/gcc/mmcsdlib/Debug/libmmcsd.a(mmcsd_proto.o)
 *(COMMON)
 COMMON         0x8005ce80        0xc Debug/demoDvfs.o
                0x8005ce80                mpuVdd1
                0x8005ce84                mpuFreq
                0x8005ce88                mpuOpp
 COMMON         0x8005ce8c     0xb088 Debug/demoEnet.o
                0x8005ce8c                mdioContext
                0x8005ce90                cpswContext
                0x80067f10                ipAddr
 COMMON         0x80067f14       0x36 Debug/demoI2c.o
                0x80067f14                dataToSlave
                0x80067f20                rCount
                0x80067f2c                numOfBytes
                0x80067f38                tCount
                0x80067f44                dataFromSlave
 *fill*         0x80067f4a        0x2 00
 COMMON         0x80067f4c     0x48b0 Debug/demoPwrMgmnt.o
                0x80067f4c                ctrlContext
                0x800685ec                pmStdbySrcIOPin
                0x80068638                edmaContext
                0x8006c778                dmtimerContext
                0x8006c7c8                i2cContext
                0x8006c7d8                gpioContext
                0x8006c7e4                mmcsdContext
 COMMON         0x8006c7fc       0x98 Debug/demoSdRw.o
                0x8006c7fc                sdCard
                0x8006c844                ctrlInfo
 COMMON         0x8006c894       0x18 Debug/fat_mmcsd.o
                0x8006c894                fat_devices
 COMMON         0x8006c8ac       0xf0 Debug/httpd_io.o
                0x8006c8ac                fs_memory
 *fill*         0x8006c99c       0x24 00
 COMMON         0x8006c9c0    0x70c0c Debug/lwiplib.o
                0x8006c9c0                current_iphdr_src
                0x8006c9c4                netif_list
                0x8006c9c8                cpdma_tx_bd
                0x8006c9dc                cpswportif
                0x8006c9ec                rxch
                0x8006c9fc                tcp_active_pcbs
                0x8006ca00                udp_pcbs
                0x8006ca04                current_netif
                0x8006ca08                tcp_ticks
                0x8006ca0c                tcp_listen_pcbs
                0x8006ca10                memp_memory_RAW_PCB_base
                0x8006ca80                memp_memory_TCP_SEG_base
                0x8006cb80                current_iphdr_dest
                0x8006cbc0                memp_memory_PBUF_POOL_base
                0x800bb7c0                free_head
                0x800bb7c4                tcp_tmp_pcb
                0x800bb7c8                tcp_input_pcb
                0x800bb7cc                current_header
                0x800bb7d0                dhcp_rx_options_given
                0x800bb7dc                memp_memory_PBUF_base
                0x800bbddc                tcp_bound_pcbs
                0x800bbde0                memp_memory_TCP_PCB_LISTEN_base
                0x800bbee0                txch
                0x800bbef0                cpswinst
                0x800bbf4c                memp_memory_UDP_PCB_base
                0x800bbfcc                cpdma_rx_bd
                0x800bbfe0                tcp_tw_pcbs
                0x800bbfe4                lwip_stats
                0x800bc0f4                netif_default
                0x800bc0f8                dhcp_rx_options_val
                0x800bc120                memp_memory_TCP_PCB_base
                0x800bd5a0                ram_heap
                0x800dd5bc                cpswport
 COMMON         0x800dd5cc        0x4 ../../../../../..//binary/armv7a/gcc/am335x/drivers/Debug/libdrivers.a(edma.o)
                0x800dd5cc                regionId
 COMMON         0x800dd5d0       0x11 ../../../../../..//binary/armv7a/gcc/utils/Debug/libutils.a(board.o)
                0x800dd5d0                boardName
                0x800dd5d8                boardData
                0x800dd5dc                boardVersion
 *fill*         0x800dd5e1        0x3 00
 COMMON         0x800dd5e4      0x200 ../../../../../..//binary/armv7a/gcc/am335x/system_config/Debug/libsystem_config.a(interrupt.o)
                0x800dd5e4                fnRAMVectors
                0x800dd7e4                _bss_end = .

.heap           0x800dd7e4      0x800
                0x800dd7e4                . = ALIGN (0x4)
                0x800dd7e4                __end__ = .
                0x800dd7e4                end = __end__
                0x800dd7e4                __HeapBase = __end__
 *(.heap*)
                0x800ddfe4                . = (. + 0x800)
 *fill*         0x800dd7e4      0x800 00
                0x800ddfe4                __HeapLimit = .

.stack          0x800ddfe4  0x7fffff8
                0x800ddfe4                . = ALIGN (0x4)
                0x800ddfe4                __StackLimit = .
 *(.stack*)
                0x880ddfdc                . = (. + 0x7fffff8)
 *fill*         0x800ddfe4  0x7fffff8 00
                0x880ddfdc                __StackTop = .
                0x880ddfdc                _stack = __StackTop
OUTPUT(Debug/demo.out elf32-littlearm)

.debug_info     0x00000000    0x1c269
 .debug_info    0x00000000     0x1425 Debug/am335x_clock_data.o
 .debug_info    0x00001425      0x490 Debug/cm3wkup_proxy.o
 .debug_info    0x000018b5      0x295 Debug/demoDvfs.o
 .debug_info    0x00001b4a      0x615 Debug/demoEnet.o
 .debug_info    0x0000215f      0x245 Debug/demoGpio.o
 .debug_info    0x000023a4      0x284 Debug/demoI2c.o
 .debug_info    0x00002628       0xa8 Debug/demoLedIf.o
 .debug_info    0x000026d0      0x919 Debug/demoMain.o
 .debug_info    0x00002fe9      0xdde Debug/demoPwrMgmnt.o
 .debug_info    0x00003dc7      0x163 Debug/demoRtc.o
 .debug_info    0x00003f2a      0xc55 Debug/demoSdFs.o
 .debug_info    0x00004b7f      0x8c5 Debug/demoSdRw.o
 .debug_info    0x00005444      0x2a1 Debug/demoTimer.o
 .debug_info    0x000056e5       0x6b Debug/demoUart.o
 .debug_info    0x00005750      0x764 Debug/fat_mmcsd.o
 .debug_info    0x00005eb4     0x1414 Debug/ff.o
 .debug_info    0x000072c8     0x1653 Debug/httpd_io.o
 .debug_info    0x0000891b     0x6b9f Debug/lwiplib.o
 .debug_info    0x0000f4ba      0x1a8 Debug/pmic.o
 .debug_info    0x0000f662       0xb0 Debug/slpWkup_gcc.o
 .debug_info    0x0000f712     0x131b ../../../../../..//binary/armv7a/gcc/am335x/drivers/Debug/libdrivers.a(cpsw.o)
 .debug_info    0x00010a2d      0x5d0 ../../../../../..//binary/armv7a/gcc/am335x/drivers/Debug/libdrivers.a(dmtimer.o)
 .debug_info    0x00010ffd      0xefc ../../../../../..//binary/armv7a/gcc/am335x/drivers/Debug/libdrivers.a(edma.o)
 .debug_info    0x00011ef9      0x7b3 ../../../../../..//binary/armv7a/gcc/am335x/drivers/Debug/libdrivers.a(gpio_v2.o)
 .debug_info    0x000126ac     0x1511 ../../../../../..//binary/armv7a/gcc/am335x/drivers/Debug/libdrivers.a(gpmc.o)
 .debug_info    0x00013bbd      0x7fb ../../../../../..//binary/armv7a/gcc/am335x/drivers/Debug/libdrivers.a(hs_mmcsd.o)
 .debug_info    0x000143b8      0xa6d ../../../../../..//binary/armv7a/gcc/am335x/drivers/Debug/libdrivers.a(hsi2c.o)
 .debug_info    0x00014e25      0x40c ../../../../../..//binary/armv7a/gcc/am335x/drivers/Debug/libdrivers.a(mailbox.o)
 .debug_info    0x00015231      0x237 ../../../../../..//binary/armv7a/gcc/am335x/drivers/Debug/libdrivers.a(mdio.o)
 .debug_info    0x00015468      0x40c ../../../../../..//binary/armv7a/gcc/am335x/drivers/Debug/libdrivers.a(phy.o)
 .debug_info    0x00015874     0x1363 ../../../../../..//binary/armv7a/gcc/am335x/drivers/Debug/libdrivers.a(rtc.o)
 .debug_info    0x00016bd7     0x14ab ../../../../../..//binary/armv7a/gcc/am335x/drivers/Debug/libdrivers.a(uart_irda_cir.o)
 .debug_info    0x00018082      0x289 ../../../../../..//binary/armv7a/gcc/utils/Debug/libutils.a(ascii.o)
 .debug_info    0x0001830b      0x1bc ../../../../../..//binary/armv7a/gcc/utils/Debug/libutils.a(board.o)
 .debug_info    0x000184c7      0x19d ../../../../../..//binary/armv7a/gcc/utils/Debug/libutils.a(cmdline.o)
 .debug_info    0x00018664      0x29a ../../../../../..//binary/armv7a/gcc/utils/Debug/libutils.a(consoleUtils.o)
 .debug_info    0x000188fe       0xc8 ../../../../../..//binary/armv7a/gcc/utils/Debug/libutils.a(delay.o)
 .debug_info    0x000189c6      0x69a ../../../../../..//binary/armv7a/gcc/utils/Debug/libutils.a(uartStdio.o)
 .debug_info    0x00019060       0xbb ../../../../../..//binary/armv7a/gcc/am335x/beaglebone/platform/Debug/libplatform.a(board.o)
 .debug_info    0x0001911b       0xbe ../../../../../..//binary/armv7a/gcc/am335x/beaglebone/platform/Debug/libplatform.a(cpsw.o)
 .debug_info    0x000191d9      0x29d ../../../../../..//binary/armv7a/gcc/am335x/beaglebone/platform/Debug/libplatform.a(ctlregcontext.o)
 .debug_info    0x00019476       0xd3 ../../../../../..//binary/armv7a/gcc/am335x/beaglebone/platform/Debug/libplatform.a(dmtimer.o)
 .debug_info    0x00019549       0xd9 ../../../../../..//binary/armv7a/gcc/am335x/beaglebone/platform/Debug/libplatform.a(edma.o)
 .debug_info    0x00019622      0x117 ../../../../../..//binary/armv7a/gcc/am335x/beaglebone/platform/Debug/libplatform.a(eeprom.o)
 .debug_info    0x00019739       0xdd ../../../../../..//binary/armv7a/gcc/am335x/beaglebone/platform/Debug/libplatform.a(gpio.o)
 .debug_info    0x00019816       0x64 ../../../../../..//binary/armv7a/gcc/am335x/beaglebone/platform/Debug/libplatform.a(hs_mmcsd.o)
 .debug_info    0x0001987a       0x94 ../../../../../..//binary/armv7a/gcc/am335x/beaglebone/platform/Debug/libplatform.a(hsi2c.o)
 .debug_info    0x0001990e       0x6f ../../../../../..//binary/armv7a/gcc/am335x/beaglebone/platform/Debug/libplatform.a(rtc.o)
 .debug_info    0x0001997d      0x11e ../../../../../..//binary/armv7a/gcc/am335x/beaglebone/platform/Debug/libplatform.a(sysdelay.o)
 .debug_info    0x00019a9b      0x156 ../../../../../..//binary/armv7a/gcc/am335x/beaglebone/platform/Debug/libplatform.a(uartConsole.o)
 .debug_info    0x00019bf1       0x7e ../../../../../..//binary/armv7a/gcc/am335x/beaglebone/platform/Debug/libplatform.a(uart.o)
 .debug_info    0x00019c6f      0x56e ../../../../../..//binary/armv7a/gcc/mmcsdlib/Debug/libmmcsd.a(hs_mmcsdlib.o)
 .debug_info    0x0001a1dd      0x856 ../../../../../..//binary/armv7a/gcc/mmcsdlib/Debug/libmmcsd.a(mmcsd_proto.o)
 .debug_info    0x0001aa33      0x1b3 ../../../../../..//binary/armv7a/gcc/am335x/system_config/Debug/libsystem_config.a(cache.o)
 .debug_info    0x0001abe6      0xc54 ../../../../../..//binary/armv7a/gcc/am335x/system_config/Debug/libsystem_config.a(clock.o)
 .debug_info    0x0001b83a       0xa3 ../../../../../..//binary/armv7a/gcc/am335x/system_config/Debug/libsystem_config.a(cp15.o)
 .debug_info    0x0001b8dd       0x7f ../../../../../..//binary/armv7a/gcc/am335x/system_config/Debug/libsystem_config.a(device.o)
 .debug_info    0x0001b95c       0xa3 ../../../../../..//binary/armv7a/gcc/am335x/system_config/Debug/libsystem_config.a(init.o)
 .debug_info    0x0001b9ff      0x46f ../../../../../..//binary/armv7a/gcc/am335x/system_config/Debug/libsystem_config.a(interrupt.o)
 .debug_info    0x0001be6e      0x16d ../../../../../..//binary/armv7a/gcc/am335x/system_config/Debug/libsystem_config.a(mmu.o)
 .debug_info    0x0001bfdb       0xe0 ../../../../../..//binary/armv7a/gcc/am335x/system_config/Debug/libsystem_config.a(startup.o)
 .debug_info    0x0001c0bb       0xf8 ../../../../../..//binary/armv7a/gcc/am335x/system_config/Debug/libsystem_config.a(cpu.o)
 .debug_info    0x0001c1b3       0xb6 ../../../../../..//binary/armv7a/gcc/am335x/system_config/Debug/libsystem_config.a(exceptionhandler.o)

.debug_abbrev   0x00000000     0x4043
 .debug_abbrev  0x00000000       0xca Debug/am335x_clock_data.o
 .debug_abbrev  0x000000ca      0x19f Debug/cm3wkup_proxy.o
 .debug_abbrev  0x00000269      0x14e Debug/demoDvfs.o
 .debug_abbrev  0x000003b7      0x1d4 Debug/demoEnet.o
 .debug_abbrev  0x0000058b       0xac Debug/demoGpio.o
 .debug_abbrev  0x00000637       0xae Debug/demoI2c.o
 .debug_abbrev  0x000006e5       0x48 Debug/demoLedIf.o
 .debug_abbrev  0x0000072d      0x1f6 Debug/demoMain.o
 .debug_abbrev  0x00000923      0x21f Debug/demoPwrMgmnt.o
 .debug_abbrev  0x00000b42       0xaa Debug/demoRtc.o
 .debug_abbrev  0x00000bec      0x1d4 Debug/demoSdFs.o
 .debug_abbrev  0x00000dc0      0x209 Debug/demoSdRw.o
 .debug_abbrev  0x00000fc9      0x10f Debug/demoTimer.o
 .debug_abbrev  0x000010d8       0x39 Debug/demoUart.o
 .debug_abbrev  0x00001111      0x171 Debug/fat_mmcsd.o
 .debug_abbrev  0x00001282      0x1df Debug/ff.o
 .debug_abbrev  0x00001461      0x2b6 Debug/httpd_io.o
 .debug_abbrev  0x00001717      0x460 Debug/lwiplib.o
 .debug_abbrev  0x00001b77       0x9b Debug/pmic.o
 .debug_abbrev  0x00001c12       0x14 Debug/slpWkup_gcc.o
 .debug_abbrev  0x00001c26      0x168 ../../../../../..//binary/armv7a/gcc/am335x/drivers/Debug/libdrivers.a(cpsw.o)
 .debug_abbrev  0x00001d8e      0x122 ../../../../../..//binary/armv7a/gcc/am335x/drivers/Debug/libdrivers.a(dmtimer.o)
 .debug_abbrev  0x00001eb0      0x1d6 ../../../../../..//binary/armv7a/gcc/am335x/drivers/Debug/libdrivers.a(edma.o)
 .debug_abbrev  0x00002086      0x124 ../../../../../..//binary/armv7a/gcc/am335x/drivers/Debug/libdrivers.a(gpio_v2.o)
 .debug_abbrev  0x000021aa      0x101 ../../../../../..//binary/armv7a/gcc/am335x/drivers/Debug/libdrivers.a(gpmc.o)
 .debug_abbrev  0x000022ab      0x1a0 ../../../../../..//binary/armv7a/gcc/am335x/drivers/Debug/libdrivers.a(hs_mmcsd.o)
 .debug_abbrev  0x0000244b      0x14d ../../../../../..//binary/armv7a/gcc/am335x/drivers/Debug/libdrivers.a(hsi2c.o)
 .debug_abbrev  0x00002598       0xec ../../../../../..//binary/armv7a/gcc/am335x/drivers/Debug/libdrivers.a(mailbox.o)
 .debug_abbrev  0x00002684       0xe2 ../../../../../..//binary/armv7a/gcc/am335x/drivers/Debug/libdrivers.a(mdio.o)
 .debug_abbrev  0x00002766       0xce ../../../../../..//binary/armv7a/gcc/am335x/drivers/Debug/libdrivers.a(phy.o)
 .debug_abbrev  0x00002834      0x10f ../../../../../..//binary/armv7a/gcc/am335x/drivers/Debug/libdrivers.a(rtc.o)
 .debug_abbrev  0x00002943      0x14e ../../../../../..//binary/armv7a/gcc/am335x/drivers/Debug/libdrivers.a(uart_irda_cir.o)
 .debug_abbrev  0x00002a91       0xce ../../../../../..//binary/armv7a/gcc/utils/Debug/libutils.a(ascii.o)
 .debug_abbrev  0x00002b5f       0xbd ../../../../../..//binary/armv7a/gcc/utils/Debug/libutils.a(board.o)
 .debug_abbrev  0x00002c1c       0xd9 ../../../../../..//binary/armv7a/gcc/utils/Debug/libutils.a(cmdline.o)
 .debug_abbrev  0x00002cf5      0x156 ../../../../../..//binary/armv7a/gcc/utils/Debug/libutils.a(consoleUtils.o)
 .debug_abbrev  0x00002e4b       0x92 ../../../../../..//binary/armv7a/gcc/utils/Debug/libutils.a(delay.o)
 .debug_abbrev  0x00002edd      0x186 ../../../../../..//binary/armv7a/gcc/utils/Debug/libutils.a(uartStdio.o)
 .debug_abbrev  0x00003063       0x5e ../../../../../..//binary/armv7a/gcc/am335x/beaglebone/platform/Debug/libplatform.a(board.o)
 .debug_abbrev  0x000030c1       0x6b ../../../../../..//binary/armv7a/gcc/am335x/beaglebone/platform/Debug/libplatform.a(cpsw.o)
 .debug_abbrev  0x0000312c       0xe4 ../../../../../..//binary/armv7a/gcc/am335x/beaglebone/platform/Debug/libplatform.a(ctlregcontext.o)
 .debug_abbrev  0x00003210       0x7a ../../../../../..//binary/armv7a/gcc/am335x/beaglebone/platform/Debug/libplatform.a(dmtimer.o)
 .debug_abbrev  0x0000328a       0x9c ../../../../../..//binary/armv7a/gcc/am335x/beaglebone/platform/Debug/libplatform.a(edma.o)
 .debug_abbrev  0x00003326       0xa6 ../../../../../..//binary/armv7a/gcc/am335x/beaglebone/platform/Debug/libplatform.a(eeprom.o)
 .debug_abbrev  0x000033cc       0x7a ../../../../../..//binary/armv7a/gcc/am335x/beaglebone/platform/Debug/libplatform.a(gpio.o)
 .debug_abbrev  0x00003446       0x39 ../../../../../..//binary/armv7a/gcc/am335x/beaglebone/platform/Debug/libplatform.a(hs_mmcsd.o)
 .debug_abbrev  0x0000347f       0x62 ../../../../../..//binary/armv7a/gcc/am335x/beaglebone/platform/Debug/libplatform.a(hsi2c.o)
 .debug_abbrev  0x000034e1       0x53 ../../../../../..//binary/armv7a/gcc/am335x/beaglebone/platform/Debug/libplatform.a(rtc.o)
 .debug_abbrev  0x00003534       0xa8 ../../../../../..//binary/armv7a/gcc/am335x/beaglebone/platform/Debug/libplatform.a(sysdelay.o)
 .debug_abbrev  0x000035dc       0xa3 ../../../../../..//binary/armv7a/gcc/am335x/beaglebone/platform/Debug/libplatform.a(uartConsole.o)
 .debug_abbrev  0x0000367f       0x62 ../../../../../..//binary/armv7a/gcc/am335x/beaglebone/platform/Debug/libplatform.a(uart.o)
 .debug_abbrev  0x000036e1      0x13e ../../../../../..//binary/armv7a/gcc/mmcsdlib/Debug/libmmcsd.a(hs_mmcsdlib.o)
 .debug_abbrev  0x0000381f      0x16d ../../../../../..//binary/armv7a/gcc/mmcsdlib/Debug/libmmcsd.a(mmcsd_proto.o)
 .debug_abbrev  0x0000398c       0x7a ../../../../../..//binary/armv7a/gcc/am335x/system_config/Debug/libsystem_config.a(cache.o)
 .debug_abbrev  0x00003a06      0x1f8 ../../../../../..//binary/armv7a/gcc/am335x/system_config/Debug/libsystem_config.a(clock.o)
 .debug_abbrev  0x00003bfe       0x14 ../../../../../..//binary/armv7a/gcc/am335x/system_config/Debug/libsystem_config.a(cp15.o)
 .debug_abbrev  0x00003c12       0x66 ../../../../../..//binary/armv7a/gcc/am335x/system_config/Debug/libsystem_config.a(device.o)
 .debug_abbrev  0x00003c78       0x14 ../../../../../..//binary/armv7a/gcc/am335x/system_config/Debug/libsystem_config.a(init.o)
 .debug_abbrev  0x00003c8c      0x1c2 ../../../../../..//binary/armv7a/gcc/am335x/system_config/Debug/libsystem_config.a(interrupt.o)
 .debug_abbrev  0x00003e4e       0xd9 ../../../../../..//binary/armv7a/gcc/am335x/system_config/Debug/libsystem_config.a(mmu.o)
 .debug_abbrev  0x00003f27       0xa4 ../../../../../..//binary/armv7a/gcc/am335x/system_config/Debug/libsystem_config.a(startup.o)
 .debug_abbrev  0x00003fcb       0x64 ../../../../../..//binary/armv7a/gcc/am335x/system_config/Debug/libsystem_config.a(cpu.o)
 .debug_abbrev  0x0000402f       0x14 ../../../../../..//binary/armv7a/gcc/am335x/system_config/Debug/libsystem_config.a(exceptionhandler.o)

.debug_aranges  0x00000000     0x2978
 .debug_aranges
                0x00000000       0x18 Debug/am335x_clock_data.o
 .debug_aranges
                0x00000018       0x88 Debug/cm3wkup_proxy.o
 .debug_aranges
                0x000000a0       0x48 Debug/demoDvfs.o
 .debug_aranges
                0x000000e8       0x78 Debug/demoEnet.o
 .debug_aranges
                0x00000160       0x30 Debug/demoGpio.o
 .debug_aranges
                0x00000190       0x50 Debug/demoI2c.o
 .debug_aranges
                0x000001e0       0x38 Debug/demoLedIf.o
 .debug_aranges
                0x00000218       0xe0 Debug/demoMain.o
 .debug_aranges
                0x000002f8       0x80 Debug/demoPwrMgmnt.o
 .debug_aranges
                0x00000378       0x48 Debug/demoRtc.o
 .debug_aranges
                0x000003c0       0x68 Debug/demoSdFs.o
 .debug_aranges
                0x00000428       0x90 Debug/demoSdRw.o
 .debug_aranges
                0x000004b8       0xc0 Debug/demoTimer.o
 .debug_aranges
                0x00000578       0x28 Debug/demoUart.o
 .debug_aranges
                0x000005a0       0x48 Debug/fat_mmcsd.o
 .debug_aranges
                0x000005e8      0x108 Debug/ff.o
 .debug_aranges
                0x000006f0       0xe0 Debug/httpd_io.o
 .debug_aranges
                0x000007d0      0x6d0 Debug/lwiplib.o
 .debug_aranges
                0x00000ea0       0x38 Debug/pmic.o
 .debug_aranges
                0x00000ed8       0x20 Debug/slpWkup_gcc.o
 .debug_aranges
                0x00000ef8      0x270 ../../../../../..//binary/armv7a/gcc/am335x/drivers/Debug/libdrivers.a(cpsw.o)
 .debug_aranges
                0x00001168       0xe8 ../../../../../..//binary/armv7a/gcc/am335x/drivers/Debug/libdrivers.a(dmtimer.o)
 .debug_aranges
                0x00001250      0x168 ../../../../../..//binary/armv7a/gcc/am335x/drivers/Debug/libdrivers.a(edma.o)
 .debug_aranges
                0x000013b8      0x100 ../../../../../..//binary/armv7a/gcc/am335x/drivers/Debug/libdrivers.a(gpio_v2.o)
 .debug_aranges
                0x000014b8      0x2b0 ../../../../../..//binary/armv7a/gcc/am335x/drivers/Debug/libdrivers.a(gpmc.o)
 .debug_aranges
                0x00001768       0xf8 ../../../../../..//binary/armv7a/gcc/am335x/drivers/Debug/libdrivers.a(hs_mmcsd.o)
 .debug_aranges
                0x00001860      0x180 ../../../../../..//binary/armv7a/gcc/am335x/drivers/Debug/libdrivers.a(hsi2c.o)
 .debug_aranges
                0x000019e0       0x88 ../../../../../..//binary/armv7a/gcc/am335x/drivers/Debug/libdrivers.a(mailbox.o)
 .debug_aranges
                0x00001a68       0x50 ../../../../../..//binary/armv7a/gcc/am335x/drivers/Debug/libdrivers.a(mdio.o)
 .debug_aranges
                0x00001ab8       0x70 ../../../../../..//binary/armv7a/gcc/am335x/drivers/Debug/libdrivers.a(phy.o)
 .debug_aranges
                0x00001b28      0x2d8 ../../../../../..//binary/armv7a/gcc/am335x/drivers/Debug/libdrivers.a(rtc.o)
 .debug_aranges
                0x00001e00      0x268 ../../../../../..//binary/armv7a/gcc/am335x/drivers/Debug/libdrivers.a(uart_irda_cir.o)
 .debug_aranges
                0x00002068       0x48 ../../../../../..//binary/armv7a/gcc/utils/Debug/libutils.a(ascii.o)
 .debug_aranges
                0x000020b0       0x38 ../../../../../..//binary/armv7a/gcc/utils/Debug/libutils.a(board.o)
 .debug_aranges
                0x000020e8       0x20 ../../../../../..//binary/armv7a/gcc/utils/Debug/libutils.a(cmdline.o)
 .debug_aranges
                0x00002108       0x58 ../../../../../..//binary/armv7a/gcc/utils/Debug/libutils.a(consoleUtils.o)
 .debug_aranges
                0x00002160       0x40 ../../../../../..//binary/armv7a/gcc/utils/Debug/libutils.a(delay.o)
 .debug_aranges
                0x000021a0       0x88 ../../../../../..//binary/armv7a/gcc/utils/Debug/libutils.a(uartStdio.o)
 .debug_aranges
                0x00002228       0x20 ../../../../../..//binary/armv7a/gcc/am335x/beaglebone/platform/Debug/libplatform.a(board.o)
 .debug_aranges
                0x00002248       0x38 ../../../../../..//binary/armv7a/gcc/am335x/beaglebone/platform/Debug/libplatform.a(cpsw.o)
 .debug_aranges
                0x00002280       0x50 ../../../../../..//binary/armv7a/gcc/am335x/beaglebone/platform/Debug/libplatform.a(ctlregcontext.o)
 .debug_aranges
                0x000022d0       0x48 ../../../../../..//binary/armv7a/gcc/am335x/beaglebone/platform/Debug/libplatform.a(dmtimer.o)
 .debug_aranges
                0x00002318       0x30 ../../../../../..//binary/armv7a/gcc/am335x/beaglebone/platform/Debug/libplatform.a(edma.o)
 .debug_aranges
                0x00002348       0x40 ../../../../../..//binary/armv7a/gcc/am335x/beaglebone/platform/Debug/libplatform.a(eeprom.o)
 .debug_aranges
                0x00002388       0x40 ../../../../../..//binary/armv7a/gcc/am335x/beaglebone/platform/Debug/libplatform.a(gpio.o)
 .debug_aranges
                0x000023c8       0x28 ../../../../../..//binary/armv7a/gcc/am335x/beaglebone/platform/Debug/libplatform.a(hs_mmcsd.o)
 .debug_aranges
                0x000023f0       0x30 ../../../../../..//binary/armv7a/gcc/am335x/beaglebone/platform/Debug/libplatform.a(hsi2c.o)
 .debug_aranges
                0x00002420       0x28 ../../../../../..//binary/armv7a/gcc/am335x/beaglebone/platform/Debug/libplatform.a(rtc.o)
 .debug_aranges
                0x00002448       0x48 ../../../../../..//binary/armv7a/gcc/am335x/beaglebone/platform/Debug/libplatform.a(sysdelay.o)
 .debug_aranges
                0x00002490       0x48 ../../../../../..//binary/armv7a/gcc/am335x/beaglebone/platform/Debug/libplatform.a(uartConsole.o)
 .debug_aranges
                0x000024d8       0x28 ../../../../../..//binary/armv7a/gcc/am335x/beaglebone/platform/Debug/libplatform.a(uart.o)
 .debug_aranges
                0x00002500       0x48 ../../../../../..//binary/armv7a/gcc/mmcsdlib/Debug/libmmcsd.a(hs_mmcsdlib.o)
 .debug_aranges
                0x00002548       0x80 ../../../../../..//binary/armv7a/gcc/mmcsdlib/Debug/libmmcsd.a(mmcsd_proto.o)
 .debug_aranges
                0x000025c8       0x68 ../../../../../..//binary/armv7a/gcc/am335x/system_config/Debug/libsystem_config.a(cache.o)
 .debug_aranges
                0x00002630      0x100 ../../../../../..//binary/armv7a/gcc/am335x/system_config/Debug/libsystem_config.a(clock.o)
 .debug_aranges
                0x00002730       0x20 ../../../../../..//binary/armv7a/gcc/am335x/system_config/Debug/libsystem_config.a(cp15.o)
 .debug_aranges
                0x00002750       0x28 ../../../../../..//binary/armv7a/gcc/am335x/system_config/Debug/libsystem_config.a(device.o)
 .debug_aranges
                0x00002778       0x20 ../../../../../..//binary/armv7a/gcc/am335x/system_config/Debug/libsystem_config.a(init.o)
 .debug_aranges
                0x00002798      0x110 ../../../../../..//binary/armv7a/gcc/am335x/system_config/Debug/libsystem_config.a(interrupt.o)
 .debug_aranges
                0x000028a8       0x30 ../../../../../..//binary/armv7a/gcc/am335x/system_config/Debug/libsystem_config.a(mmu.o)
 .debug_aranges
                0x000028d8       0x28 ../../../../../..//binary/armv7a/gcc/am335x/system_config/Debug/libsystem_config.a(startup.o)
 .debug_aranges
                0x00002900       0x58 ../../../../../..//binary/armv7a/gcc/am335x/system_config/Debug/libsystem_config.a(cpu.o)
 .debug_aranges
                0x00002958       0x20 ../../../../../..//binary/armv7a/gcc/am335x/system_config/Debug/libsystem_config.a(exceptionhandler.o)

.debug_line     0x00000000     0xc61d
 .debug_line    0x00000000       0xc0 Debug/am335x_clock_data.o
 .debug_line    0x000000c0      0x1b1 Debug/cm3wkup_proxy.o
 .debug_line    0x00000271      0x14d Debug/demoDvfs.o
 .debug_line    0x000003be      0x28e Debug/demoEnet.o
 .debug_line    0x0000064c       0xb7 Debug/demoGpio.o
 .debug_line    0x00000703      0x163 Debug/demoI2c.o
 .debug_line    0x00000866       0xa4 Debug/demoLedIf.o
 .debug_line    0x0000090a      0x411 Debug/demoMain.o
 .debug_line    0x00000d1b      0x34f Debug/demoPwrMgmnt.o
 .debug_line    0x0000106a      0x156 Debug/demoRtc.o
 .debug_line    0x000011c0      0x340 Debug/demoSdFs.o
 .debug_line    0x00001500      0x2cf Debug/demoSdRw.o
 .debug_line    0x000017cf      0x1ee Debug/demoTimer.o
 .debug_line    0x000019bd       0x7e Debug/demoUart.o
 .debug_line    0x00001a3b      0x163 Debug/fat_mmcsd.o
 .debug_line    0x00001b9e      0xa2f Debug/ff.o
 .debug_line    0x000025cd      0x5ec Debug/httpd_io.o
 .debug_line    0x00002bb9     0x36da Debug/lwiplib.o
 .debug_line    0x00006293       0xbc Debug/pmic.o
 .debug_line    0x0000634f      0x17f Debug/slpWkup_gcc.o
 .debug_line    0x000064ce      0x714 ../../../../../..//binary/armv7a/gcc/am335x/drivers/Debug/libdrivers.a(cpsw.o)
 .debug_line    0x00006be2      0x2f7 ../../../../../..//binary/armv7a/gcc/am335x/drivers/Debug/libdrivers.a(dmtimer.o)
 .debug_line    0x00006ed9      0x5e8 ../../../../../..//binary/armv7a/gcc/am335x/drivers/Debug/libdrivers.a(edma.o)
 .debug_line    0x000074c1      0x2fe ../../../../../..//binary/armv7a/gcc/am335x/drivers/Debug/libdrivers.a(gpio_v2.o)
 .debug_line    0x000077bf      0x788 ../../../../../..//binary/armv7a/gcc/am335x/drivers/Debug/libdrivers.a(gpmc.o)
 .debug_line    0x00007f47      0x338 ../../../../../..//binary/armv7a/gcc/am335x/drivers/Debug/libdrivers.a(hs_mmcsd.o)
 .debug_line    0x0000827f      0x3ef ../../../../../..//binary/armv7a/gcc/am335x/drivers/Debug/libdrivers.a(hsi2c.o)
 .debug_line    0x0000866e      0x178 ../../../../../..//binary/armv7a/gcc/am335x/drivers/Debug/libdrivers.a(mailbox.o)
 .debug_line    0x000087e6      0x10d ../../../../../..//binary/armv7a/gcc/am335x/drivers/Debug/libdrivers.a(mdio.o)
 .debug_line    0x000088f3      0x14e ../../../../../..//binary/armv7a/gcc/am335x/drivers/Debug/libdrivers.a(phy.o)
 .debug_line    0x00008a41      0x7f4 ../../../../../..//binary/armv7a/gcc/am335x/drivers/Debug/libdrivers.a(rtc.o)
 .debug_line    0x00009235      0x741 ../../../../../..//binary/armv7a/gcc/am335x/drivers/Debug/libdrivers.a(uart_irda_cir.o)
 .debug_line    0x00009976      0x1a6 ../../../../../..//binary/armv7a/gcc/utils/Debug/libutils.a(ascii.o)
 .debug_line    0x00009b1c       0xce ../../../../../..//binary/armv7a/gcc/utils/Debug/libutils.a(board.o)
 .debug_line    0x00009bea       0x9a ../../../../../..//binary/armv7a/gcc/utils/Debug/libutils.a(cmdline.o)
 .debug_line    0x00009c84      0x19a ../../../../../..//binary/armv7a/gcc/utils/Debug/libutils.a(consoleUtils.o)
 .debug_line    0x00009e1e       0x94 ../../../../../..//binary/armv7a/gcc/utils/Debug/libutils.a(delay.o)
 .debug_line    0x00009eb2      0x631 ../../../../../..//binary/armv7a/gcc/utils/Debug/libutils.a(uartStdio.o)
 .debug_line    0x0000a4e3       0x72 ../../../../../..//binary/armv7a/gcc/am335x/beaglebone/platform/Debug/libplatform.a(board.o)
 .debug_line    0x0000a555       0xda ../../../../../..//binary/armv7a/gcc/am335x/beaglebone/platform/Debug/libplatform.a(cpsw.o)
 .debug_line    0x0000a62f      0x15a ../../../../../..//binary/armv7a/gcc/am335x/beaglebone/platform/Debug/libplatform.a(ctlregcontext.o)
 .debug_line    0x0000a789      0x304 ../../../../../..//binary/armv7a/gcc/am335x/beaglebone/platform/Debug/libplatform.a(dmtimer.o)
 .debug_line    0x0000aa8d      0x120 ../../../../../..//binary/armv7a/gcc/am335x/beaglebone/platform/Debug/libplatform.a(edma.o)
 .debug_line    0x0000abad      0x100 ../../../../../..//binary/armv7a/gcc/am335x/beaglebone/platform/Debug/libplatform.a(eeprom.o)
 .debug_line    0x0000acad      0x142 ../../../../../..//binary/armv7a/gcc/am335x/beaglebone/platform/Debug/libplatform.a(gpio.o)
 .debug_line    0x0000adef       0x83 ../../../../../..//binary/armv7a/gcc/am335x/beaglebone/platform/Debug/libplatform.a(hs_mmcsd.o)
 .debug_line    0x0000ae72      0x1e7 ../../../../../..//binary/armv7a/gcc/am335x/beaglebone/platform/Debug/libplatform.a(hsi2c.o)
 .debug_line    0x0000b059      0x182 ../../../../../..//binary/armv7a/gcc/am335x/beaglebone/platform/Debug/libplatform.a(rtc.o)
 .debug_line    0x0000b1db       0xdb ../../../../../..//binary/armv7a/gcc/am335x/beaglebone/platform/Debug/libplatform.a(sysdelay.o)
 .debug_line    0x0000b2b6       0xd2 ../../../../../..//binary/armv7a/gcc/am335x/beaglebone/platform/Debug/libplatform.a(uartConsole.o)
 .debug_line    0x0000b388      0x16a ../../../../../..//binary/armv7a/gcc/am335x/beaglebone/platform/Debug/libplatform.a(uart.o)
 .debug_line    0x0000b4f2      0x137 ../../../../../..//binary/armv7a/gcc/mmcsdlib/Debug/libmmcsd.a(hs_mmcsdlib.o)
 .debug_line    0x0000b629      0x261 ../../../../../..//binary/armv7a/gcc/mmcsdlib/Debug/libmmcsd.a(mmcsd_proto.o)
 .debug_line    0x0000b88a      0x10d ../../../../../..//binary/armv7a/gcc/am335x/system_config/Debug/libsystem_config.a(cache.o)
 .debug_line    0x0000b997      0x42f ../../../../../..//binary/armv7a/gcc/am335x/system_config/Debug/libsystem_config.a(clock.o)
 .debug_line    0x0000bdc6      0x18a ../../../../../..//binary/armv7a/gcc/am335x/system_config/Debug/libsystem_config.a(cp15.o)
 .debug_line    0x0000bf50       0x78 ../../../../../..//binary/armv7a/gcc/am335x/system_config/Debug/libsystem_config.a(device.o)
 .debug_line    0x0000bfc8       0x93 ../../../../../..//binary/armv7a/gcc/am335x/system_config/Debug/libsystem_config.a(init.o)
 .debug_line    0x0000c05b      0x2bb ../../../../../..//binary/armv7a/gcc/am335x/system_config/Debug/libsystem_config.a(interrupt.o)
 .debug_line    0x0000c316       0xda ../../../../../..//binary/armv7a/gcc/am335x/system_config/Debug/libsystem_config.a(mmu.o)
 .debug_line    0x0000c3f0       0x96 ../../../../../..//binary/armv7a/gcc/am335x/system_config/Debug/libsystem_config.a(startup.o)
 .debug_line    0x0000c486       0xde ../../../../../..//binary/armv7a/gcc/am335x/system_config/Debug/libsystem_config.a(cpu.o)
 .debug_line    0x0000c564       0xb9 ../../../../../..//binary/armv7a/gcc/am335x/system_config/Debug/libsystem_config.a(exceptionhandler.o)

.debug_str      0x00000000     0x9e38
 .debug_str     0x00000000     0x1113 Debug/am335x_clock_data.o
                               0x115d (size before relaxing)
 .debug_str     0x00001113      0x316 Debug/cm3wkup_proxy.o
                                0x3fc (size before relaxing)
 .debug_str     0x00001429      0x13e Debug/demoDvfs.o
                                0x1fd (size before relaxing)
 .debug_str     0x00001567      0x3aa Debug/demoEnet.o
                                0x4d2 (size before relaxing)
 .debug_str     0x00001911      0x168 Debug/demoGpio.o
                                0x234 (size before relaxing)
 .debug_str     0x00001a79       0xc7 Debug/demoI2c.o
                                0x1af (size before relaxing)
 .debug_str     0x00001b40       0x64 Debug/demoLedIf.o
                                0x11e (size before relaxing)
 .debug_str     0x00001ba4      0x3b3 Debug/demoMain.o
                                0x6ae (size before relaxing)
 .debug_str     0x00001f57      0x429 Debug/demoPwrMgmnt.o
                                0x99a (size before relaxing)
 .debug_str     0x00002380       0x99 Debug/demoRtc.o
                                0x170 (size before relaxing)
 .debug_str     0x00002419      0x510 Debug/demoSdFs.o
                                0x6cf (size before relaxing)
 .debug_str     0x00002929      0x1ea Debug/demoSdRw.o
                                0x504 (size before relaxing)
 .debug_str     0x00002b13      0x160 Debug/demoTimer.o
                                0x24c (size before relaxing)
 .debug_str     0x00002c73       0x5a Debug/demoUart.o
                                0x114 (size before relaxing)
 .debug_str     0x00002ccd       0xd5 Debug/fat_mmcsd.o
                                0x3f5 (size before relaxing)
 .debug_str     0x00002da2      0x26a Debug/ff.o
                                0x616 (size before relaxing)
 .debug_str     0x0000300c      0x7a2 Debug/httpd_io.o
                                0xa28 (size before relaxing)
 .debug_str     0x000037ae     0x1bdb Debug/lwiplib.o
                               0x22a1 (size before relaxing)
 .debug_str     0x00005389       0xd1 Debug/pmic.o
                                0x1b8 (size before relaxing)
 .debug_str     0x0000545a      0x7ab ../../../../../..//binary/armv7a/gcc/am335x/drivers/Debug/libdrivers.a(cpsw.o)
                                0x990 (size before relaxing)
 .debug_str     0x00005c05      0x26f ../../../../../..//binary/armv7a/gcc/am335x/drivers/Debug/libdrivers.a(dmtimer.o)
                                0x36a (size before relaxing)
 .debug_str     0x00005e74      0x3e4 ../../../../../..//binary/armv7a/gcc/am335x/drivers/Debug/libdrivers.a(edma.o)
                                0x674 (size before relaxing)
 .debug_str     0x00006258      0x2de ../../../../../..//binary/armv7a/gcc/am335x/drivers/Debug/libdrivers.a(gpio_v2.o)
                                0x3c3 (size before relaxing)
 .debug_str     0x00006536      0x91d ../../../../../..//binary/armv7a/gcc/am335x/drivers/Debug/libdrivers.a(gpmc.o)
                                0x9fa (size before relaxing)
 .debug_str     0x00006e53      0x2a4 ../../../../../..//binary/armv7a/gcc/am335x/drivers/Debug/libdrivers.a(hs_mmcsd.o)
                                0x3d6 (size before relaxing)
 .debug_str     0x000070f7      0x3d7 ../../../../../..//binary/armv7a/gcc/am335x/drivers/Debug/libdrivers.a(hsi2c.o)
                                0x4ff (size before relaxing)
 .debug_str     0x000074ce      0x163 ../../../../../..//binary/armv7a/gcc/am335x/drivers/Debug/libdrivers.a(mailbox.o)
                                0x214 (size before relaxing)
 .debug_str     0x00007631       0xd0 ../../../../../..//binary/armv7a/gcc/am335x/drivers/Debug/libdrivers.a(mdio.o)
                                0x1c8 (size before relaxing)
 .debug_str     0x00007701      0x100 ../../../../../..//binary/armv7a/gcc/am335x/drivers/Debug/libdrivers.a(phy.o)
                                0x20d (size before relaxing)
 .debug_str     0x00007801      0x795 ../../../../../..//binary/armv7a/gcc/am335x/drivers/Debug/libdrivers.a(rtc.o)
                                0x867 (size before relaxing)
 .debug_str     0x00007f96      0x875 ../../../../../..//binary/armv7a/gcc/am335x/drivers/Debug/libdrivers.a(uart_irda_cir.o)
                                0x963 (size before relaxing)
 .debug_str     0x0000880b      0x107 ../../../../../..//binary/armv7a/gcc/utils/Debug/libutils.a(ascii.o)
                                0x18a (size before relaxing)
 .debug_str     0x00008912       0xae ../../../../../..//binary/armv7a/gcc/utils/Debug/libutils.a(board.o)
                                0x164 (size before relaxing)
 .debug_str     0x000089c0       0x50 ../../../../../..//binary/armv7a/gcc/utils/Debug/libutils.a(cmdline.o)
                                0x1aa (size before relaxing)
 .debug_str     0x00008a10      0x10f ../../../../../..//binary/armv7a/gcc/utils/Debug/libutils.a(consoleUtils.o)
                                0x283 (size before relaxing)
 .debug_str     0x00008b1f       0x2d ../../../../../..//binary/armv7a/gcc/utils/Debug/libutils.a(delay.o)
                                 0xf9 (size before relaxing)
 .debug_str     0x00008b4c      0x180 ../../../../../..//binary/armv7a/gcc/utils/Debug/libutils.a(uartStdio.o)
                                0x2a0 (size before relaxing)
 .debug_str     0x00008ccc       0x98 ../../../../../..//binary/armv7a/gcc/am335x/beaglebone/platform/Debug/libplatform.a(board.o)
                                0x17b (size before relaxing)
 .debug_str     0x00008d64       0x7f ../../../../../..//binary/armv7a/gcc/am335x/beaglebone/platform/Debug/libplatform.a(cpsw.o)
                                0x13d (size before relaxing)
 .debug_str     0x00008de3       0xd2 ../../../../../..//binary/armv7a/gcc/am335x/beaglebone/platform/Debug/libplatform.a(ctlregcontext.o)
                                0x1ed (size before relaxing)
 .debug_str     0x00008eb5       0xcd ../../../../../..//binary/armv7a/gcc/am335x/beaglebone/platform/Debug/libplatform.a(dmtimer.o)
                                0x182 (size before relaxing)
 .debug_str     0x00008f82       0x77 ../../../../../..//binary/armv7a/gcc/am335x/beaglebone/platform/Debug/libplatform.a(edma.o)
                                0x14a (size before relaxing)
 .debug_str     0x00008ff9       0x70 ../../../../../..//binary/armv7a/gcc/am335x/beaglebone/platform/Debug/libplatform.a(eeprom.o)
                                0x160 (size before relaxing)
 .debug_str     0x00009069       0xad ../../../../../..//binary/armv7a/gcc/am335x/beaglebone/platform/Debug/libplatform.a(gpio.o)
                                0x16b (size before relaxing)
 .debug_str     0x00009116       0x5c ../../../../../..//binary/armv7a/gcc/am335x/beaglebone/platform/Debug/libplatform.a(hs_mmcsd.o)
                                0x111 (size before relaxing)
 .debug_str     0x00009172       0x6f ../../../../../..//binary/armv7a/gcc/am335x/beaglebone/platform/Debug/libplatform.a(hsi2c.o)
                                0x12d (size before relaxing)
 .debug_str     0x000091e1       0x4e ../../../../../..//binary/armv7a/gcc/am335x/beaglebone/platform/Debug/libplatform.a(rtc.o)
                                0x10c (size before relaxing)
 .debug_str     0x0000922f       0x97 ../../../../../..//binary/armv7a/gcc/am335x/beaglebone/platform/Debug/libplatform.a(sysdelay.o)
                                0x15e (size before relaxing)
 .debug_str     0x000092c6       0xb3 ../../../../../..//binary/armv7a/gcc/am335x/beaglebone/platform/Debug/libplatform.a(uartConsole.o)
                                0x197 (size before relaxing)
 .debug_str     0x00009379       0x5f ../../../../../..//binary/armv7a/gcc/am335x/beaglebone/platform/Debug/libplatform.a(uart.o)
                                0x11d (size before relaxing)
 .debug_str     0x000093d8      0x102 ../../../../../..//binary/armv7a/gcc/mmcsdlib/Debug/libmmcsd.a(hs_mmcsdlib.o)
                                0x34e (size before relaxing)
 .debug_str     0x000094da       0xe0 ../../../../../..//binary/armv7a/gcc/mmcsdlib/Debug/libmmcsd.a(mmcsd_proto.o)
                                0x3b5 (size before relaxing)
 .debug_str     0x000095ba      0x165 ../../../../../..//binary/armv7a/gcc/am335x/system_config/Debug/libsystem_config.a(cache.o)
                                0x1c5 (size before relaxing)
 .debug_str     0x0000971f      0x2d0 ../../../../../..//binary/armv7a/gcc/am335x/system_config/Debug/libsystem_config.a(clock.o)
                                0x8b8 (size before relaxing)
 .debug_str     0x000099ef       0x5a ../../../../../..//binary/armv7a/gcc/am335x/system_config/Debug/libsystem_config.a(device.o)
                                0x117 (size before relaxing)
 .debug_str     0x00009a49      0x281 ../../../../../..//binary/armv7a/gcc/am335x/system_config/Debug/libsystem_config.a(interrupt.o)
                                0x379 (size before relaxing)
 .debug_str     0x00009cca       0x69 ../../../../../..//binary/armv7a/gcc/am335x/system_config/Debug/libsystem_config.a(mmu.o)
                                0x15c (size before relaxing)
 .debug_str     0x00009d33       0x6b ../../../../../..//binary/armv7a/gcc/am335x/system_config/Debug/libsystem_config.a(startup.o)
                                0x12e (size before relaxing)
 .debug_str     0x00009d9e       0x9a ../../../../../..//binary/armv7a/gcc/am335x/system_config/Debug/libsystem_config.a(cpu.o)
                                0x140 (size before relaxing)

.comment        0x00000000       0x70
 .comment       0x00000000       0x70 Debug/am335x_clock_data.o
                                 0x71 (size before relaxing)
 .comment       0x00000000       0x71 Debug/cm3wkup_proxy.o
 .comment       0x00000000       0x71 Debug/demoDvfs.o
 .comment       0x00000000       0x71 Debug/demoEnet.o
 .comment       0x00000000       0x71 Debug/demoGpio.o
 .comment       0x00000000       0x71 Debug/demoI2c.o
 .comment       0x00000000       0x71 Debug/demoLedIf.o
 .comment       0x00000000       0x71 Debug/demoMain.o
 .comment       0x00000000       0x71 Debug/demoPwrMgmnt.o
 .comment       0x00000000       0x71 Debug/demoRtc.o
 .comment       0x00000000       0x71 Debug/demoSdFs.o
 .comment       0x00000000       0x71 Debug/demoSdRw.o
 .comment       0x00000000       0x71 Debug/demoTimer.o
 .comment       0x00000000       0x71 Debug/demoUart.o
 .comment       0x00000000       0x71 Debug/fat_mmcsd.o
 .comment       0x00000000       0x71 Debug/ff.o
 .comment       0x00000000       0x71 Debug/httpd_io.o
 .comment       0x00000000       0x71 Debug/lwiplib.o
 .comment       0x00000000       0x71 Debug/pmic.o
 .comment       0x00000000       0x71 ../../../../../..//binary/armv7a/gcc/am335x/drivers/Debug/libdrivers.a(cpsw.o)
 .comment       0x00000000       0x71 ../../../../../..//binary/armv7a/gcc/am335x/drivers/Debug/libdrivers.a(dmtimer.o)
 .comment       0x00000000       0x71 ../../../../../..//binary/armv7a/gcc/am335x/drivers/Debug/libdrivers.a(edma.o)
 .comment       0x00000000       0x71 ../../../../../..//binary/armv7a/gcc/am335x/drivers/Debug/libdrivers.a(gpio_v2.o)
 .comment       0x00000000       0x71 ../../../../../..//binary/armv7a/gcc/am335x/drivers/Debug/libdrivers.a(gpmc.o)
 .comment       0x00000000       0x71 ../../../../../..//binary/armv7a/gcc/am335x/drivers/Debug/libdrivers.a(hs_mmcsd.o)
 .comment       0x00000000       0x71 ../../../../../..//binary/armv7a/gcc/am335x/drivers/Debug/libdrivers.a(hsi2c.o)
 .comment       0x00000000       0x71 ../../../../../..//binary/armv7a/gcc/am335x/drivers/Debug/libdrivers.a(mailbox.o)
 .comment       0x00000000       0x71 ../../../../../..//binary/armv7a/gcc/am335x/drivers/Debug/libdrivers.a(mdio.o)
 .comment       0x00000000       0x71 ../../../../../..//binary/armv7a/gcc/am335x/drivers/Debug/libdrivers.a(phy.o)
 .comment       0x00000000       0x71 ../../../../../..//binary/armv7a/gcc/am335x/drivers/Debug/libdrivers.a(rtc.o)
 .comment       0x00000000       0x71 ../../../../../..//binary/armv7a/gcc/am335x/drivers/Debug/libdrivers.a(uart_irda_cir.o)
 .comment       0x00000000       0x71 ../../../../../..//binary/armv7a/gcc/utils/Debug/libutils.a(ascii.o)
 .comment       0x00000000       0x71 ../../../../../..//binary/armv7a/gcc/utils/Debug/libutils.a(board.o)
 .comment       0x00000000       0x71 ../../../../../..//binary/armv7a/gcc/utils/Debug/libutils.a(cmdline.o)
 .comment       0x00000000       0x71 ../../../../../..//binary/armv7a/gcc/utils/Debug/libutils.a(consoleUtils.o)
 .comment       0x00000000       0x71 ../../../../../..//binary/armv7a/gcc/utils/Debug/libutils.a(delay.o)
 .comment       0x00000000       0x71 ../../../../../..//binary/armv7a/gcc/utils/Debug/libutils.a(uartStdio.o)
 .comment       0x00000000       0x71 ../../../../../..//binary/armv7a/gcc/am335x/beaglebone/platform/Debug/libplatform.a(board.o)
 .comment       0x00000000       0x71 ../../../../../..//binary/armv7a/gcc/am335x/beaglebone/platform/Debug/libplatform.a(cpsw.o)
 .comment       0x00000000       0x71 ../../../../../..//binary/armv7a/gcc/am335x/beaglebone/platform/Debug/libplatform.a(ctlregcontext.o)
 .comment       0x00000000       0x71 ../../../../../..//binary/armv7a/gcc/am335x/beaglebone/platform/Debug/libplatform.a(dmtimer.o)
 .comment       0x00000000       0x71 ../../../../../..//binary/armv7a/gcc/am335x/beaglebone/platform/Debug/libplatform.a(edma.o)
 .comment       0x00000000       0x71 ../../../../../..//binary/armv7a/gcc/am335x/beaglebone/platform/Debug/libplatform.a(eeprom.o)
 .comment       0x00000000       0x71 ../../../../../..//binary/armv7a/gcc/am335x/beaglebone/platform/Debug/libplatform.a(gpio.o)
 .comment       0x00000000       0x71 ../../../../../..//binary/armv7a/gcc/am335x/beaglebone/platform/Debug/libplatform.a(hs_mmcsd.o)
 .comment       0x00000000       0x71 ../../../../../..//binary/armv7a/gcc/am335x/beaglebone/platform/Debug/libplatform.a(hsi2c.o)
 .comment       0x00000000       0x71 ../../../../../..//binary/armv7a/gcc/am335x/beaglebone/platform/Debug/libplatform.a(rtc.o)
 .comment       0x00000000       0x71 ../../../../../..//binary/armv7a/gcc/am335x/beaglebone/platform/Debug/libplatform.a(sysdelay.o)
 .comment       0x00000000       0x71 ../../../../../..//binary/armv7a/gcc/am335x/beaglebone/platform/Debug/libplatform.a(uartConsole.o)
 .comment       0x00000000       0x71 ../../../../../..//binary/armv7a/gcc/am335x/beaglebone/platform/Debug/libplatform.a(uart.o)
 .comment       0x00000000       0x71 ../../../../../..//binary/armv7a/gcc/mmcsdlib/Debug/libmmcsd.a(hs_mmcsdlib.o)
 .comment       0x00000000       0x71 ../../../../../..//binary/armv7a/gcc/mmcsdlib/Debug/libmmcsd.a(mmcsd_proto.o)
 .comment       0x00000000       0x71 ../../../../../..//binary/armv7a/gcc/am335x/system_config/Debug/libsystem_config.a(cache.o)
 .comment       0x00000000       0x71 ../../../../../..//binary/armv7a/gcc/am335x/system_config/Debug/libsystem_config.a(clock.o)
 .comment       0x00000000       0x71 ../../../../../..//binary/armv7a/gcc/am335x/system_config/Debug/libsystem_config.a(device.o)
 .comment       0x00000000       0x71 ../../../../../..//binary/armv7a/gcc/am335x/system_config/Debug/libsystem_config.a(interrupt.o)
 .comment       0x00000000       0x71 ../../../../../..//binary/armv7a/gcc/am335x/system_config/Debug/libsystem_config.a(mmu.o)
 .comment       0x00000000       0x71 ../../../../../..//binary/armv7a/gcc/am335x/system_config/Debug/libsystem_config.a(startup.o)
 .comment       0x00000000       0x71 ../../../../../..//binary/armv7a/gcc/am335x/system_config/Debug/libsystem_config.a(cpu.o)

.ARM.attributes
                0x00000000       0x3b
 .ARM.attributes
                0x00000000       0x3d Debug/am335x_clock_data.o
 .ARM.attributes
                0x0000003d       0x3d Debug/cm3wkup_proxy.o
 .ARM.attributes
                0x0000007a       0x3d Debug/demoDvfs.o
 .ARM.attributes
                0x000000b7       0x3d Debug/demoEnet.o
 .ARM.attributes
                0x000000f4       0x3d Debug/demoGpio.o
 .ARM.attributes
                0x00000131       0x3d Debug/demoI2c.o
 .ARM.attributes
                0x0000016e       0x3d Debug/demoLedIf.o
 .ARM.attributes
                0x000001ab       0x3d Debug/demoMain.o
 .ARM.attributes
                0x000001e8       0x3d Debug/demoPwrMgmnt.o
 .ARM.attributes
                0x00000225       0x3d Debug/demoRtc.o
 .ARM.attributes
                0x00000262       0x3d Debug/demoSdFs.o
 .ARM.attributes
                0x0000029f       0x3d Debug/demoSdRw.o
 .ARM.attributes
                0x000002dc       0x3d Debug/demoTimer.o
 .ARM.attributes
                0x00000319       0x3d Debug/demoUart.o
 .ARM.attributes
                0x00000356       0x3d Debug/fat_mmcsd.o
 .ARM.attributes
                0x00000393       0x3d Debug/ff.o
 .ARM.attributes
                0x000003d0       0x3d Debug/httpd_io.o
 .ARM.attributes
                0x0000040d       0x3d Debug/lwiplib.o
 .ARM.attributes
                0x0000044a       0x3d Debug/pmic.o
 .ARM.attributes
                0x00000487       0x23 Debug/slpWkup_gcc.o
 .ARM.attributes
                0x000004aa       0x37 ../../../../../..//binary/armv7a/gcc/am335x/drivers/Debug/libdrivers.a(cpsw.o)
 .ARM.attributes
                0x000004e1       0x37 ../../../../../..//binary/armv7a/gcc/am335x/drivers/Debug/libdrivers.a(dmtimer.o)
 .ARM.attributes
                0x00000518       0x37 ../../../../../..//binary/armv7a/gcc/am335x/drivers/Debug/libdrivers.a(edma.o)
 .ARM.attributes
                0x0000054f       0x37 ../../../../../..//binary/armv7a/gcc/am335x/drivers/Debug/libdrivers.a(gpio_v2.o)
 .ARM.attributes
                0x00000586       0x37 ../../../../../..//binary/armv7a/gcc/am335x/drivers/Debug/libdrivers.a(gpmc.o)
 .ARM.attributes
                0x000005bd       0x37 ../../../../../..//binary/armv7a/gcc/am335x/drivers/Debug/libdrivers.a(hs_mmcsd.o)
 .ARM.attributes
                0x000005f4       0x37 ../../../../../..//binary/armv7a/gcc/am335x/drivers/Debug/libdrivers.a(hsi2c.o)
 .ARM.attributes
                0x0000062b       0x37 ../../../../../..//binary/armv7a/gcc/am335x/drivers/Debug/libdrivers.a(mailbox.o)
 .ARM.attributes
                0x00000662       0x37 ../../../../../..//binary/armv7a/gcc/am335x/drivers/Debug/libdrivers.a(mdio.o)
 .ARM.attributes
                0x00000699       0x37 ../../../../../..//binary/armv7a/gcc/am335x/drivers/Debug/libdrivers.a(phy.o)
 .ARM.attributes
                0x000006d0       0x37 ../../../../../..//binary/armv7a/gcc/am335x/drivers/Debug/libdrivers.a(rtc.o)
 .ARM.attributes
                0x00000707       0x37 ../../../../../..//binary/armv7a/gcc/am335x/drivers/Debug/libdrivers.a(uart_irda_cir.o)
 .ARM.attributes
                0x0000073e       0x37 ../../../../../..//binary/armv7a/gcc/utils/Debug/libutils.a(ascii.o)
 .ARM.attributes
                0x00000775       0x37 ../../../../../..//binary/armv7a/gcc/utils/Debug/libutils.a(board.o)
 .ARM.attributes
                0x000007ac       0x37 ../../../../../..//binary/armv7a/gcc/utils/Debug/libutils.a(cmdline.o)
 .ARM.attributes
                0x000007e3       0x37 ../../../../../..//binary/armv7a/gcc/utils/Debug/libutils.a(consoleUtils.o)
 .ARM.attributes
                0x0000081a       0x37 ../../../../../..//binary/armv7a/gcc/utils/Debug/libutils.a(delay.o)
 .ARM.attributes
                0x00000851       0x37 ../../../../../..//binary/armv7a/gcc/utils/Debug/libutils.a(uartStdio.o)
 .ARM.attributes
                0x00000888       0x37 ../../../../../..//binary/armv7a/gcc/am335x/beaglebone/platform/Debug/libplatform.a(board.o)
 .ARM.attributes
                0x000008bf       0x37 ../../../../../..//binary/armv7a/gcc/am335x/beaglebone/platform/Debug/libplatform.a(cpsw.o)
 .ARM.attributes
                0x000008f6       0x37 ../../../../../..//binary/armv7a/gcc/am335x/beaglebone/platform/Debug/libplatform.a(ctlregcontext.o)
 .ARM.attributes
                0x0000092d       0x37 ../../../../../..//binary/armv7a/gcc/am335x/beaglebone/platform/Debug/libplatform.a(dmtimer.o)
 .ARM.attributes
                0x00000964       0x37 ../../../../../..//binary/armv7a/gcc/am335x/beaglebone/platform/Debug/libplatform.a(edma.o)
 .ARM.attributes
                0x0000099b       0x37 ../../../../../..//binary/armv7a/gcc/am335x/beaglebone/platform/Debug/libplatform.a(eeprom.o)
 .ARM.attributes
                0x000009d2       0x37 ../../../../../..//binary/armv7a/gcc/am335x/beaglebone/platform/Debug/libplatform.a(gpio.o)
 .ARM.attributes
                0x00000a09       0x37 ../../../../../..//binary/armv7a/gcc/am335x/beaglebone/platform/Debug/libplatform.a(hs_mmcsd.o)
 .ARM.attributes
                0x00000a40       0x37 ../../../../../..//binary/armv7a/gcc/am335x/beaglebone/platform/Debug/libplatform.a(hsi2c.o)
 .ARM.attributes
                0x00000a77       0x37 ../../../../../..//binary/armv7a/gcc/am335x/beaglebone/platform/Debug/libplatform.a(rtc.o)
 .ARM.attributes
                0x00000aae       0x37 ../../../../../..//binary/armv7a/gcc/am335x/beaglebone/platform/Debug/libplatform.a(sysdelay.o)
 .ARM.attributes
                0x00000ae5       0x37 ../../../../../..//binary/armv7a/gcc/am335x/beaglebone/platform/Debug/libplatform.a(uartConsole.o)
 .ARM.attributes
                0x00000b1c       0x37 ../../../../../..//binary/armv7a/gcc/am335x/beaglebone/platform/Debug/libplatform.a(uart.o)
 .ARM.attributes
                0x00000b53       0x37 ../../../../../..//binary/armv7a/gcc/mmcsdlib/Debug/libmmcsd.a(hs_mmcsdlib.o)
 .ARM.attributes
                0x00000b8a       0x37 ../../../../../..//binary/armv7a/gcc/mmcsdlib/Debug/libmmcsd.a(mmcsd_proto.o)
 .ARM.attributes
                0x00000bc1       0x3d ../../../../../..//binary/armv7a/gcc/am335x/system_config/Debug/libsystem_config.a(cache.o)
 .ARM.attributes
                0x00000bfe       0x3d ../../../../../..//binary/armv7a/gcc/am335x/system_config/Debug/libsystem_config.a(clock.o)
 .ARM.attributes
                0x00000c3b       0x23 ../../../../../..//binary/armv7a/gcc/am335x/system_config/Debug/libsystem_config.a(cp15.o)
 .ARM.attributes
                0x00000c5e       0x3d ../../../../../..//binary/armv7a/gcc/am335x/system_config/Debug/libsystem_config.a(device.o)
 .ARM.attributes
                0x00000c9b       0x23 ../../../../../..//binary/armv7a/gcc/am335x/system_config/Debug/libsystem_config.a(init.o)
 .ARM.attributes
                0x00000cbe       0x3d ../../../../../..//binary/armv7a/gcc/am335x/system_config/Debug/libsystem_config.a(interrupt.o)
 .ARM.attributes
                0x00000cfb       0x3d ../../../../../..//binary/armv7a/gcc/am335x/system_config/Debug/libsystem_config.a(mmu.o)
 .ARM.attributes
                0x00000d38       0x3d ../../../../../..//binary/armv7a/gcc/am335x/system_config/Debug/libsystem_config.a(startup.o)
 .ARM.attributes
                0x00000d75       0x3d ../../../../../..//binary/armv7a/gcc/am335x/system_config/Debug/libsystem_config.a(cpu.o)
 .ARM.attributes
                0x00000db2       0x23 ../../../../../..//binary/armv7a/gcc/am335x/system_config/Debug/libsystem_config.a(exceptionhandler.o)
 .ARM.attributes
                0x00000dd5       0x30 /home/sungjae/gcc-arm-none-eabi-4_7-2012q4//arm-none-eabi/lib//libc.a(lib_a-memcmp.o)
 .ARM.attributes
                0x00000e05       0x30 /home/sungjae/gcc-arm-none-eabi-4_7-2012q4//arm-none-eabi/lib//libc.a(lib_a-memcpy.o)
 .ARM.attributes
                0x00000e35       0x30 /home/sungjae/gcc-arm-none-eabi-4_7-2012q4//arm-none-eabi/lib//libc.a(lib_a-memset.o)
 .ARM.attributes
                0x00000e65       0x30 /home/sungjae/gcc-arm-none-eabi-4_7-2012q4//arm-none-eabi/lib//libc.a(lib_a-strcat.o)
 .ARM.attributes
                0x00000e95       0x30 /home/sungjae/gcc-arm-none-eabi-4_7-2012q4//arm-none-eabi/lib//libc.a(lib_a-strchr.o)
 .ARM.attributes
                0x00000ec5       0x30 /home/sungjae/gcc-arm-none-eabi-4_7-2012q4//arm-none-eabi/lib//libc.a(lib_a-strcmp.o)
 .ARM.attributes
                0x00000ef5       0x30 /home/sungjae/gcc-arm-none-eabi-4_7-2012q4//arm-none-eabi/lib//libc.a(lib_a-strcpy.o)
 .ARM.attributes
                0x00000f25       0x30 /home/sungjae/gcc-arm-none-eabi-4_7-2012q4//arm-none-eabi/lib//libc.a(lib_a-strlen.o)
 .ARM.attributes
                0x00000f55       0x30 /home/sungjae/gcc-arm-none-eabi-4_7-2012q4//arm-none-eabi/lib//libc.a(lib_a-strncmp.o)
 .ARM.attributes
                0x00000f85       0x30 /home/sungjae/gcc-arm-none-eabi-4_7-2012q4//arm-none-eabi/lib//libc.a(lib_a-strncpy.o)
 .ARM.attributes
                0x00000fb5       0x18 /home/sungjae/gcc-arm-none-eabi-4_7-2012q4//lib/gcc/arm-none-eabi/4.7.3//libgcc.a(_udivsi3.o)
 .ARM.attributes
                0x00000fcd       0x18 /home/sungjae/gcc-arm-none-eabi-4_7-2012q4//lib/gcc/arm-none-eabi/4.7.3//libgcc.a(_divsi3.o)
 .ARM.attributes
                0x00000fe5       0x18 /home/sungjae/gcc-arm-none-eabi-4_7-2012q4//lib/gcc/arm-none-eabi/4.7.3//libgcc.a(_dvmd_tls.o)

.debug_loc      0x00000000     0xc30c
 .debug_loc     0x00000000      0x268 Debug/cm3wkup_proxy.o
 .debug_loc     0x00000268      0x108 Debug/demoDvfs.o
 .debug_loc     0x00000370      0x210 Debug/demoEnet.o
 .debug_loc     0x00000580       0x84 Debug/demoGpio.o
 .debug_loc     0x00000604      0x134 Debug/demoI2c.o
 .debug_loc     0x00000738       0xb0 Debug/demoLedIf.o
 .debug_loc     0x000007e8      0x44c Debug/demoMain.o
 .debug_loc     0x00000c34      0x23c Debug/demoPwrMgmnt.o
 .debug_loc     0x00000e70      0x108 Debug/demoRtc.o
 .debug_loc     0x00000f78      0x1b8 Debug/demoSdFs.o
 .debug_loc     0x00001130      0x294 Debug/demoSdRw.o
 .debug_loc     0x000013c4      0x39c Debug/demoTimer.o
 .debug_loc     0x00001760       0x58 Debug/demoUart.o
 .debug_loc     0x000017b8      0x108 Debug/fat_mmcsd.o
 .debug_loc     0x000018c0      0x528 Debug/ff.o
 .debug_loc     0x00001de8      0x44c Debug/httpd_io.o
 .debug_loc     0x00002234     0x24f4 Debug/lwiplib.o
 .debug_loc     0x00004728       0xb0 Debug/pmic.o
 .debug_loc     0x000047d8      0xce4 ../../../../../..//binary/armv7a/gcc/am335x/drivers/Debug/libdrivers.a(cpsw.o)
 .debug_loc     0x000054bc      0x478 ../../../../../..//binary/armv7a/gcc/am335x/drivers/Debug/libdrivers.a(dmtimer.o)
 .debug_loc     0x00005934      0x738 ../../../../../..//binary/armv7a/gcc/am335x/drivers/Debug/libdrivers.a(edma.o)
 .debug_loc     0x0000606c      0x4fc ../../../../../..//binary/armv7a/gcc/am335x/drivers/Debug/libdrivers.a(gpio_v2.o)
 .debug_loc     0x00006568      0xe44 ../../../../../..//binary/armv7a/gcc/am335x/drivers/Debug/libdrivers.a(gpmc.o)
 .debug_loc     0x000073ac      0x4d0 ../../../../../..//binary/armv7a/gcc/am335x/drivers/Debug/libdrivers.a(hs_mmcsd.o)
 .debug_loc     0x0000787c      0x7bc ../../../../../..//binary/armv7a/gcc/am335x/drivers/Debug/libdrivers.a(hsi2c.o)
 .debug_loc     0x00008038      0x268 ../../../../../..//binary/armv7a/gcc/am335x/drivers/Debug/libdrivers.a(mailbox.o)
 .debug_loc     0x000082a0      0x134 ../../../../../..//binary/armv7a/gcc/am335x/drivers/Debug/libdrivers.a(mdio.o)
 .debug_loc     0x000083d4      0x1e4 ../../../../../..//binary/armv7a/gcc/am335x/drivers/Debug/libdrivers.a(phy.o)
 .debug_loc     0x000085b8      0xf20 ../../../../../..//binary/armv7a/gcc/am335x/drivers/Debug/libdrivers.a(rtc.o)
 .debug_loc     0x000094d8      0xcb8 ../../../../../..//binary/armv7a/gcc/am335x/drivers/Debug/libdrivers.a(uart_irda_cir.o)
 .debug_loc     0x0000a190      0x108 ../../../../../..//binary/armv7a/gcc/utils/Debug/libutils.a(ascii.o)
 .debug_loc     0x0000a298       0xb0 ../../../../../..//binary/armv7a/gcc/utils/Debug/libutils.a(board.o)
 .debug_loc     0x0000a348       0x2c ../../../../../..//binary/armv7a/gcc/utils/Debug/libutils.a(cmdline.o)
 .debug_loc     0x0000a374      0x178 ../../../../../..//binary/armv7a/gcc/utils/Debug/libutils.a(consoleUtils.o)
 .debug_loc     0x0000a4ec       0xdc ../../../../../..//binary/armv7a/gcc/utils/Debug/libutils.a(delay.o)
 .debug_loc     0x0000a5c8      0x274 ../../../../../..//binary/armv7a/gcc/utils/Debug/libutils.a(uartStdio.o)
 .debug_loc     0x0000a83c       0x2c ../../../../../..//binary/armv7a/gcc/am335x/beaglebone/platform/Debug/libplatform.a(board.o)
 .debug_loc     0x0000a868       0xb0 ../../../../../..//binary/armv7a/gcc/am335x/beaglebone/platform/Debug/libplatform.a(cpsw.o)
 .debug_loc     0x0000a918      0x134 ../../../../../..//binary/armv7a/gcc/am335x/beaglebone/platform/Debug/libplatform.a(ctlregcontext.o)
 .debug_loc     0x0000aa4c      0x108 ../../../../../..//binary/armv7a/gcc/am335x/beaglebone/platform/Debug/libplatform.a(dmtimer.o)
 .debug_loc     0x0000ab54       0x84 ../../../../../..//binary/armv7a/gcc/am335x/beaglebone/platform/Debug/libplatform.a(edma.o)
 .debug_loc     0x0000abd8       0xdc ../../../../../..//binary/armv7a/gcc/am335x/beaglebone/platform/Debug/libplatform.a(eeprom.o)
 .debug_loc     0x0000acb4       0xdc ../../../../../..//binary/armv7a/gcc/am335x/beaglebone/platform/Debug/libplatform.a(gpio.o)
 .debug_loc     0x0000ad90       0x58 ../../../../../..//binary/armv7a/gcc/am335x/beaglebone/platform/Debug/libplatform.a(hs_mmcsd.o)
 .debug_loc     0x0000ade8       0x84 ../../../../../..//binary/armv7a/gcc/am335x/beaglebone/platform/Debug/libplatform.a(hsi2c.o)
 .debug_loc     0x0000ae6c       0x58 ../../../../../..//binary/armv7a/gcc/am335x/beaglebone/platform/Debug/libplatform.a(rtc.o)
 .debug_loc     0x0000aec4      0x108 ../../../../../..//binary/armv7a/gcc/am335x/beaglebone/platform/Debug/libplatform.a(sysdelay.o)
 .debug_loc     0x0000afcc      0x108 ../../../../../..//binary/armv7a/gcc/am335x/beaglebone/platform/Debug/libplatform.a(uartConsole.o)
 .debug_loc     0x0000b0d4       0x58 ../../../../../..//binary/armv7a/gcc/am335x/beaglebone/platform/Debug/libplatform.a(uart.o)
 .debug_loc     0x0000b12c      0x108 ../../../../../..//binary/armv7a/gcc/mmcsdlib/Debug/libmmcsd.a(hs_mmcsdlib.o)
 .debug_loc     0x0000b234      0x23c ../../../../../..//binary/armv7a/gcc/mmcsdlib/Debug/libmmcsd.a(mmcsd_proto.o)
 .debug_loc     0x0000b470      0x1b8 ../../../../../..//binary/armv7a/gcc/am335x/system_config/Debug/libsystem_config.a(cache.o)
 .debug_loc     0x0000b628      0x4fc ../../../../../..//binary/armv7a/gcc/am335x/system_config/Debug/libsystem_config.a(clock.o)
 .debug_loc     0x0000bb24       0x58 ../../../../../..//binary/armv7a/gcc/am335x/system_config/Debug/libsystem_config.a(device.o)
 .debug_loc     0x0000bb7c      0x554 ../../../../../..//binary/armv7a/gcc/am335x/system_config/Debug/libsystem_config.a(interrupt.o)
 .debug_loc     0x0000c0d0       0x84 ../../../../../..//binary/armv7a/gcc/am335x/system_config/Debug/libsystem_config.a(mmu.o)
 .debug_loc     0x0000c154       0x58 ../../../../../..//binary/armv7a/gcc/am335x/system_config/Debug/libsystem_config.a(startup.o)
 .debug_loc     0x0000c1ac      0x160 ../../../../../..//binary/armv7a/gcc/am335x/system_config/Debug/libsystem_config.a(cpu.o)

.debug_ranges   0x00000000     0x25d0
 .debug_ranges  0x00000000       0x78 Debug/cm3wkup_proxy.o
 .debug_ranges  0x00000078       0x38 Debug/demoDvfs.o
 .debug_ranges  0x000000b0       0x68 Debug/demoEnet.o
 .debug_ranges  0x00000118       0x20 Debug/demoGpio.o
 .debug_ranges  0x00000138       0x40 Debug/demoI2c.o
 .debug_ranges  0x00000178       0x28 Debug/demoLedIf.o
 .debug_ranges  0x000001a0       0xd0 Debug/demoMain.o
 .debug_ranges  0x00000270       0x70 Debug/demoPwrMgmnt.o
 .debug_ranges  0x000002e0       0x38 Debug/demoRtc.o
 .debug_ranges  0x00000318       0x58 Debug/demoSdFs.o
 .debug_ranges  0x00000370       0x80 Debug/demoSdRw.o
 .debug_ranges  0x000003f0       0xb0 Debug/demoTimer.o
 .debug_ranges  0x000004a0       0x18 Debug/demoUart.o
 .debug_ranges  0x000004b8       0x38 Debug/fat_mmcsd.o
 .debug_ranges  0x000004f0       0xf8 Debug/ff.o
 .debug_ranges  0x000005e8       0xd0 Debug/httpd_io.o
 .debug_ranges  0x000006b8      0x750 Debug/lwiplib.o
 .debug_ranges  0x00000e08       0x28 Debug/pmic.o
 .debug_ranges  0x00000e30      0x260 ../../../../../..//binary/armv7a/gcc/am335x/drivers/Debug/libdrivers.a(cpsw.o)
 .debug_ranges  0x00001090       0xd8 ../../../../../..//binary/armv7a/gcc/am335x/drivers/Debug/libdrivers.a(dmtimer.o)
 .debug_ranges  0x00001168      0x158 ../../../../../..//binary/armv7a/gcc/am335x/drivers/Debug/libdrivers.a(edma.o)
 .debug_ranges  0x000012c0       0xf0 ../../../../../..//binary/armv7a/gcc/am335x/drivers/Debug/libdrivers.a(gpio_v2.o)
 .debug_ranges  0x000013b0      0x2a0 ../../../../../..//binary/armv7a/gcc/am335x/drivers/Debug/libdrivers.a(gpmc.o)
 .debug_ranges  0x00001650       0xe8 ../../../../../..//binary/armv7a/gcc/am335x/drivers/Debug/libdrivers.a(hs_mmcsd.o)
 .debug_ranges  0x00001738      0x170 ../../../../../..//binary/armv7a/gcc/am335x/drivers/Debug/libdrivers.a(hsi2c.o)
 .debug_ranges  0x000018a8       0x78 ../../../../../..//binary/armv7a/gcc/am335x/drivers/Debug/libdrivers.a(mailbox.o)
 .debug_ranges  0x00001920       0x40 ../../../../../..//binary/armv7a/gcc/am335x/drivers/Debug/libdrivers.a(mdio.o)
 .debug_ranges  0x00001960       0x60 ../../../../../..//binary/armv7a/gcc/am335x/drivers/Debug/libdrivers.a(phy.o)
 .debug_ranges  0x000019c0      0x2c8 ../../../../../..//binary/armv7a/gcc/am335x/drivers/Debug/libdrivers.a(rtc.o)
 .debug_ranges  0x00001c88      0x258 ../../../../../..//binary/armv7a/gcc/am335x/drivers/Debug/libdrivers.a(uart_irda_cir.o)
 .debug_ranges  0x00001ee0       0x38 ../../../../../..//binary/armv7a/gcc/utils/Debug/libutils.a(ascii.o)
 .debug_ranges  0x00001f18       0x28 ../../../../../..//binary/armv7a/gcc/utils/Debug/libutils.a(board.o)
 .debug_ranges  0x00001f40       0x10 ../../../../../..//binary/armv7a/gcc/utils/Debug/libutils.a(cmdline.o)
 .debug_ranges  0x00001f50       0x48 ../../../../../..//binary/armv7a/gcc/utils/Debug/libutils.a(consoleUtils.o)
 .debug_ranges  0x00001f98       0x30 ../../../../../..//binary/armv7a/gcc/utils/Debug/libutils.a(delay.o)
 .debug_ranges  0x00001fc8       0x78 ../../../../../..//binary/armv7a/gcc/utils/Debug/libutils.a(uartStdio.o)
 .debug_ranges  0x00002040       0x10 ../../../../../..//binary/armv7a/gcc/am335x/beaglebone/platform/Debug/libplatform.a(board.o)
 .debug_ranges  0x00002050       0x28 ../../../../../..//binary/armv7a/gcc/am335x/beaglebone/platform/Debug/libplatform.a(cpsw.o)
 .debug_ranges  0x00002078       0x40 ../../../../../..//binary/armv7a/gcc/am335x/beaglebone/platform/Debug/libplatform.a(ctlregcontext.o)
 .debug_ranges  0x000020b8       0x38 ../../../../../..//binary/armv7a/gcc/am335x/beaglebone/platform/Debug/libplatform.a(dmtimer.o)
 .debug_ranges  0x000020f0       0x20 ../../../../../..//binary/armv7a/gcc/am335x/beaglebone/platform/Debug/libplatform.a(edma.o)
 .debug_ranges  0x00002110       0x30 ../../../../../..//binary/armv7a/gcc/am335x/beaglebone/platform/Debug/libplatform.a(eeprom.o)
 .debug_ranges  0x00002140       0x30 ../../../../../..//binary/armv7a/gcc/am335x/beaglebone/platform/Debug/libplatform.a(gpio.o)
 .debug_ranges  0x00002170       0x18 ../../../../../..//binary/armv7a/gcc/am335x/beaglebone/platform/Debug/libplatform.a(hs_mmcsd.o)
 .debug_ranges  0x00002188       0x20 ../../../../../..//binary/armv7a/gcc/am335x/beaglebone/platform/Debug/libplatform.a(hsi2c.o)
 .debug_ranges  0x000021a8       0x18 ../../../../../..//binary/armv7a/gcc/am335x/beaglebone/platform/Debug/libplatform.a(rtc.o)
 .debug_ranges  0x000021c0       0x38 ../../../../../..//binary/armv7a/gcc/am335x/beaglebone/platform/Debug/libplatform.a(sysdelay.o)
 .debug_ranges  0x000021f8       0x38 ../../../../../..//binary/armv7a/gcc/am335x/beaglebone/platform/Debug/libplatform.a(uartConsole.o)
 .debug_ranges  0x00002230       0x18 ../../../../../..//binary/armv7a/gcc/am335x/beaglebone/platform/Debug/libplatform.a(uart.o)
 .debug_ranges  0x00002248       0x38 ../../../../../..//binary/armv7a/gcc/mmcsdlib/Debug/libmmcsd.a(hs_mmcsdlib.o)
 .debug_ranges  0x00002280       0x70 ../../../../../..//binary/armv7a/gcc/mmcsdlib/Debug/libmmcsd.a(mmcsd_proto.o)
 .debug_ranges  0x000022f0       0x58 ../../../../../..//binary/armv7a/gcc/am335x/system_config/Debug/libsystem_config.a(cache.o)
 .debug_ranges  0x00002348       0xf0 ../../../../../..//binary/armv7a/gcc/am335x/system_config/Debug/libsystem_config.a(clock.o)
 .debug_ranges  0x00002438       0x18 ../../../../../..//binary/armv7a/gcc/am335x/system_config/Debug/libsystem_config.a(device.o)
 .debug_ranges  0x00002450      0x100 ../../../../../..//binary/armv7a/gcc/am335x/system_config/Debug/libsystem_config.a(interrupt.o)
 .debug_ranges  0x00002550       0x20 ../../../../../..//binary/armv7a/gcc/am335x/system_config/Debug/libsystem_config.a(mmu.o)
 .debug_ranges  0x00002570       0x18 ../../../../../..//binary/armv7a/gcc/am335x/system_config/Debug/libsystem_config.a(startup.o)
 .debug_ranges  0x00002588       0x48 ../../../../../..//binary/armv7a/gcc/am335x/system_config/Debug/libsystem_config.a(cpu.o)

.debug_frame    0x00000000     0x786c
 .debug_frame   0x00000000      0x184 Debug/cm3wkup_proxy.o
 .debug_frame   0x00000184       0xac Debug/demoDvfs.o
 .debug_frame   0x00000230      0x164 Debug/demoEnet.o
 .debug_frame   0x00000394       0x64 Debug/demoGpio.o
 .debug_frame   0x000003f8       0xd4 Debug/demoI2c.o
 .debug_frame   0x000004cc       0x80 Debug/demoLedIf.o
 .debug_frame   0x0000054c      0x2c4 Debug/demoMain.o
 .debug_frame   0x00000810      0x174 Debug/demoPwrMgmnt.o
 .debug_frame   0x00000984       0xb4 Debug/demoRtc.o
 .debug_frame   0x00000a38      0x134 Debug/demoSdFs.o
 .debug_frame   0x00000b6c      0x1a4 Debug/demoSdRw.o
 .debug_frame   0x00000d10      0x254 Debug/demoTimer.o
 .debug_frame   0x00000f64       0x48 Debug/demoUart.o
 .debug_frame   0x00000fac       0xac Debug/fat_mmcsd.o
 .debug_frame   0x00001058      0x350 Debug/ff.o
 .debug_frame   0x000013a8      0x2bc Debug/httpd_io.o
 .debug_frame   0x00001664     0x1700 Debug/lwiplib.o
 .debug_frame   0x00002d64       0x80 Debug/pmic.o
 .debug_frame   0x00002de4      0x720 ../../../../../..//binary/armv7a/gcc/am335x/drivers/Debug/libdrivers.a(cpsw.o)
 .debug_frame   0x00003504      0x2b4 ../../../../../..//binary/armv7a/gcc/am335x/drivers/Debug/libdrivers.a(dmtimer.o)
 .debug_frame   0x000037b8      0x420 ../../../../../..//binary/armv7a/gcc/am335x/drivers/Debug/libdrivers.a(edma.o)
 .debug_frame   0x00003bd8      0x2c8 ../../../../../..//binary/armv7a/gcc/am335x/drivers/Debug/libdrivers.a(gpio_v2.o)
 .debug_frame   0x00003ea0      0x7d8 ../../../../../..//binary/armv7a/gcc/am335x/drivers/Debug/libdrivers.a(gpmc.o)
 .debug_frame   0x00004678      0x2c0 ../../../../../..//binary/armv7a/gcc/am335x/drivers/Debug/libdrivers.a(hs_mmcsd.o)
 .debug_frame   0x00004938      0x44c ../../../../../..//binary/armv7a/gcc/am335x/drivers/Debug/libdrivers.a(hsi2c.o)
 .debug_frame   0x00004d84      0x160 ../../../../../..//binary/armv7a/gcc/am335x/drivers/Debug/libdrivers.a(mailbox.o)
 .debug_frame   0x00004ee4       0xbc ../../../../../..//binary/armv7a/gcc/am335x/drivers/Debug/libdrivers.a(mdio.o)
 .debug_frame   0x00004fa0      0x144 ../../../../../..//binary/armv7a/gcc/am335x/drivers/Debug/libdrivers.a(phy.o)
 .debug_frame   0x000050e4      0x880 ../../../../../..//binary/armv7a/gcc/am335x/drivers/Debug/libdrivers.a(rtc.o)
 .debug_frame   0x00005964      0x778 ../../../../../..//binary/armv7a/gcc/am335x/drivers/Debug/libdrivers.a(uart_irda_cir.o)
 .debug_frame   0x000060dc       0xb0 ../../../../../..//binary/armv7a/gcc/utils/Debug/libutils.a(ascii.o)
 .debug_frame   0x0000618c       0x74 ../../../../../..//binary/armv7a/gcc/utils/Debug/libutils.a(board.o)
 .debug_frame   0x00006200       0x2c ../../../../../..//binary/armv7a/gcc/utils/Debug/libutils.a(cmdline.o)
 .debug_frame   0x0000622c      0x108 ../../../../../..//binary/armv7a/gcc/utils/Debug/libutils.a(consoleUtils.o)
 .debug_frame   0x00006334       0x9c ../../../../../..//binary/armv7a/gcc/utils/Debug/libutils.a(delay.o)
 .debug_frame   0x000063d0      0x1a8 ../../../../../..//binary/armv7a/gcc/utils/Debug/libutils.a(uartStdio.o)
 .debug_frame   0x00006578       0x2c ../../../../../..//binary/armv7a/gcc/am335x/beaglebone/platform/Debug/libplatform.a(board.o)
 .debug_frame   0x000065a4       0x70 ../../../../../..//binary/armv7a/gcc/am335x/beaglebone/platform/Debug/libplatform.a(cpsw.o)
 .debug_frame   0x00006614       0xb8 ../../../../../..//binary/armv7a/gcc/am335x/beaglebone/platform/Debug/libplatform.a(ctlregcontext.o)
 .debug_frame   0x000066cc       0xa0 ../../../../../..//binary/armv7a/gcc/am335x/beaglebone/platform/Debug/libplatform.a(dmtimer.o)
 .debug_frame   0x0000676c       0x58 ../../../../../..//binary/armv7a/gcc/am335x/beaglebone/platform/Debug/libplatform.a(edma.o)
 .debug_frame   0x000067c4       0x9c ../../../../../..//binary/armv7a/gcc/am335x/beaglebone/platform/Debug/libplatform.a(eeprom.o)
 .debug_frame   0x00006860       0x88 ../../../../../..//binary/armv7a/gcc/am335x/beaglebone/platform/Debug/libplatform.a(gpio.o)
 .debug_frame   0x000068e8       0x40 ../../../../../..//binary/armv7a/gcc/am335x/beaglebone/platform/Debug/libplatform.a(hs_mmcsd.o)
 .debug_frame   0x00006928       0x58 ../../../../../..//binary/armv7a/gcc/am335x/beaglebone/platform/Debug/libplatform.a(hsi2c.o)
 .debug_frame   0x00006980       0x40 ../../../../../..//binary/armv7a/gcc/am335x/beaglebone/platform/Debug/libplatform.a(rtc.o)
 .debug_frame   0x000069c0       0xb4 ../../../../../..//binary/armv7a/gcc/am335x/beaglebone/platform/Debug/libplatform.a(sysdelay.o)
 .debug_frame   0x00006a74       0xb8 ../../../../../..//binary/armv7a/gcc/am335x/beaglebone/platform/Debug/libplatform.a(uartConsole.o)
 .debug_frame   0x00006b2c       0x40 ../../../../../..//binary/armv7a/gcc/am335x/beaglebone/platform/Debug/libplatform.a(uart.o)
 .debug_frame   0x00006b6c       0xb8 ../../../../../..//binary/armv7a/gcc/mmcsdlib/Debug/libmmcsd.a(hs_mmcsdlib.o)
 .debug_frame   0x00006c24      0x17c ../../../../../..//binary/armv7a/gcc/mmcsdlib/Debug/libmmcsd.a(mmcsd_proto.o)
 .debug_frame   0x00006da0      0x128 ../../../../../..//binary/armv7a/gcc/am335x/system_config/Debug/libsystem_config.a(cache.o)
 .debug_frame   0x00006ec8      0x2f8 ../../../../../..//binary/armv7a/gcc/am335x/system_config/Debug/libsystem_config.a(clock.o)
 .debug_frame   0x000071c0       0x40 ../../../../../..//binary/armv7a/gcc/am335x/system_config/Debug/libsystem_config.a(device.o)
 .debug_frame   0x00007200      0x314 ../../../../../..//binary/armv7a/gcc/am335x/system_config/Debug/libsystem_config.a(interrupt.o)
 .debug_frame   0x00007514       0x60 ../../../../../..//binary/armv7a/gcc/am335x/system_config/Debug/libsystem_config.a(mmu.o)
 .debug_frame   0x00007574       0x48 ../../../../../..//binary/armv7a/gcc/am335x/system_config/Debug/libsystem_config.a(startup.o)
 .debug_frame   0x000075bc       0xd4 ../../../../../..//binary/armv7a/gcc/am335x/system_config/Debug/libsystem_config.a(cpu.o)
 .debug_frame   0x00007690       0x28 /home/sungjae/gcc-arm-none-eabi-4_7-2012q4//arm-none-eabi/lib//libc.a(lib_a-memcmp.o)
 .debug_frame   0x000076b8       0x2c /home/sungjae/gcc-arm-none-eabi-4_7-2012q4//arm-none-eabi/lib//libc.a(lib_a-memcpy.o)
 .debug_frame   0x000076e4       0x28 /home/sungjae/gcc-arm-none-eabi-4_7-2012q4//arm-none-eabi/lib//libc.a(lib_a-memset.o)
 .debug_frame   0x0000770c       0x2c /home/sungjae/gcc-arm-none-eabi-4_7-2012q4//arm-none-eabi/lib//libc.a(lib_a-strcat.o)
 .debug_frame   0x00007738       0x30 /home/sungjae/gcc-arm-none-eabi-4_7-2012q4//arm-none-eabi/lib//libc.a(lib_a-strchr.o)
 .debug_frame   0x00007768       0x30 /home/sungjae/gcc-arm-none-eabi-4_7-2012q4//arm-none-eabi/lib//libc.a(lib_a-strcmp.o)
 .debug_frame   0x00007798       0x20 /home/sungjae/gcc-arm-none-eabi-4_7-2012q4//arm-none-eabi/lib//libc.a(lib_a-strcpy.o)
 .debug_frame   0x000077b8       0x20 /home/sungjae/gcc-arm-none-eabi-4_7-2012q4//arm-none-eabi/lib//libc.a(lib_a-strlen.o)
 .debug_frame   0x000077d8       0x28 /home/sungjae/gcc-arm-none-eabi-4_7-2012q4//arm-none-eabi/lib//libc.a(lib_a-strncmp.o)
 .debug_frame   0x00007800       0x2c /home/sungjae/gcc-arm-none-eabi-4_7-2012q4//arm-none-eabi/lib//libc.a(lib_a-strncpy.o)
 .debug_frame   0x0000782c       0x20 /home/sungjae/gcc-arm-none-eabi-4_7-2012q4//lib/gcc/arm-none-eabi/4.7.3//libgcc.a(_udivsi3.o)
 .debug_frame   0x0000784c       0x20 /home/sungjae/gcc-arm-none-eabi-4_7-2012q4//lib/gcc/arm-none-eabi/4.7.3//libgcc.a(_divsi3.o)
